E:\Programs\UnityBase\ub.exe 4.0.0.0 (2018-02-22 17:30:16)Host=OLEG-PC User=Oleg CPU=8*9-6-14857:FFFBEBBFBFE3BA7F8102000000 OS=19.0=6.3.9600 Wow64=1 Freq=2046139Environment variables=ALLUSERSPROFILE=C:\ProgramData	ANSICON=163x1000 (163x41)	ANSICON_DEF=7	APPDATA=C:\Users\Oleg\AppData\Roaming	CommonProgramFiles=C:\Program Files (x86)\Common Files	CommonProgramFiles(x86)=C:\Program Files (x86)\Common Files	CommonProgramW6432=C:\Program Files\Common Files	COMPUTERNAME=OLEG-PC	ComSpec=C:\Windows\system32\cmd.exe	ConEmuANSI=ON	ConEmuAnsiLog=	ConEmuArgs=	ConEmuArgs2=	ConEmuBackHWND=0x000803CA	ConEmuBaseDir=E:\Programs\ConEmu\ConEmu	ConEmuBuild=161206	ConEmuConfig=	ConEmuDir=E:\Programs\ConEmu	ConEmuDrawHWND=0x001A03B6	ConEmuDrive=E:	ConEmuHooks=Enabled	ConEmuHWND=0x000703E0	ConEmuPalette=<Tomorrow Night>	ConEmuPID=220	ConEmuServerPID=1096	ConEmuTask={Far}	ConEmuWorkDir=C:\Users\Oleg	ConEmuWorkDrive=C:	FARHOME=E:\Programs\FarManager	FARLANG=English	FARLOCALPROFILE=C:\Users\Oleg\AppData\Local\Far Manager\Profile	FARPROFILE=C:\Users\Oleg\AppData\Roaming\Far Manager\Profile	FP_NO_HOST_CHECK=NO	HOMEDRIVE=C:	HOMEPATH=\Users\Oleg	LOCALAPPDATA=C:\Users\Oleg\AppData\Local	LOGONSERVER=\\MicrosoftAccount	NUMBER_OF_PROCESSORS=8	OS=Windows_NT	Path=E:\Programs\ConEmu\ConEmu\Scripts;E:\Programs\ConEmu;E:\Programs\ConEmu\ConEmu;C:\ProgramData\Oracle\Java\javapath;C:\Windows\system32;C:\Windows;C:\Windows\System32\Wbem;C:\Windows\System32\WindowsPowerShell\v1.0\;C:\Program Files\Git\cmd;C:\adb;C:\program files (x86)\skype\Phone\;C:\Program Files\nodejs\;C:\Program Files (x86)\NVIDIA Corporation\PhysX\Common;E:\Programs\UnityBase;C:\Users\Oleg\AppData\Roaming\npm	PATHEXT=.COM;.EXE;.BAT;.CMD;.VBS;.VBE;.JS;.JSE;.WSF;.WSH;.MSC	PROCESSOR_ARCHITECTURE=x86	PROCESSOR_ARCHITEW6432=AMD64	PROCESSOR_IDENTIFIER=Intel64 Family 6 Model 58 Stepping 9, GenuineIntel	PROCESSOR_LEVEL=6	PROCESSOR_REVISION=3a09	ProgramData=C:\ProgramData	ProgramFiles=C:\Program Files (x86)	ProgramFiles(x86)=C:\Program Files (x86)	ProgramW6432=C:\Program Files	PSModulePath=C:\Windows\system32\WindowsPowerShell\v1.0\Modules\	PUBLIC=C:\Users\Public	SESSIONNAME=Console	SystemDrive=C:	SystemRoot=C:\Windows	TEMP=C:\Users\Oleg\AppData\Local\Temp	TMP=C:\Users\Oleg\AppData\Local\Temp	UB_HOME=E:\Programs\UnityBase	USERDOMAIN=OLEG-PC	USERDOMAIN_ROAMINGPROFILE=OLEG-PC	USERNAME=Oleg	USERPROFILE=C:\Users\Oleg	windir=C:\WindowsTubLog 1.18.3488 FTS3 2018-03-20T18:03:3420180320 18033453  ! warn  WebSocket support are disabled because WSServer.host = '' in config
20180320 18033453  !  +    ubServer.TubServer(02B4E5E8).008863DB 
20180320 18033453  !  +    	Init app
20180320 18033453  ! srvr  		FTS is disabled
20180320 18033453  ! info  		Check blob store "avatars" folder "E:\Study\ubProject\CityPortal\avatars\": folder exists
20180320 18033453  ! info  		Check blob store "attach" folder "E:\Study\ubProject\CityPortal\docs\attach\": folder exists
20180320 18033453  !  -    	00.000.424
20180320 18033453  !  +    	Folder E:\Study\ubProject\CityPortal\node_modules\@unitybase\ub\ modified
20180320 18033453  !  +    		ubCommonClasses.TubThreadSafeCache(02B4CB30).removeStartsWith
20180320 18033453  !  -    		00.000.003
20180320 18033453  !  -    	00.000.007
20180320 18033453  !  +    	Folder E:\Study\ubProject\CityPortal\node_modules\@unitybase\uba\ modified
20180320 18033453  !  +    		ubCommonClasses.TubThreadSafeCache(02B4CB30).removeStartsWith
20180320 18033453  !  -    		00.000.000
20180320 18033453  !  -    	00.000.003
20180320 18033453  !  +    	Folder E:\Study\ubProject\CityPortal\node_modules\@unitybase\ubs\ modified
20180320 18033453  !  +    		ubCommonClasses.TubThreadSafeCache(02B4CB30).removeStartsWith
20180320 18033453  !  -    		00.000.000
20180320 18033453  !  -    	00.000.003
20180320 18033453  !  +    	Folder E:\Study\ubProject\CityPortal\node_modules\@unitybase\ubm\ modified
20180320 18033453  !  +    		ubCommonClasses.TubThreadSafeCache(02B4CB30).removeStartsWith
20180320 18033453  !  -    		00.000.000
20180320 18033453  !  -    	00.000.003
20180320 18033453  !  +    	Folder E:\Study\ubProject\CityPortal\_public_only_\ modified
20180320 18033453  !  +    		ubCommonClasses.TubThreadSafeCache(02B4CB30).removeStartsWith
20180320 18033453  !  -    		00.000.000
20180320 18033453  !  -    	00.000.003
20180320 18033453  !  +    	Folder E:\Study\ubProject\CityPortal\node_modules\@unitybase\adminui-reg\ modified
20180320 18033453  !  +    		ubCommonClasses.TubThreadSafeCache(02B4CB30).removeStartsWith
20180320 18033453  !  -    		00.000.000
20180320 18033453  !  -    	00.000.003
20180320 18033453  !  +    	Folder E:\Study\ubProject\CityPortal\models\requests\ modified
20180320 18033453  !  +    		ubCommonClasses.TubThreadSafeCache(02B4CB30).removeStartsWith
20180320 18033453  !  -    		00.000.000
20180320 18033453  !  -    	00.000.003
20180320 18033453  !  +    	ubApp.TubApp(02AB3EE0).init
20180320 18033453  ! srvr  		Mime converters are disabled
20180320 18033453  !  -    	00.000.001
20180320 18033453  ! srvr  	Enable zip compresison
20180320 18033453  ! srvr  	Send initialization request to http://localhost:888/init
20180320 18033453  "  +    InitializationRequest
20180320 18033453  "  +    	init
20180320 18033453  " srvr  		Start application intialization...
20180320 18033453  " info  		Loading domain...
20180320 18033453  " info  		Loading model "UB" from "E:\Study\ubProject\CityPortal\node_modules\@unitybase\ub\"
20180320 18033453  " info  		Loading model "UBA" from "E:\Study\ubProject\CityPortal\node_modules\@unitybase\uba\"
20180320 18033454  " info  		Loading model "UBS" from "E:\Study\ubProject\CityPortal\node_modules\@unitybase\ubs\"
20180320 18033454  " info  		Loading model "UBM" from "E:\Study\ubProject\CityPortal\node_modules\@unitybase\ubm\"
20180320 18033454  " info  		Loading model "adminui-reg" from "E:\Study\ubProject\CityPortal\node_modules\@unitybase\adminui-reg\"
20180320 18033454  " info  		Loading model "RequestList" from "E:\Study\ubProject\CityPortal\models\requests\"
20180320 18033454  "  +    		ubApp.TubDataStore(03FDA478).Init
20180320 18033454  "  +    			ubApp.TubApp(02AB3EE0).DBExecute
20180320 18033454  "  +    				ubApp.TubApp(02AB3EE0).TubApp.InternalDBExecute
20180320 18033454  "  +    					00856EC2 
20180320 18033454  "  -    					00.002.847
20180320 18033454  " SQL   					ubDBSQLite3ThreadSafe.TubSQLite3Statement(02B66D90) PRAGMA foreign_keys = ON
20180320 18033454  " SQL   					ubDBSQLite3ThreadSafe.TubSQLite3Statement(02B66730) SELECT A01.ID,A01.entity,A01.state,A01.attribute,A01.roleName,A01.actions  FROM uba_als A01  ORDER BY A01.entity ASC
20180320 18033454  "  -    				00.002.948
20180320 18033454  "  -    			00.002.978
20180320 18033454  " debug 			Query result for entity "uba_als" into data name "": row count=0
20180320 18033454  "  -    		00.002.999
20180320 18033454  " srvr  		The domain loaded successfully with 3 entities
20180320 18033454  " debug 		Create new JavaScript Engine for thread 4868
20180320 18033504  "  +    		008C234A 
20180320 18033504  "  +    			ubApp.TubDataStore(04B99740).Init
20180320 18033504  "  +    				ubApp.TubApp(02AB3EE0).DBExecute
20180320 18033504  "  +    					ubApp.TubApp(02AB3EE0).TubApp.InternalDBExecute
20180320 18033504  " SQL   						ubDBSQLite3ThreadSafe.TubSQLite3Statement(02B670F0) SELECT A01.ID,A01.name,A01.sessionTimeout,A01.allowedAppMethods  FROM uba_role A01 
20180320 18033504  "  -    					00.000.053
20180320 18033504  "  -    				00.000.115
20180320 18033504  " debug 				Query result for entity "uba_role" into data name "": row count=7
20180320 18033504  "  -    			00.000.129
20180320 18033504  "  +    			ubApp.TubDataStore(04B997B8).Init
20180320 18033504  "  +    				ubApp.TubApp(02AB3EE0).DBExecute
20180320 18033504  "  +    					ubApp.TubApp(02AB3EE0).TubApp.InternalDBExecute
20180320 18033504  " SQL   						ubDBSQLite3ThreadSafe.TubSQLite3Statement(02B67090) SELECT A01.ID,A01.entityMask,A01.methodMask,A01.ruleType,A01.ruleRole,A01.disabled,A01.code  FROM uba_els A01 
20180320 18033504  "  -    					00.000.035
20180320 18033504  "  -    				00.000.093
20180320 18033504  " debug 				Query result for entity "uba_els" into data name "": row count=21
20180320 18033504  "  -    			00.000.106
20180320 18033504  "  -    		00.001.199
20180320 18033504  " auth  		New session admin/4605671 created at 127.0.0.1/-360287938514255866 using Mozilla/5.0 (Windows; mORMot 1.18 TWinHTTP)
20180320 18033504  " auth  		New session anonymous/4605670 created at 127.0.0.1/-360287938514255866 using Mozilla/5.0 (Windows; mORMot 1.18 TWinHTTP)
20180320 18033504  "  +    		ubApp.TubDataStore(04B99808).Init
20180320 18033504  "  +    			ubApp.TubApp(02AB3EE0).DBExecute
20180320 18033504  "  +    				ubApp.TubApp(02AB3EE0).TubApp.InternalDBExecute
20180320 18033504  " debug 					P1: String(34)	UBA.passwordPolicy.maxDurationDays
20180320 18033504  " SQL   					ubDBSQLite3ThreadSafe.TubSQLite3Statement(02B671B0) select settingValue from ubs_settings where settingKey =?
20180320 18033504  "  -    				00.000.033
20180320 18033504  "  -    			00.000.071
20180320 18033504  " debug 			Query result for entity "ubs_settings" into data name "": row count=1
20180320 18033504  "  -    		00.000.081
20180320 18033504  "  +    		ubApp.TubDataStore(04B99808).Init
20180320 18033504  "  +    			ubApp.TubApp(02AB3EE0).DBExecute
20180320 18033504  "  +    				ubApp.TubApp(02AB3EE0).TubApp.InternalDBExecute
20180320 18033504  " debug 					P1: String(37)	UBA.passwordPolicy.maxInvalidAttempts
20180320 18033504  " SQL   					ubDBSQLite3ThreadSafe.TubSQLite3Statement(02B671B0) select settingValue from ubs_settings where settingKey =?
20180320 18033504  "  -    				00.000.008
20180320 18033504  "  -    			00.000.025
20180320 18033504  " debug 			Query result for entity "ubs_settings" into data name "": row count=1
20180320 18033504  "  -    		00.000.032
20180320 18033504  "  -    	00.205.948
20180320 18033504  "  -    00.205.958
20180320 18033504  ! srvr  	ubServer.TubServer(02B4E5E8) {"THttpApiServer(02A7A890)":{"Cloned":false,"RegisteredUrl":"http://+:888/","HTTPQueueLength":1000,"MaxBandwidth":-1,"MaxConnections":-1,"APIVersion":"HTTP API 2.0","ServerName":"UnityBase","ProcessName":""}} initialized
20180320 18033504  !  -    00.213.495
20180320 18033935  "  +    logout
20180320 18033935  " http  	127.0.0.1 -> POST logout
20180320 18033935  " http  	{}
20180320 18033935  " http  	<- 401
20180320 18033935  "  -    00.000.024
20180320 18033935  #  +    adm
20180320 18033935  # http  	127.0.0.1 -> GET adm
20180320 18033935  # debug 	Create new JavaScript Engine for thread 3256
20180320 18033947  # call  	endpoint adm
20180320 18033947  #  +    	ubApp.TubApp(02AB3EE0).008CA69A 
20180320 18033947  # debug 		FOLDER_CHECKSUM: calc folder checksum E:\Study\ubProject\CityPortal\node_modules\@unitybase\ub\public\
20180320 18033947  # debug 		FOLDER_CHECKSUM: put folder checksum 16b0a19c938f48c16b56a05da80f0dc2 to UB_STATIC.checkSum_E:\Study\ubProject\CityPortal\node_modules\@unitybase\ub\public\
20180320 18033947  #  -    	00.001.260
20180320 18033947  #  +    	ubApp.TubApp(02AB3EE0).008CA69A 
20180320 18033947  # debug 		FOLDER_CHECKSUM: calc folder checksum E:\Study\ubProject\CityPortal\node_modules\@unitybase\uba\public\
20180320 18033947  # debug 		FOLDER_CHECKSUM: put folder checksum 77650b6a42c37186bfb44af18a505e71 to UB_STATIC.checkSum_E:\Study\ubProject\CityPortal\node_modules\@unitybase\uba\public\
20180320 18033947  #  -    	00.001.615
20180320 18033947  #  +    	ubApp.TubApp(02AB3EE0).008CA69A 
20180320 18033947  # debug 		FOLDER_CHECKSUM: calc folder checksum E:\Study\ubProject\CityPortal\node_modules\@unitybase\ubs\public\
20180320 18033947  # debug 		FOLDER_CHECKSUM: put folder checksum 16f6cb04f3b2b6a19844744bc20cc653 to UB_STATIC.checkSum_E:\Study\ubProject\CityPortal\node_modules\@unitybase\ubs\public\
20180320 18033947  #  -    	00.003.407
20180320 18033947  #  +    	ubApp.TubApp(02AB3EE0).008CA69A 
20180320 18033947  # debug 		FOLDER_CHECKSUM: calc folder checksum E:\Study\ubProject\CityPortal\node_modules\@unitybase\ubm\public\
20180320 18033947  # debug 		FOLDER_CHECKSUM: put folder checksum 5d30adb331eaa71d9412558d2ace2271 to UB_STATIC.checkSum_E:\Study\ubProject\CityPortal\node_modules\@unitybase\ubm\public\
20180320 18033947  #  -    	00.001.278
20180320 18033947  #  +    	ubApp.TubApp(02AB3EE0).008CA69A 
20180320 18033947  # debug 		FOLDER_CHECKSUM: calc folder checksum E:\Study\ubProject\CityPortal\node_modules\@unitybase\ub-pub\
20180320 18033947  # debug 		FOLDER_CHECKSUM: put folder checksum d2c9cc77edf4ef98622e661cf62007ba to UB_STATIC.checkSum_E:\Study\ubProject\CityPortal\node_modules\@unitybase\ub-pub\
20180320 18033947  #  -    	00.001.756
20180320 18033947  #  +    	ubApp.TubApp(02AB3EE0).008CA69A 
20180320 18033947  # debug 		FOLDER_CHECKSUM: calc folder checksum E:\Study\ubProject\CityPortal\node_modules\@unitybase\adminui-pub\
20180320 18033952  # debug 		FOLDER_CHECKSUM: put folder checksum 3865914637ef7cd48187d30356b8b4b0 to UB_STATIC.checkSum_E:\Study\ubProject\CityPortal\node_modules\@unitybase\adminui-pub\
20180320 18033952  #  -    	00.079.523
20180320 18033952  #  +    	ubApp.TubApp(02AB3EE0).008CA69A 
20180320 18033952  # debug 		FOLDER_CHECKSUM: calc folder checksum E:\Study\ubProject\CityPortal\node_modules\@unitybase\adminui-reg\public\
20180320 18033952  # debug 		FOLDER_CHECKSUM: put folder checksum f1d3ff8443297732862df21dc4e57262 to UB_STATIC.checkSum_E:\Study\ubProject\CityPortal\node_modules\@unitybase\adminui-reg\public\
20180320 18033952  #  -    	00.000.025
20180320 18033952  #  +    	ubApp.TubApp(02AB3EE0).008CA69A 
20180320 18033952  # debug 		FOLDER_CHECKSUM: calc folder checksum E:\Study\ubProject\CityPortal\models\requests\public\
20180320 18033952  # debug 		FOLDER_CHECKSUM: put folder checksum f1d3ff8443297732862df21dc4e57262 to UB_STATIC.checkSum_E:\Study\ubProject\CityPortal\models\requests\public\
20180320 18033952  #  -    	00.000.023
20180320 18033953  # ERROR 	invalid path models/adminui-pub/themes/UBGrayTheme/UBGrayTheme-all.css 
20180320 18033953  #  +    	ubApp.TubApp(02AB3EE0).008CA40C 
20180320 18033953  # debug 		STATIC_SCECKSUM: Calc file checksum 
20180320 18033953  # debug 		STATIC_SCECKSUM: put file checksum d41d8cd98f00b204e9800998ecf8427e to UB_STATIC.checkSum_
20180320 18033953  #  -    	00.000.007
20180320 18033953  # ERROR 	invalid path models/adminui-pub/ub-css-all.css 
20180320 18033953  # ERROR 	invalid path models/adminui-pub/themes/UBGrayTheme/ub.css 
20180320 18033953  # ERROR 	invalid path clientRequire/systemjs/dist/system.js 
20180320 18033953  # ERROR 	invalid path models/adminui-pub/dist/ext-all.min.js 
20180320 18033953  # info  	Generate index.mustache from template E:\Study\ubProject\CityPortal\node_modules\@unitybase\adminui-pub\index.mustache 
20180320 18033953  # http  	127.0.0.1 <- 200
20180320 18033953  #  -    00.296.319
20180320 18033954  $  +    models/adminui-pub/themes/UBGrayTheme/UBGrayTheme-all.css?ver=d41d8cd98f00b204e9800998ecf8427e
20180320 18033954  %  +    models/adminui-pub/ub-css-all.css?ver=d41d8cd98f00b204e9800998ecf8427e
20180320 18033954  &  +    clientRequire/font-awesome/css/font-awesome.min.css
20180320 18033954  $ http  	127.0.0.1 -> GET models/adminui-pub/themes/UBGrayTheme/UBGrayTheme-all.css?ver=d41d8cd98f00b204e9800998ecf8427e
20180320 18033954  % http  	127.0.0.1 -> GET models/adminui-pub/ub-css-all.css?ver=d41d8cd98f00b204e9800998ecf8427e
20180320 18033954  $ debug 	Create new JavaScript Engine for thread 4420
20180320 18033954  & http  	127.0.0.1 -> GET clientRequire/font-awesome/css/font-awesome.min.css
20180320 18033954  '  +    models/adminui-pub/themes/UBGrayTheme/ub.css?ver=d41d8cd98f00b204e9800998ecf8427e
20180320 18033954  ' http  	127.0.0.1 -> GET models/adminui-pub/themes/UBGrayTheme/ub.css?ver=d41d8cd98f00b204e9800998ecf8427e
20180320 18033954  (  +    clientRequire/es6-promise/dist/es6-promise.auto.min.js
20180320 18033954  )  +    clientRequire/systemjs/dist/system.js?ver=d41d8cd98f00b204e9800998ecf8427e
20180320 18033954  ) http  	127.0.0.1 -> GET clientRequire/systemjs/dist/system.js?ver=d41d8cd98f00b204e9800998ecf8427e
20180320 18033954  ( http  	127.0.0.1 -> GET clientRequire/es6-promise/dist/es6-promise.auto.min.js
20180320 18033957  % debug 	Create new JavaScript Engine for thread 3380
20180320 18033960  & debug 	Create new JavaScript Engine for thread 3560
20180320 18034000  ' debug 	Create new JavaScript Engine for thread 3264
20180320 18034003  ) debug 	Create new JavaScript Engine for thread 4528
20180320 18034006  $ call  	endpoint models
20180320 18034007  ( debug 	Create new JavaScript Engine for thread 2264
20180320 18034010  $ http  	127.0.0.1 <- 200
20180320 18034010  $  -    00.293.805
20180320 18034010  % call  	endpoint models
20180320 18034010  *  +    models/adminui-pub/dist/ext-all.min.js?ver=d41d8cd98f00b204e9800998ecf8427e
20180320 18034010  * http  	127.0.0.1 -> GET models/adminui-pub/dist/ext-all.min.js?ver=d41d8cd98f00b204e9800998ecf8427e
20180320 18034012  * debug 	Create new JavaScript Engine for thread 2816
20180320 18034015  & call  	endpoint clientRequire
20180320 18034015  & info  	Call clientRequire 
20180320 18034015  % http  	127.0.0.1 <- 200
20180320 18034015  %  -    00.368.449
20180320 18034019  ' call  	endpoint models
20180320 18034019  & http  	127.0.0.1 <- 200
20180320 18034019  &  -    00.439.736
20180320 18034023  ' http  	127.0.0.1 <- 200
20180320 18034023  '  -    00.491.056
20180320 18034023  ) call  	endpoint clientRequire
20180320 18034023  ) info  	Call clientRequire 
20180320 18034023  +  +    clientRequire/font-awesome/fonts/fontawesome-webfont.woff2?v=4.7.0
20180320 18034023  + http  	127.0.0.1 -> GET clientRequire/font-awesome/fonts/fontawesome-webfont.woff2?v=4.7.0
20180320 18034023  + debug 	Create new JavaScript Engine for thread 3580
20180320 18034026  ( call  	endpoint clientRequire
20180320 18034026  ( info  	Call clientRequire 
20180320 18034026  ) http  	127.0.0.1 <- 200
20180320 18034026  )  -    00.552.635
20180320 18034028  * call  	endpoint models
20180320 18034028  ( http  	127.0.0.1 <- 200
20180320 18034028  (  -    00.588.677
20180320 18034031  * http  	127.0.0.1 <- 200
20180320 18034031  *  -    00.323.070
20180320 18034037  + call  	endpoint clientRequire
20180320 18034037  + info  	Call clientRequire 
20180320 18034040  + http  	127.0.0.1 <- 200
20180320 18034040  +  -    00.264.512
20180320 18034055  ,  +    clientRequire/@unitybase/adminui-pub/package.json
20180320 18034055  , http  	127.0.0.1 -> GET clientRequire/@unitybase/adminui-pub/package.json
20180320 18034055  , debug 	Create new JavaScript Engine for thread 4184
20180320 18034056  -  +    models/UB/img/UBLogo32.png
20180320 18034056  - http  	127.0.0.1 -> GET models/UB/img/UBLogo32.png
20180320 18034058  - debug 	Create new JavaScript Engine for thread 2008
20180320 18034105  , call  	endpoint clientRequire
20180320 18034105  , info  	Call clientRequire 
20180320 18034107  , http  	127.0.0.1 <- 200
20180320 18034107  ,  -    00.238.090
20180320 18034107  - call  	endpoint models
20180320 18034107  .  +    clientRequire/@unitybase/adminui-pub/dist/adminui.app.min.js
20180320 18034107  . http  	127.0.0.1 -> GET clientRequire/@unitybase/adminui-pub/dist/adminui.app.min.js
20180320 18034107  . debug 	Create new JavaScript Engine for thread 2444
20180320 18034109  - http  	127.0.0.1 <- 200
20180320 18034109  -  -    00.257.841
20180320 18034109  /  +    models/UB/img/UBLogo48.png
20180320 18034109  / http  	127.0.0.1 -> GET models/UB/img/UBLogo48.png
20180320 18034109  / debug 	Create new JavaScript Engine for thread 1364
20180320 18034119  . call  	endpoint clientRequire
20180320 18034119  . info  	Call clientRequire 
20180320 18034121  / call  	endpoint models
20180320 18034121  . http  	127.0.0.1 <- 200
20180320 18034121  .  -    00.225.312
20180320 18034124  / http  	127.0.0.1 <- 200
20180320 18034124  /  -    00.224.441
20180320 18034134  0  +    getAppInfo
20180320 18034134  0 http  	127.0.0.1 -> GET getAppInfo
20180320 18034134  0 debug 	Create new JavaScript Engine for thread 4376
20180320 18034134  1  +    clientRequire/@unitybase/adminui-pub/themes/UBGrayTheme/UBGrayTheme.js
20180320 18034134  1 http  	127.0.0.1 -> GET clientRequire/@unitybase/adminui-pub/themes/UBGrayTheme/UBGrayTheme.js
20180320 18034134  "  +    models/UB/img/UBLogo128.png
20180320 18034134  " http  	127.0.0.1 -> GET models/UB/img/UBLogo128.png
20180320 18034137  1 debug 	Create new JavaScript Engine for thread 1652
20180320 18034140  " call  	endpoint models
20180320 18034142  " http  	127.0.0.1 <- 200
20180320 18034142  "  -    00.124.275
20180320 18034143  #  +    models/UB/img/UBLogo16.ico
20180320 18034143  # http  	127.0.0.1 -> GET models/UB/img/UBLogo16.ico
20180320 18034143  # call  	endpoint models
20180320 18034146  # http  	127.0.0.1 <- 200
20180320 18034146  #  -    00.047.836
20180320 18034147  0 call  	endpoint getAppInfo
20180320 18034147  0 http  	127.0.0.1 <- 304
20180320 18034147  0  -    00.208.765
20180320 18034147  $  +    models/adminui-pub/locale/lang-en.js?ubver=3865914637ef7cd48187d30356b8b4b0
20180320 18034147  $ http  	127.0.0.1 -> GET models/adminui-pub/locale/lang-en.js?ubver=3865914637ef7cd48187d30356b8b4b0
20180320 18034147  $ call  	endpoint models
20180320 18034147  $ http  	127.0.0.1 <- 200
20180320 18034147  $  -    00.000.411
20180320 18034149  %  +    models/adminui-pub/themes/UBGrayTheme/images/form/exclamation.png
20180320 18034149  % http  	127.0.0.1 -> GET models/adminui-pub/themes/UBGrayTheme/images/form/exclamation.png
20180320 18034149  % call  	endpoint models
20180320 18034149  % http  	127.0.0.1 <- 200
20180320 18034149  %  -    00.000.518
20180320 18034149  1 call  	endpoint clientRequire
20180320 18034149  1 info  	Call clientRequire 
20180320 18034152  1 http  	127.0.0.1 <- 200
20180320 18034152  1  -    00.279.691
20180320 18034237  &  +    auth?AUTHTYPE=UB&userName=admin
20180320 18034237  & http  	127.0.0.1 -> POST auth?AUTHTYPE=UB&userName=admin
20180320 18034237  & call  	endpoint auth
20180320 18034237  & http  	127.0.0.1 <- 200
20180320 18034237  &  -    00.002.336
20180320 18034238  '  +    auth?AUTHTYPE=UB&clientNonce=ee35efd781e6b530a40fd712ecb5a95d7a1651a42f02ec833d7416d10ebac664&password=2aa5aa52c4d52a966758235e18bf6838dfe4c11baf7809e52ec1ea5ced77264f&userName=admin
20180320 18034238  ' http  	127.0.0.1 -> POST auth?AUTHTYPE=UB&clientNonce=ee35efd781e6b530a40fd712ecb5a95d7a1651a42f02ec833d7416d10ebac664&password=2aa5aa52c4d52a966758235e18bf6838dfe4c11baf7809e52ec1ea5ced77264f&userName=admin
20180320 18034238  ' call  	endpoint auth
20180320 18034238  '  +    	ubApp.TubDataStore(04B9CBC0).Init
20180320 18034238  '  +    		ubApp.TubApp(02AB3EE0).DBExecute
20180320 18034238  '  +    			ubApp.TubApp(02AB3EE0).TubApp.InternalDBExecute
20180320 18034238  '  +    				00856EC2 
20180320 18034238  '  -    				00.001.954
20180320 18034238  ' SQL   				ubDBSQLite3ThreadSafe.TubSQLite3Statement(02B6A7B0) PRAGMA foreign_keys = ON
20180320 18034238  ' debug 				P1: String(5)	admin
20180320 18034238  ' SQL   				ubDBSQLite3ThreadSafe.TubSQLite3Statement(02B6A1B0) select id, name, uPasswordHashHexa, uData, isPending, trustedIP from UBA_USER where name=? and disabled=0
20180320 18034238  '  -    			00.002.009
20180320 18034238  '  -    		00.002.054
20180320 18034238  ' debug 		Query result for entity "uba_user" into data name "": row count=1
20180320 18034238  '  -    	00.002.075
20180320 18034238  '  +    	ubApp.TubDataStore(04B9CBC0).Init
20180320 18034238  '  +    		ubApp.TubApp(02AB3EE0).DBExecute
20180320 18034238  '  +    			ubApp.TubApp(02AB3EE0).TubApp.InternalDBExecute
20180320 18034238  ' debug 				P1: Int64		10
20180320 18034238  ' SQL   				ubDBSQLite3ThreadSafe.TubSQLite3Statement(02B6A7B0) SELECT lastPasswordChangeDate FROM uba_user WHERE id=?
20180320 18034238  '  -    			00.000.022
20180320 18034238  '  -    		00.000.050
20180320 18034238  ' debug 		Query result for entity "uba_user" into data name "__expireDate": row count=1
20180320 18034238  '  -    	00.000.059
20180320 18034238  '  +    	ubApp.TubDataStore(071CDD60).Init
20180320 18034238  '  +    		ubApp.TubApp(02AB3EE0).DBExecute
20180320 18034238  '  +    			ubApp.TubApp(02AB3EE0).TubApp.InternalDBExecute
20180320 18034238  ' debug 				P1: Int64		10
20180320 18034238  ' SQL   				ubDBSQLite3ThreadSafe.TubSQLite3Statement(02B6A870) SELECT A01.roleID,A02.name,A02.description  FROM uba_userrole A01  INNER JOIN uba_role A02 ON A02.ID=A01.roleID  WHERE A01.userID=?
20180320 18034238  '  -    			00.000.047
20180320 18034238  '  -    		00.000.088
20180320 18034238  ' debug 		Query result for entity "uba_userrole" into data name "": row count=1
20180320 18034238  '  -    	00.000.097
20180320 18034238  ' auth  	New session admin/4605665 created at 127.0.0.1/-504403139475013598 using Mozilla/5.0 (Windows NT 6.3; Win64; x64) AppleWebKit/537.36 (KHTML, like Gecko) Chrome/64.0.3282.186 Safari/537.36 OPR/51.0.2830.55
20180320 18034238  '  +    	ubMixinClasses.TubStorageMixin(02B042C0).MixinMethod
20180320 18034238  ' debug 		uba_user.select(TubStorageMixin)
20180320 18034238  '  +    		ubApp.TubDataStore(071CDD60).Init
20180320 18034238  '  +    			ubApp.TubApp(02AB3EE0).DBExecute
20180320 18034238  '  +    				ubApp.TubApp(02AB3EE0).TubApp.InternalDBExecute
20180320 18034238  ' debug 					P1: Int64		10
20180320 18034238  ' SQL   					ubDBSQLite3ThreadSafe.TubSQLite3Statement(02B6A990) SELECT A01.name  FROM uba_user A01  WHERE A01.ID=?
20180320 18034238  '  -    				00.000.041
20180320 18034238  '  -    			00.000.081
20180320 18034238  ' debug 			Query result for entity "uba_user" into data name "": row count=1
20180320 18034238  '  -    		00.000.090
20180320 18034238  '  -    	00.000.160
20180320 18034238  '  +    	ubMixinClasses.TubStorageMixin(02B042C0).MixinMethod
20180320 18034238  ' debug 		uba_advSecurity.select(TubStorageMixin)
20180320 18034238  '  +    		ubApp.TubDataStore(071CDD60).Init
20180320 18034238  '  +    			ubApp.TubApp(02AB3EE0).DBExecute
20180320 18034238  '  +    				ubApp.TubApp(02AB3EE0).TubApp.InternalDBExecute
20180320 18034238  ' debug 					P1: Int64		10
20180320 18034238  ' SQL   					ubDBSQLite3ThreadSafe.TubSQLite3Statement(02B6A9F0) SELECT A01.ID,A01.allowedIP,A01.refreshIP,A01.fp,A01.refreshFp,A01.keyMediaName,A01.refreshKeyMedia,A01.mi_modifyDate  FROM uba_advSecurity A01  WHERE A01.userID=?
20180320 18034238  '  -    				00.000.045
20180320 18034238  '  -    			00.000.085
20180320 18034238  ' debug 			Query result for entity "uba_advSecurity" into data name "": row count=0
20180320 18034238  '  -    		00.000.120
20180320 18034238  '  -    	00.000.218
20180320 18034238  '  +    	ubMixinClasses.TubStorageMixin(02B042C0).MixinMethod
20180320 18034238  ' debug 		uba_userrole.select(TubStorageMixin)
20180320 18034238  '  +    		ubApp.TubDataStore(071CDD60).Init
20180320 18034238  '  +    			ubApp.TubApp(02AB3EE0).DBExecute
20180320 18034238  '  +    				ubApp.TubApp(02AB3EE0).TubApp.InternalDBExecute
20180320 18034238  ' debug 					P1: Int64		10
20180320 18034238  ' SQL   					ubDBSQLite3ThreadSafe.TubSQLite3Statement(02B6AA50) SELECT A01.ID,A02.name,A01.roleID  FROM uba_userrole A01  INNER JOIN uba_role A02 ON A02.ID=A01.roleID  WHERE A01.userID=?
20180320 18034238  '  -    				00.000.053
20180320 18034238  '  -    			00.000.100
20180320 18034238  ' debug 			Query result for entity "uba_userrole" into data name "": row count=1
20180320 18034238  '  -    		00.000.108
20180320 18034238  '  -    	00.000.183
20180320 18034238  '  +    	ubMixinClasses.TubStorageMixin(02B042C0).MixinMethod
20180320 18034238  ' debug 		uba_audit.beforeinsert(TubStorageMixin)
20180320 18034238  '  -    	00.000.010
20180320 18034238  '  +    	ubMixinClasses.TubStorageMixin(02B042C0).MixinMethod
20180320 18034238  ' debug 		uba_audit.insert(TubStorageMixin)
20180320 18034238  '  +    		ubApp.TubDataStore(07226798).TubDataStore.ExecuteInsertFromList
20180320 18034238  '  +    			ubApp.TubDataStore(07226798).TubDataStore.ExecuteInsertFromSQL
20180320 18034238  '  +    				ubApp.TubApp(02AB3EE0).DBExecute
20180320 18034238  '  +    					ubApp.TubApp(02AB3EE0).TubApp.InternalDBExecute
20180320 18034238  ' debug 						P1: String(8)	uba_user
20180320 18034238  ' debug 						P2: Int64		10
20180320 18034238  ' debug 						P3: String(5)	LOGIN
20180320 18034238  ' debug 						P4: Int64		10
20180320 18034238  ' debug 						P5: DateTime	2018-03-20T18:03:42
20180320 18034238  ' debug 						P6: String(9)	127.0.0.1
20180320 18034238  ' debug 						P7: String(5)	admin
20180320 18034238  ' debug 						P8: Int64		335498323230721
20180320 18034238  ' debug 						P9: String(407..)	Connection: keep-alive  Content-Length: 0  Accept: application/json, text/plain, */*  Accept-Encodin...
20180320 18034238  ' DB    						StartTransaction for connection "main"
20180320 18034238  ' SQL   						ubDBSQLite3ThreadSafe.TubSQLite3Statement(02B6AB10) INSERT INTO uba_audit (entity,entityinfo_id,actionType,actionUser,actionTime,remoteIP,targetUser,ID,fromValue) VALUES (?,?,?,?,?,?,?,?,?)
20180320 18034238  '  -    					00.000.101
20180320 18034238  '  -    				00.000.104
20180320 18034238  '  -    			00.000.194
20180320 18034238  '  -    		00.000.207
20180320 18034238  '  -    	00.000.211
20180320 18034238  '  +    	ubMixinClasses.TubStorageMixin(02B042C0).MixinMethod
20180320 18034238  ' debug 		uba_audit.afterinsert(TubStorageMixin)
20180320 18034238  '  -    	00.000.004
20180320 18034238  ' DB    	Commit connection "main"
20180320 18034238  ' http  	127.0.0.1 <- 200
20180320 18034238  '  -    00.007.821
20180320 18034239  )  +    getDomainInfo?userName=admin&v=4
20180320 18034239  ) http  	127.0.0.1 -> GET getDomainInfo?userName=admin&v=4
20180320 18034239  ) auth  	admin/4605665
20180320 18034239  ) call  	endpoint getDomainInfo
20180320 18034239  ) http  	127.0.0.1 <- 304
20180320 18034239  )  -    00.002.111
20180320 18034240  *  +    models/UBA/locale/lang-en.js?ubver=77650b6a42c37186bfb44af18a505e71
20180320 18034240  (  +    models/UB/locale/lang-en.js?ubver=16b0a19c938f48c16b56a05da80f0dc2
20180320 18034240  * http  	127.0.0.1 -> GET models/UBA/locale/lang-en.js?ubver=77650b6a42c37186bfb44af18a505e71
20180320 18034240  ( http  	127.0.0.1 -> GET models/UB/locale/lang-en.js?ubver=16b0a19c938f48c16b56a05da80f0dc2
20180320 18034240  +  +    models/UBS/locale/lang-en.js?ubver=16f6cb04f3b2b6a19844744bc20cc653
20180320 18034240  + http  	127.0.0.1 -> GET models/UBS/locale/lang-en.js?ubver=16f6cb04f3b2b6a19844744bc20cc653
20180320 18034240  ,  +    models/UBM/locale/lang-en.js?ubver=5d30adb331eaa71d9412558d2ace2271
20180320 18034240  , http  	127.0.0.1 -> GET models/UBM/locale/lang-en.js?ubver=5d30adb331eaa71d9412558d2ace2271
20180320 18034240  * call  	endpoint models
20180320 18034240  ( call  	endpoint models
20180320 18034240  , call  	endpoint models
20180320 18034240  + call  	endpoint models
20180320 18034240  * http  	127.0.0.1 <- 200
20180320 18034240  *  -    00.000.724
20180320 18034240  + http  	127.0.0.1 <- 200
20180320 18034240  +  -    00.001.005
20180320 18034240  , http  	127.0.0.1 <- 200
20180320 18034240  ,  -    00.000.996
20180320 18034240  ( http  	127.0.0.1 <- 200
20180320 18034240  (  -    00.003.356
20180320 18034241  -  +    clientRequire/@unitybase/ubs/package.json
20180320 18034241  - http  	127.0.0.1 -> GET clientRequire/@unitybase/ubs/package.json
20180320 18034241  - call  	endpoint clientRequire
20180320 18034241  - info  	Call clientRequire 
20180320 18034241  - http  	127.0.0.1 <- 200
20180320 18034241  -  -    00.001.346
20180320 18034241  .  +    clientRequire/@unitybase/ubs/public/initModel.js
20180320 18034241  . http  	127.0.0.1 -> GET clientRequire/@unitybase/ubs/public/initModel.js
20180320 18034241  . call  	endpoint clientRequire
20180320 18034241  . info  	Call clientRequire 
20180320 18034241  . http  	127.0.0.1 <- 200
20180320 18034241  .  -    00.000.748
20180320 18034241  /  +    clientRequire/@unitybase/ubs/public/dist/ubs.main.min.js?ubver=2018-03-20T20:03:34
20180320 18034241  / http  	127.0.0.1 -> GET clientRequire/@unitybase/ubs/public/dist/ubs.main.min.js?ubver=2018-03-20T20:03:34
20180320 18034241  / call  	endpoint clientRequire
20180320 18034241  "  +    clientRequire/@unitybase/ubm/package.json
20180320 18034241  " http  	127.0.0.1 -> GET clientRequire/@unitybase/ubm/package.json
20180320 18034241  " call  	endpoint clientRequire
20180320 18034241  " info  	Call clientRequire 
20180320 18034241  / info  	Call clientRequire 
20180320 18034241  " http  	127.0.0.1 <- 200
20180320 18034241  "  -    00.001.366
20180320 18034241  / http  	127.0.0.1 <- 200
20180320 18034241  /  -    00.001.642
20180320 18034242  #  +    clientRequire/@unitybase/ubm/public/initModel.js
20180320 18034242  # http  	127.0.0.1 -> GET clientRequire/@unitybase/ubm/public/initModel.js
20180320 18034242  # call  	endpoint clientRequire
20180320 18034242  # info  	Call clientRequire 
20180320 18034242  # http  	127.0.0.1 <- 200
20180320 18034242  #  -    00.001.103
20180320 18034244  0  +    ubql
20180320 18034244  0 http  	127.0.0.1 -> POST ubql
20180320 18034244  0 http  	[{"entity":"ubs_settings","method":"select","fieldList":["ID","settingKey","name","description","type","settingValue","defaultValue"],"version":"1519981756"},{"entity":"ubm_desktop","method":"select","fieldList":["ID","caption","code","url","isDefault","mi_owner","mi_createDate","mi_createUser","mi_modifyDate","mi_modifyUser","mi_deleteDate","mi_deleteUser"],"version":"-1"},{"entity":"ubm_form","method":"select","fieldList":["ID","code","description","caption","formType","formDef","formCode","model","entity","isDefault","mi_owner","mi_createDate","mi_createUser","mi_modifyDate","mi_modifyUser"],"version":2613330792},{"entity":"ubm_enum","method":"select","fieldList":["ID","eGroup","code","shortName","name","sortOrder","mi_owner","mi_createDate","mi_createUser","mi_modifyDate","mi_modifyUser","mi_deleteDate","mi_deleteUser"],"version":"1519981756"}]
20180320 18034244  0 auth  	admin/4605665
20180320 18034244  0 call  	endpoint ubql
20180320 18034244  0  +    	ubMixinClasses.TubStorageMixin(02B042C0).MixinMethod
20180320 18034244  0 debug 		ubs_settings.select(TubStorageMixin)
20180320 18034244  0  +    		ubApp.TubDataStore(071CE210).Init
20180320 18034244  0  +    			ubApp.TubApp(02AB3EE0).DBExecute
20180320 18034244  0  +    				ubApp.TubApp(02AB3EE0).TubApp.InternalDBExecute
20180320 18034244  0  +    					00856EC2 
20180320 18034244  0  -    					00.001.893
20180320 18034244  0 SQL   					ubDBSQLite3ThreadSafe.TubSQLite3Statement(02B6B230) PRAGMA foreign_keys = ON
20180320 18034244  0 SQL   					ubDBSQLite3ThreadSafe.TubSQLite3Statement(02B6A8D0) SELECT ( (SELECT COALESCE(strftime('%s',  MAX(mi_modifyDate)),1) FROM ubs_settings) ) AS dataVersion
20180320 18034244  0  -    				00.002.000
20180320 18034244  0  -    			00.002.042
20180320 18034244  0 debug 			Query result for entity "ubs_settings" into data name "": row count=1
20180320 18034244  0  -    		00.002.051
20180320 18034244  0  -    	00.002.150
20180320 18034244  0  +    	ubMixinClasses.TubRLSMixin(02B04E20).MixinMethod
20180320 18034244  0 debug 		ubm_desktop.select(TubRLSMixin)
20180320 18034244  0 debug 		Prepare RLS expression for ubm_desktop
20180320 18034244  0  +    		ubApp.TubDataStore(071CE0A8).Init
20180320 18034244  0  +    			ubApp.TubApp(02AB3EE0).DBExecute
20180320 18034244  0  +    				ubApp.TubApp(02AB3EE0).TubApp.InternalDBExecute
20180320 18034244  0 SQL   					ubDBSQLite3ThreadSafe.TubSQLite3Statement(02B67570) select ID, name FROM uba_role
20180320 18034244  0  -    				00.000.024
20180320 18034244  0  -    			00.000.057
20180320 18034244  0 debug 			Query result for entity "uba_role" into data name "": row count=7
20180320 18034244  0  -    		00.000.064
20180320 18034244  0  -    	00.001.094
20180320 18034244  0  +    	ubMixinClasses.TubStorageMixin(02B042C0).MixinMethod
20180320 18034244  0 debug 		ubm_desktop.select(TubStorageMixin)
20180320 18034244  0  +    		ubApp.TubDataStore(071CC690).Init
20180320 18034244  0  +    			ubApp.TubApp(02AB3EE0).DBExecute
20180320 18034244  0  +    				ubApp.TubApp(02AB3EE0).TubApp.InternalDBExecute
20180320 18034244  0 debug 					P1: Int64		10
20180320 18034244  0 debug 					P2: Int64		10
20180320 18034244  0 debug 					P3: DateTime	9999-12-31T00:00:00
20180320 18034244  0 SQL   					ubDBSQLite3ThreadSafe.TubSQLite3Statement(02B6B230) SELECT A01.ID,A01.caption,A01.code,A01.url,A01.isDefault,A01.mi_owner,A01.mi_createDate,A01.mi_createUser,A01.mi_modifyDate,A01.mi_modifyUser,A01.mi_deleteDate,A01.mi_deleteUser  FROM ubm_desktop A01  WHERE (( A01.mi_owner = ? ) OR (1=1) OR exists (select 1 from ubm_desktop_adm admsubtable where admsubtable.instanceID = A01.ID and admsubtable.admSubjID in (select ur.RoleID from uba_userrole ur where ur.UserID = ? union select 10))) AND A01.mi_deleteDate=?
20180320 18034244  0  -    				00.000.119
20180320 18034244  0  -    			00.000.159
20180320 18034244  0 debug 			Query result for entity "ubm_desktop" into data name "": row count=2
20180320 18034244  0  -    		00.000.173
20180320 18034244  0  -    	00.000.331
20180320 18034248  0  +    	ubMixinClasses.TubStorageMixin(02B042C0).MixinMethod
20180320 18034248  0 debug 		ubm_enum.select(TubStorageMixin)
20180320 18034248  0  +    		ubApp.TubDataStore(071CFE30).Init
20180320 18034248  0  +    			ubApp.TubApp(02AB3EE0).DBExecute
20180320 18034248  0  +    				ubApp.TubApp(02AB3EE0).TubApp.InternalDBExecute
20180320 18034248  0 SQL   					ubDBSQLite3ThreadSafe.TubSQLite3Statement(02B6B2F0) SELECT ( (SELECT COALESCE(strftime('%s',  MAX(mi_modifyDate)),1) FROM ubm_enum) ) AS dataVersion
20180320 18034248  0  -    				00.000.071
20180320 18034248  0  -    			00.000.140
20180320 18034248  0 debug 			Query result for entity "ubm_enum" into data name "": row count=1
20180320 18034248  0  -    		00.000.151
20180320 18034248  0  -    	00.000.298
20180320 18034248  0 http  	127.0.0.1 <- 200
20180320 18034248  0  -    00.064.599
20180320 18034253  $  +    ubql
20180320 18034253  $ http  	127.0.0.1 -> POST ubql
20180320 18034253  $ http  	[{"entity":"ubm_navshortcut","method":"select","fieldList":["ID","desktopID","parentID","code","isFolder","caption","inWindow","isCollapsed","displayOrder","iconCls","mi_modifyDate"],"orderList":{"0":{"expression":"desktopID","order":"asc"},"1":{"expression":"parentID","order":"asc"},"2":{"expression":"displayOrder","order":"asc"},"3":{"expression":"caption","order":"asc"}}}]
20180320 18034253  $ auth  	admin/4605665
20180320 18034253  $ call  	endpoint ubql
20180320 18034253  $  +    	ubMixinClasses.TubRLSMixin(02B04E20).MixinMethod
20180320 18034253  $ debug 		ubm_navshortcut.select(TubRLSMixin)
20180320 18034253  $ debug 		Prepare RLS expression for ubm_navshortcut
20180320 18034253  $  +    		ubApp.TubDataStore(071CE058).Init
20180320 18034253  $  +    			ubApp.TubApp(02AB3EE0).DBExecute
20180320 18034253  $  +    				ubApp.TubApp(02AB3EE0).TubApp.InternalDBExecute
20180320 18034253  $  +    					00856EC2 
20180320 18034253  $  -    					00.001.889
20180320 18034253  $ SQL   					ubDBSQLite3ThreadSafe.TubSQLite3Statement(02B6B8F0) PRAGMA foreign_keys = ON
20180320 18034253  $ SQL   					ubDBSQLite3ThreadSafe.TubSQLite3Statement(02B6A090) select ID, name FROM uba_role
20180320 18034253  $  -    				00.001.924
20180320 18034253  $  -    			00.001.954
20180320 18034253  $ debug 			Query result for entity "uba_role" into data name "": row count=7
20180320 18034253  $  -    		00.001.965
20180320 18034253  $  -    	00.002.942
20180320 18034253  $  +    	ubMixinClasses.TubStorageMixin(02B042C0).MixinMethod
20180320 18034253  $ debug 		ubm_navshortcut.select(TubStorageMixin)
20180320 18034253  $  +    		ubApp.TubDataStore(071CE260).Init
20180320 18034253  $  +    			ubApp.TubApp(02AB3EE0).DBExecute
20180320 18034253  $  +    				ubApp.TubApp(02AB3EE0).TubApp.InternalDBExecute
20180320 18034253  $ debug 					P1: Int64		10
20180320 18034253  $ debug 					P2: Int64		10
20180320 18034253  $ debug 					P3: DateTime	9999-12-31T00:00:00
20180320 18034253  $ SQL   					ubDBSQLite3ThreadSafe.TubSQLite3Statement(02B6B9B0) SELECT A01.ID,A01.desktopID,A01.parentID,A01.code,A01.isFolder,A01.caption,A01.inWindow,A01.isCollapsed,A01.displayOrder,A01.iconCls,A01.mi_modifyDate  FROM ubm_navshortcut A01  WHERE (( A01.mi_owner = ? ) OR               (1=1) OR                             exists (select 1 from ubm_navshortcut_adm admsubtable where admsubtable.instanceID = A01.ID and admsubtable.admSubjID in (select ur.RoleID from uba_userrole ur where ur.UserID = ? union select 10))) AND A01.mi_deleteDate=? ORDER BY 2 ASC,3 ASC,9 ASC,6 ... (truncated) length=515
20180320 18034253  $  -    				00.000.122
20180320 18034253  $  -    			00.000.309
20180320 18034253  $ debug 			Query result for entity "ubm_navshortcut" into data name "": row count=33
20180320 18034253  $  -    		00.000.341
20180320 18034253  $  -    	00.000.519
20180320 18034253  $ http  	127.0.0.1 <- 200
20180320 18034253  $  -    00.003.917
20180320 18034258  %  +    models/adminui-pub/themes/UBGrayTheme/images/toolbar/more.png
20180320 18034258  % http  	127.0.0.1 -> GET models/adminui-pub/themes/UBGrayTheme/images/toolbar/more.png
20180320 18034258  % call  	endpoint models
20180320 18034258  1  +    models/adminui-pub/themes/UBGrayTheme/images/grid/hd-pop.png
20180320 18034258  1 http  	127.0.0.1 -> GET models/adminui-pub/themes/UBGrayTheme/images/grid/hd-pop.png
20180320 18034258  1 call  	endpoint models
20180320 18034258  % http  	127.0.0.1 <- 200
20180320 18034258  %  -    00.000.638
20180320 18034258  &  +    models/adminui-pub/themes/UBGrayTheme/images/button/default-toolbar-small-arrow.png
20180320 18034258  & http  	127.0.0.1 -> GET models/adminui-pub/themes/UBGrayTheme/images/button/default-toolbar-small-arrow.png
20180320 18034258  & call  	endpoint models
20180320 18034258  1 http  	127.0.0.1 <- 200
20180320 18034258  1  -    00.001.001
20180320 18034258  & http  	127.0.0.1 <- 200
20180320 18034258  &  -    00.000.931
20180320 18034460  ,  +    models/adminui-pub/themes/UBGrayTheme/images/menu/scroll-bottom.png
20180320 18034460  '  +    models/adminui-pub/themes/UBGrayTheme/images/menu/scroll-top.png
20180320 18034460  )  +    models/adminui-pub/themes/UBGrayTheme/images/menu/menu-parent.png
20180320 18034460  , http  	127.0.0.1 -> GET models/adminui-pub/themes/UBGrayTheme/images/menu/scroll-bottom.png
20180320 18034460  ' http  	127.0.0.1 -> GET models/adminui-pub/themes/UBGrayTheme/images/menu/scroll-top.png
20180320 18034460  ) http  	127.0.0.1 -> GET models/adminui-pub/themes/UBGrayTheme/images/menu/menu-parent.png
20180320 18034460  ' call  	endpoint models
20180320 18034460  , call  	endpoint models
20180320 18034460  ) call  	endpoint models
20180320 18034460  ' http  	127.0.0.1 <- 200
20180320 18034460  '  -    00.000.641
20180320 18034460  , http  	127.0.0.1 <- 200
20180320 18034460  ,  -    00.000.765
20180320 18034460  ) http  	127.0.0.1 <- 200
20180320 18034460  )  -    00.000.872
20180320 18034819  *  +    ubql
20180320 18034819  * http  	127.0.0.1 -> POST ubql
20180320 18034819  * http  	[{"entity":"ubm_navshortcut","method":"select","fieldList":["ID","cmdCode"],"whereList":{"c1":{"expression":"[ID]","condition":"equal","values":{"c1":335295255347201}}}}]
20180320 18034819  * auth  	admin/4605665
20180320 18034819  * call  	endpoint ubql
20180320 18034819  *  +    	ubMixinClasses.TubRLSMixin(02B04E20).MixinMethod
20180320 18034819  * debug 		ubm_navshortcut.select(TubRLSMixin)
20180320 18034819  * debug 		Prepare RLS expression for ubm_navshortcut
20180320 18034819  *  +    		ubApp.TubDataStore(071D1690).Init
20180320 18034819  *  +    			ubApp.TubApp(02AB3EE0).DBExecute
20180320 18034819  *  +    				ubApp.TubApp(02AB3EE0).TubApp.InternalDBExecute
20180320 18034819  *  +    					00856EC2 
20180320 18034819  *  -    					00.002.066
20180320 18034819  * SQL   					ubDBSQLite3ThreadSafe.TubSQLite3Statement(17279C70) PRAGMA foreign_keys = ON
20180320 18034819  * SQL   					ubDBSQLite3ThreadSafe.TubSQLite3Statement(02B6B8F0) select ID, name FROM uba_role
20180320 18034819  *  -    				00.002.107
20180320 18034819  *  -    			00.002.141
20180320 18034819  * debug 			Query result for entity "uba_role" into data name "": row count=7
20180320 18034819  *  -    		00.002.156
20180320 18034819  *  -    	00.003.232
20180320 18034819  *  +    	ubMixinClasses.TubStorageMixin(02B042C0).MixinMethod
20180320 18034819  * debug 		ubm_navshortcut.select(TubStorageMixin)
20180320 18034819  *  +    		ubApp.TubDataStore(071CE210).Init
20180320 18034819  *  +    			ubApp.TubApp(02AB3EE0).DBExecute
20180320 18034819  *  +    				ubApp.TubApp(02AB3EE0).TubApp.InternalDBExecute
20180320 18034819  * debug 					P1: Int64		335295255347201
20180320 18034819  * debug 					P2: Int64		10
20180320 18034819  * debug 					P3: Int64		10
20180320 18034819  * debug 					P4: DateTime	9999-12-31T00:00:00
20180320 18034819  * SQL   					ubDBSQLite3ThreadSafe.TubSQLite3Statement(17279D30) SELECT A01.ID,A01.cmdCode  FROM ubm_navshortcut A01  WHERE A01.ID=? AND (( A01.mi_owner = ? ) OR               (1=1) OR                             exists (select 1 from ubm_navshortcut_adm admsubtable where admsubtable.instanceID = A01.ID and admsubtable.admSubjID in (select ur.RoleID from uba_userrole ur where ur.UserID = ? union select 10))) AND A01.mi_deleteDate=?
20180320 18034819  *  -    				00.000.097
20180320 18034819  *  -    			00.000.144
20180320 18034819  * debug 			Query result for entity "ubm_navshortcut" into data name "": row count=1
20180320 18034819  *  -    		00.000.158
20180320 18034819  *  -    	00.000.301
20180320 18034819  * http  	127.0.0.1 <- 200
20180320 18034819  *  -    00.004.035
20180320 18034822  +  +    models/adminui-pub/themes/UBGrayTheme/images/tab/tab-default-close-dark.png
20180320 18034822  + http  	127.0.0.1 -> GET models/adminui-pub/themes/UBGrayTheme/images/tab/tab-default-close-dark.png
20180320 18034822  + call  	endpoint models
20180320 18034822  + http  	127.0.0.1 <- 200
20180320 18034822  +  -    00.000.785
20180320 18034825  (  +    models/adminui-pub/themes/UBGrayTheme/images/loadmask/loading.gif
20180320 18034825  ( http  	127.0.0.1 -> GET models/adminui-pub/themes/UBGrayTheme/images/loadmask/loading.gif
20180320 18034825  ( call  	endpoint models
20180320 18034825  ( http  	127.0.0.1 <- 200
20180320 18034825  (  -    00.000.789
20180320 18034828  -  +    models/adminui-pub/themes/UBGrayTheme/images/form/trigger.png
20180320 18034828  - http  	127.0.0.1 -> GET models/adminui-pub/themes/UBGrayTheme/images/form/trigger.png
20180320 18034828  - call  	endpoint models
20180320 18034828  - http  	127.0.0.1 <- 200
20180320 18034828  -  -    00.000.667
20180320 18034829  .  +    models/adminui-pub/themes/UBGrayTheme/images/grid/page-prev.png
20180320 18034829  "  +    models/adminui-pub/themes/UBGrayTheme/images/grid/page-next.png
20180320 18034829  /  +    models/adminui-pub/themes/UBGrayTheme/ubimages/sum.png
20180320 18034829  . http  	127.0.0.1 -> GET models/adminui-pub/themes/UBGrayTheme/images/grid/page-prev.png
20180320 18034829  " http  	127.0.0.1 -> GET models/adminui-pub/themes/UBGrayTheme/images/grid/page-next.png
20180320 18034829  / http  	127.0.0.1 -> GET models/adminui-pub/themes/UBGrayTheme/ubimages/sum.png
20180320 18034829  / call  	endpoint models
20180320 18034829  . call  	endpoint models
20180320 18034829  " call  	endpoint models
20180320 18034829  / http  	127.0.0.1 <- 200
20180320 18034829  " http  	127.0.0.1 <- 200
20180320 18034829  /  -    00.000.650
20180320 18034829  "  -    00.000.653
20180320 18034829  . http  	127.0.0.1 <- 200
20180320 18034829  .  -    00.001.038
20180320 18034831  #  +    ubql
20180320 18034831  # http  	127.0.0.1 -> POST ubql
20180320 18034831  # http  	[{"entity":"req_subDepart","method":"select","fieldList":["name","department.ID","department.name","department.postAddr","department.phoneNum","ID"],"options":{"limit":100,"start":0}}]
20180320 18034831  # auth  	admin/4605665
20180320 18034831  # call  	endpoint ubql
20180320 18034831  #  +    	ubMixinClasses.TubStorageMixin(02B042C0).MixinMethod
20180320 18034831  # debug 		req_subDepart.select(TubStorageMixin)
20180320 18034831  #  +    		ubApp.TubDataStore(071CE120).Init
20180320 18034831  #  +    			ubApp.TubApp(02AB3EE0).DBExecute
20180320 18034831  #  +    				ubApp.TubApp(02AB3EE0).TubApp.InternalDBExecute
20180320 18034831  #  +    					00856EC2 
20180320 18034831  #  -    					00.001.966
20180320 18034831  # SQL   					ubDBSQLite3ThreadSafe.TubSQLite3Statement(1727A450) PRAGMA foreign_keys = ON
20180320 18034831  # SQL   					ubDBSQLite3ThreadSafe.TubSQLite3Statement(17279D90) SELECT A01.name,A02.ID,A02.name AS name2,  A02.postAddr,A02.phoneNum,A01.ID AS ID2  FROM req_subDepart A01  INNER JOIN req_depart A02 ON A02.ID=A01.department  LIMIT 100 OFFSET 0 
20180320 18034831  #  -    				00.002.034
20180320 18034831  #  -    			00.002.081
20180320 18034831  # debug 			Query result for entity "req_subDepart" into data name "": row count=0
20180320 18034831  #  -    		00.002.096
20180320 18034831  #  -    	00.002.236
20180320 18034831  # http  	127.0.0.1 <- 200
20180320 18034831  #  -    00.002.949
20180320 18040729  0  +    ubql
20180320 18040729  0 http  	127.0.0.1 -> POST ubql
20180320 18040729  0 http  	[{"entity":"ubm_navshortcut","method":"select","fieldList":["ID","cmdCode"],"whereList":{"c1":{"expression":"[ID]","condition":"equal","values":{"c1":335295153209345}}}}]
20180320 18040729  0 auth  	admin/4605665
20180320 18040729  0 call  	endpoint ubql
20180320 18040729  0  +    	ubMixinClasses.TubRLSMixin(02B04E20).MixinMethod
20180320 18040729  0 debug 		ubm_navshortcut.select(TubRLSMixin)
20180320 18040729  0 debug 		Prepare RLS expression for ubm_navshortcut
20180320 18040729  0  -    	00.000.256
20180320 18040729  0  +    	ubMixinClasses.TubStorageMixin(02B042C0).MixinMethod
20180320 18040729  0 debug 		ubm_navshortcut.select(TubStorageMixin)
20180320 18040729  0  +    		ubApp.TubDataStore(071CDEC8).Init
20180320 18040729  0  +    			ubApp.TubApp(02AB3EE0).DBExecute
20180320 18040729  0  +    				ubApp.TubApp(02AB3EE0).TubApp.InternalDBExecute
20180320 18040729  0 debug 					P1: Int64		335295153209345
20180320 18040729  0 debug 					P2: Int64		10
20180320 18040729  0 debug 					P3: Int64		10
20180320 18040729  0 debug 					P4: DateTime	9999-12-31T00:00:00
20180320 18040729  0 SQL   					ubDBSQLite3ThreadSafe.TubSQLite3Statement(1727A4B0) SELECT A01.ID,A01.cmdCode  FROM ubm_navshortcut A01  WHERE A01.ID=? AND (( A01.mi_owner = ? ) OR               (1=1) OR                             exists (select 1 from ubm_navshortcut_adm admsubtable where admsubtable.instanceID = A01.ID and admsubtable.admSubjID in (select ur.RoleID from uba_userrole ur where ur.UserID = ? union select 10))) AND A01.mi_deleteDate=?
20180320 18040729  0  -    				00.000.156
20180320 18040729  0  -    			00.000.253
20180320 18040729  0 debug 			Query result for entity "ubm_navshortcut" into data name "": row count=1
20180320 18040729  0  -    		00.000.271
20180320 18040729  0  -    	00.000.428
20180320 18040729  0 http  	127.0.0.1 <- 200
20180320 18040729  0  -    00.001.118
20180320 18040738  $  +    ubql
20180320 18040738  $ http  	127.0.0.1 -> POST ubql
20180320 18040738  $ http  	[{"entity":"ubm_navshortcut","method":"select","fieldList":["desktopID","code","isFolder","caption","cmdCode","inWindow","isCollapsed","displayOrder","iconCls","ID","mi_modifyDate"],"options":{"limit":100,"start":0}}]
20180320 18040738  $ auth  	admin/4605665
20180320 18040738  $ call  	endpoint ubql
20180320 18040738  $  +    	ubMixinClasses.TubRLSMixin(02B04E20).MixinMethod
20180320 18040738  $ debug 		ubm_navshortcut.select(TubRLSMixin)
20180320 18040738  $ debug 		Prepare RLS expression for ubm_navshortcut
20180320 18040738  $  -    	00.000.315
20180320 18040738  $  +    	ubMixinClasses.TubStorageMixin(02B042C0).MixinMethod
20180320 18040738  $ debug 		ubm_navshortcut.select(TubStorageMixin)
20180320 18040738  $  +    		ubApp.TubDataStore(071CDDB0).Init
20180320 18040738  $  +    			ubApp.TubApp(02AB3EE0).DBExecute
20180320 18040738  $  +    				ubApp.TubApp(02AB3EE0).TubApp.InternalDBExecute
20180320 18040738  $ debug 					P1: Int64		10
20180320 18040738  $ debug 					P2: Int64		10
20180320 18040738  $ debug 					P3: DateTime	9999-12-31T00:00:00
20180320 18040738  $ SQL   					ubDBSQLite3ThreadSafe.TubSQLite3Statement(1727A630) SELECT A01.desktopID,A01.code,A01.isFolder,A01.caption,A01.cmdCode,A01.inWindow,A01.isCollapsed,A01.displayOrder,A01.iconCls,A01.ID,A01.mi_modifyDate  FROM ubm_navshortcut A01  WHERE (( A01.mi_owner = ? ) OR               (1=1) OR                             exists (select 1 from ubm_navshortcut_adm admsubtable where admsubtable.instanceID = A01.ID and admsubtable.admSubjID in (select ur.RoleID from uba_userrole ur where ur.UserID = ? union select 10))) AND A01.mi_deleteDate=? LIMIT 100 OFFSET 0 
20180320 18040738  $  -    				00.000.159
20180320 18040738  $  -    			00.000.316
20180320 18040738  $ debug 			Query result for entity "ubm_navshortcut" into data name "": row count=33
20180320 18040738  $  -    		00.000.368
20180320 18040738  $  -    	00.000.573
20180320 18040738  $ http  	127.0.0.1 <- 200
20180320 18040738  $  -    00.001.631
20180320 18040748  %  +    ubql
20180320 18040748  % http  	127.0.0.1 -> POST ubql
20180320 18040748  % http  	[{"entity":"ubm_desktop","method":"select","fieldList":["ID","caption","mi_modifyDate"],"version":"-1"}]
20180320 18040748  % auth  	admin/4605665
20180320 18040748  % call  	endpoint ubql
20180320 18040748  %  +    	ubMixinClasses.TubRLSMixin(02B04E20).MixinMethod
20180320 18040748  % debug 		ubm_desktop.select(TubRLSMixin)
20180320 18040748  % debug 		Prepare RLS expression for ubm_desktop
20180320 18040748  %  +    		ubApp.TubDataStore(071CDDD8).Init
20180320 18040748  %  +    			ubApp.TubApp(02AB3EE0).DBExecute
20180320 18040748  %  +    				ubApp.TubApp(02AB3EE0).TubApp.InternalDBExecute
20180320 18040748  %  +    					00856EC2 
20180320 18040748  %  -    					00.002.066
20180320 18040748  % SQL   					ubDBSQLite3ThreadSafe.TubSQLite3Statement(1727AB70) PRAGMA foreign_keys = ON
20180320 18040748  % SQL   					ubDBSQLite3ThreadSafe.TubSQLite3Statement(17279DF0) select ID, name FROM uba_role
20180320 18040748  %  -    				00.002.104
20180320 18040748  %  -    			00.002.139
20180320 18040748  % debug 			Query result for entity "uba_role" into data name "": row count=7
20180320 18040748  %  -    		00.002.151
20180320 18040748  %  -    	00.003.156
20180320 18040748  %  +    	ubMixinClasses.TubStorageMixin(02B042C0).MixinMethod
20180320 18040748  % debug 		ubm_desktop.select(TubStorageMixin)
20180320 18040748  %  +    		ubApp.TubDataStore(071CDF68).Init
20180320 18040748  %  +    			ubApp.TubApp(02AB3EE0).DBExecute
20180320 18040748  %  +    				ubApp.TubApp(02AB3EE0).TubApp.InternalDBExecute
20180320 18040748  % debug 					P1: Int64		10
20180320 18040748  % debug 					P2: Int64		10
20180320 18040748  % debug 					P3: DateTime	9999-12-31T00:00:00
20180320 18040748  % SQL   					ubDBSQLite3ThreadSafe.TubSQLite3Statement(1727AC30) SELECT A01.ID,A01.caption,A01.mi_modifyDate  FROM ubm_desktop A01  WHERE (( A01.mi_owner = ? ) OR (1=1) OR exists (select 1 from ubm_desktop_adm admsubtable where admsubtable.instanceID = A01.ID and admsubtable.admSubjID in (select ur.RoleID from uba_userrole ur where ur.UserID = ? union select 10))) AND A01.mi_deleteDate=?
20180320 18040748  %  -    				00.000.101
20180320 18040748  %  -    			00.000.142
20180320 18040748  % debug 			Query result for entity "ubm_desktop" into data name "": row count=2
20180320 18040748  %  -    		00.000.155
20180320 18040748  %  -    	00.000.286
20180320 18040748  % http  	127.0.0.1 <- 200
20180320 18040748  %  -    00.004.069
20180320 18041408  1  +    models/adminui-pub/themes/UBGrayTheme/ubimages/globe.svg
20180320 18041408  1 http  	127.0.0.1 -> GET models/adminui-pub/themes/UBGrayTheme/ubimages/globe.svg
20180320 18041408  1 call  	endpoint models
20180320 18041408  &  +    models/adminui-pub/themes/UBGrayTheme/images/form/checkbox.png
20180320 18041408  & http  	127.0.0.1 -> GET models/adminui-pub/themes/UBGrayTheme/images/form/checkbox.png
20180320 18041408  & call  	endpoint models
20180320 18041408  1 http  	127.0.0.1 <- 200
20180320 18041408  1  -    00.000.716
20180320 18041408  & http  	127.0.0.1 <- 200
20180320 18041408  &  -    00.000.625
20180320 18041410  '  +    clientRequire/@unitybase/adminui-pub/dist/adminui.4.min.js
20180320 18041410  ' http  	127.0.0.1 -> GET clientRequire/@unitybase/adminui-pub/dist/adminui.4.min.js
20180320 18041410  ' call  	endpoint clientRequire
20180320 18041410  ' info  	Call clientRequire 
20180320 18041410  ' http  	127.0.0.1 <- 200
20180320 18041410  '  -    00.001.847
20180320 18041416  ,  +    ubql
20180320 18041416  , http  	127.0.0.1 -> POST ubql
20180320 18041416  , http  	[{"entity":"ubm_navshortcut","fieldList":["ID","desktopID","parentID","caption","code","iconCls","isFolder","inWindow","isCollapsed","displayOrder","cmdCode","mi_modifyDate","mi_treePath"],"ID":335295365808129,"alsNeed":false,"method":"select"}]
20180320 18041416  , auth  	admin/4605665
20180320 18041416  , call  	endpoint ubql
20180320 18041416  ,  +    	ubMixinClasses.TubRLSMixin(02B04E20).MixinMethod
20180320 18041416  , debug 		ubm_navshortcut.select(TubRLSMixin)
20180320 18041416  , debug 		Prepare RLS expression for ubm_navshortcut
20180320 18041416  ,  +    		ubApp.TubDataStore(071CDD88).Init
20180320 18041416  ,  +    			ubApp.TubApp(02AB3EE0).DBExecute
20180320 18041416  ,  +    				ubApp.TubApp(02AB3EE0).TubApp.InternalDBExecute
20180320 18041416  ,  +    					00856EC2 
20180320 18041416  ,  -    					00.002.251
20180320 18041416  , SQL   					ubDBSQLite3ThreadSafe.TubSQLite3Statement(1727B290) PRAGMA foreign_keys = ON
20180320 18041416  , SQL   					ubDBSQLite3ThreadSafe.TubSQLite3Statement(1727AC90) select ID, name FROM uba_role
20180320 18041416  ,  -    				00.002.330
20180320 18041416  ,  -    			00.002.403
20180320 18041416  , debug 			Query result for entity "uba_role" into data name "": row count=7
20180320 18041416  ,  -    		00.002.437
20180320 18041416  ,  -    	00.003.566
20180320 18041416  ,  +    	ubMixinClasses.TubStorageMixin(02B042C0).MixinMethod
20180320 18041416  , debug 		ubm_navshortcut.select(TubStorageMixin)
20180320 18041416  ,  +    		ubApp.TubDataStore(071CC550).Init
20180320 18041416  ,  +    			ubApp.TubApp(02AB3EE0).DBExecute
20180320 18041416  ,  +    				ubApp.TubApp(02AB3EE0).TubApp.InternalDBExecute
20180320 18041416  , debug 					P1: Int64		10
20180320 18041416  , debug 					P2: Int64		10
20180320 18041416  , debug 					P3: Int64		335295365808129
20180320 18041416  , debug 					P4: DateTime	9999-12-31T00:00:00
20180320 18041416  , SQL   					ubDBSQLite3ThreadSafe.TubSQLite3Statement(1727B350) SELECT A01.ID,A01.desktopID,A01.parentID,A01.caption,A01.code,A01.iconCls,A01.isFolder,A01.inWindow,A01.isCollapsed,A01.displayOrder,A01.cmdCode,A01.mi_modifyDate,A01.mi_treePath  FROM ubm_navshortcut A01  WHERE (( A01.mi_owner = ? ) OR               (1=1) OR                             exists (select 1 from ubm_navshortcut_adm admsubtable where admsubtable.instanceID = A01.ID and admsubtable.admSubjID in (select ur.RoleID from uba_userrole ur where ur.UserID = ? union select 10))) AND A01.ID=? AND A01.mi_d... (truncated) length=523
20180320 18041416  ,  -    				00.000.158
20180320 18041416  ,  -    			00.000.250
20180320 18041416  , debug 			Query result for entity "ubm_navshortcut" into data name "": row count=1
20180320 18041416  ,  -    		00.000.272
20180320 18041416  ,  -    	00.000.537
20180320 18041416  , http  	127.0.0.1 <- 200
20180320 18041416  ,  -    00.004.832
20180320 18041419  )  +    ubql
20180320 18041419  ) http  	127.0.0.1 -> POST ubql
20180320 18041419  ) http  	[{"entity":"ubm_navshortcut","method":"select","fieldList":["ID","caption","isFolder","mi_modifyDate"],"whereList":{"x100":{"values":{"ID":335295190532097},"expression":"[ID]","condition":"equal"},"onlyFolders":{"expression":"[isFolder]","condition":"equal","values":{"isFolder":true}}},"orderList":{"_asc":{"expression":"caption","order":"asc"}},"options":{"limit":30,"start":0}}]
20180320 18041419  ) auth  	admin/4605665
20180320 18041419  ) call  	endpoint ubql
20180320 18041419  )  +    	ubMixinClasses.TubRLSMixin(02B04E20).MixinMethod
20180320 18041419  ) debug 		ubm_navshortcut.select(TubRLSMixin)
20180320 18041419  ) debug 		Prepare RLS expression for ubm_navshortcut
20180320 18041419  )  +    		ubApp.TubDataStore(17223938).Init
20180320 18041419  )  +    			ubApp.TubApp(02AB3EE0).DBExecute
20180320 18041419  )  +    				ubApp.TubApp(02AB3EE0).TubApp.InternalDBExecute
20180320 18041419  )  +    					00856EC2 
20180320 18041419  )  -    					00.002.014
20180320 18041419  ) SQL   					ubDBSQLite3ThreadSafe.TubSQLite3Statement(1727B9B0) PRAGMA foreign_keys = ON
20180320 18041419  ) SQL   					ubDBSQLite3ThreadSafe.TubSQLite3Statement(1727B290) select ID, name FROM uba_role
20180320 18041419  )  -    				00.002.051
20180320 18041419  )  -    			00.002.118
20180320 18041419  ) debug 			Query result for entity "uba_role" into data name "": row count=7
20180320 18041419  )  -    		00.002.150
20180320 18041419  )  -    	00.003.157
20180320 18041419  )  +    	ubMixinClasses.TubStorageMixin(02B042C0).MixinMethod
20180320 18041419  ) debug 		ubm_navshortcut.select(TubStorageMixin)
20180320 18041419  )  +    		ubApp.TubDataStore(17223640).Init
20180320 18041419  )  +    			ubApp.TubApp(02AB3EE0).DBExecute
20180320 18041419  )  +    				ubApp.TubApp(02AB3EE0).TubApp.InternalDBExecute
20180320 18041419  ) debug 					P1: Int64		335295190532097
20180320 18041419  ) debug 					P2: Bool		1
20180320 18041419  ) debug 					P3: Int64		10
20180320 18041419  ) debug 					P4: Int64		10
20180320 18041419  ) debug 					P5: DateTime	9999-12-31T00:00:00
20180320 18041419  ) SQL   					ubDBSQLite3ThreadSafe.TubSQLite3Statement(1727BA70) SELECT A01.ID,A01.caption,A01.isFolder,A01.mi_modifyDate  FROM ubm_navshortcut A01  WHERE A01.ID=? AND A01.isFolder=? AND (( A01.mi_owner = ? ) OR               (1=1) OR                             exists (select 1 from ubm_navshortcut_adm admsubtable where admsubtable.instanceID = A01.ID and admsubtable.admSubjID in (select ur.RoleID from uba_userrole ur where ur.UserID = ? union select 10))) AND A01.mi_deleteDate=? ORDER BY 2 ASC LIMIT 30 OFFSET 0 
20180320 18041419  )  -    				00.000.109
20180320 18041419  )  -    			00.000.154
20180320 18041419  ) debug 			Query result for entity "ubm_navshortcut" into data name "": row count=1
20180320 18041419  )  -    		00.000.169
20180320 18041419  )  -    	00.000.332
20180320 18041419  ) http  	127.0.0.1 <- 200
20180320 18041419  )  -    00.004.100
20180320 18041426  *  +    models/adminui-pub/themes/UBGrayTheme/images/tree/leaf.png
20180320 18041426  * http  	127.0.0.1 -> GET models/adminui-pub/themes/UBGrayTheme/images/tree/leaf.png
20180320 18041426  * call  	endpoint models
20180320 18041426  +  +    models/adminui-pub/themes/UBGrayTheme/images/tree/arrows.png
20180320 18041426  + http  	127.0.0.1 -> GET models/adminui-pub/themes/UBGrayTheme/images/tree/arrows.png
20180320 18041426  (  +    models/adminui-pub/themes/UBGrayTheme/images/tree/folder.png
20180320 18041426  ( http  	127.0.0.1 -> GET models/adminui-pub/themes/UBGrayTheme/images/tree/folder.png
20180320 18041426  + call  	endpoint models
20180320 18041426  ( call  	endpoint models
20180320 18041426  ( http  	127.0.0.1 <- 200
20180320 18041426  (  -    00.000.410
20180320 18041426  * http  	127.0.0.1 <- 200
20180320 18041426  *  -    00.000.864
20180320 18041426  + http  	127.0.0.1 <- 200
20180320 18041426  +  -    00.000.669
20180320 18041929  -  +    ubql
20180320 18041929  - http  	127.0.0.1 -> POST ubql
20180320 18041929  - http  	[{"entity":"ubm_navshortcut","method":"select","fieldList":["ID","caption","isFolder","mi_modifyDate"],"whereList":{"onlyFolders":{"expression":"[isFolder]","condition":"equal","values":{"isFolder":true}}},"orderList":{"_asc":{"expression":"caption","order":"asc"}},"options":{"limit":30,"start":0}}]
20180320 18041929  - auth  	admin/4605665
20180320 18041929  - call  	endpoint ubql
20180320 18041929  -  +    	ubMixinClasses.TubRLSMixin(02B04E20).MixinMethod
20180320 18041929  - debug 		ubm_navshortcut.select(TubRLSMixin)
20180320 18041929  - debug 		Prepare RLS expression for ubm_navshortcut
20180320 18041929  -  +    		ubApp.TubDataStore(17223780).Init
20180320 18041929  -  +    			ubApp.TubApp(02AB3EE0).DBExecute
20180320 18041929  -  +    				ubApp.TubApp(02AB3EE0).TubApp.InternalDBExecute
20180320 18041929  -  +    					00856EC2 
20180320 18041929  -  -    					00.002.152
20180320 18041929  - SQL   					ubDBSQLite3ThreadSafe.TubSQLite3Statement(1727C070) PRAGMA foreign_keys = ON
20180320 18041929  - SQL   					ubDBSQLite3ThreadSafe.TubSQLite3Statement(1727B9B0) select ID, name FROM uba_role
20180320 18041929  -  -    				00.002.192
20180320 18041929  -  -    			00.002.229
20180320 18041929  - debug 			Query result for entity "uba_role" into data name "": row count=7
20180320 18041929  -  -    		00.002.242
20180320 18041929  -  -    	00.003.304
20180320 18041929  -  +    	ubMixinClasses.TubStorageMixin(02B042C0).MixinMethod
20180320 18041929  - debug 		ubm_navshortcut.select(TubStorageMixin)
20180320 18041929  -  +    		ubApp.TubDataStore(172236E0).Init
20180320 18041929  -  +    			ubApp.TubApp(02AB3EE0).DBExecute
20180320 18041929  -  +    				ubApp.TubApp(02AB3EE0).TubApp.InternalDBExecute
20180320 18041929  - debug 					P1: Bool		1
20180320 18041929  - debug 					P2: Int64		10
20180320 18041929  - debug 					P3: Int64		10
20180320 18041929  - debug 					P4: DateTime	9999-12-31T00:00:00
20180320 18041929  - SQL   					ubDBSQLite3ThreadSafe.TubSQLite3Statement(1727C130) SELECT A01.ID,A01.caption,A01.isFolder,A01.mi_modifyDate  FROM ubm_navshortcut A01  WHERE A01.isFolder=? AND (( A01.mi_owner = ? ) OR               (1=1) OR                             exists (select 1 from ubm_navshortcut_adm admsubtable where admsubtable.instanceID = A01.ID and admsubtable.admSubjID in (select ur.RoleID from uba_userrole ur where ur.UserID = ? union select 10))) AND A01.mi_deleteDate=? ORDER BY 2 ASC LIMIT 30 OFFSET 0 
20180320 18041929  -  -    				00.000.123
20180320 18041929  -  -    			00.000.288
20180320 18041929  - debug 			Query result for entity "ubm_navshortcut" into data name "": row count=5
20180320 18041929  -  -    		00.000.310
20180320 18041929  -  -    	00.000.507
20180320 18041929  - http  	127.0.0.1 <- 200
20180320 18041929  -  -    00.004.964
20180320 18042743  /  +    ubql
20180320 18042743  / http  	127.0.0.1 -> POST ubql
20180320 18042743  / http  	[{"fieldList":["ID","desktopID","parentID","caption","code","iconCls","isFolder","inWindow","isCollapsed","displayOrder","cmdCode","mi_modifyDate","mi_treePath"],"entity":"ubm_navshortcut","method":"update","alsNeed":false,"execParams":{"parentID":null,"ID":335295365808129,"mi_modifyDate":"2018-03-02T09:38:46.000Z"}}]
20180320 18042743  / auth  	admin/4605665
20180320 18042743  / call  	endpoint ubql
20180320 18042743  /  +    	ubMixinClasses.TubStorageMixin(02B042C0).MixinMethod
20180320 18042743  / debug 		ubm_navshortcut.beforeupdate(TubStorageMixin)
20180320 18042743  /  +    		ubMixinClasses.TubRLSMixin(02B04E20).MixinMethod
20180320 18042743  / debug 			ubm_navshortcut.select(TubRLSMixin)
20180320 18042743  / debug 			Prepare RLS expression for ubm_navshortcut
20180320 18042743  /  +    			ubApp.TubDataStore(071D1730).Init
20180320 18042743  /  +    				ubApp.TubApp(02AB3EE0).DBExecute
20180320 18042743  /  +    					ubApp.TubApp(02AB3EE0).TubApp.InternalDBExecute
20180320 18042743  /  +    						00856EC2 
20180320 18042743  /  -    						00.001.960
20180320 18042743  / SQL   						ubDBSQLite3ThreadSafe.TubSQLite3Statement(1727C790) PRAGMA foreign_keys = ON
20180320 18042743  / SQL   						ubDBSQLite3ThreadSafe.TubSQLite3Statement(1727C070) select ID, name FROM uba_role
20180320 18042743  /  -    					00.001.995
20180320 18042743  /  -    				00.002.027
20180320 18042743  / debug 				Query result for entity "uba_role" into data name "": row count=7
20180320 18042743  /  -    			00.002.039
20180320 18042743  /  -    		00.002.974
20180320 18042743  /  +    		ubMixinClasses.TubStorageMixin(02B042C0).MixinMethod
20180320 18042743  / debug 			ubm_navshortcut.select(TubStorageMixin)
20180320 18042743  /  +    			ubApp.TubDataStore(071CE260).Init
20180320 18042743  /  +    				ubApp.TubApp(02AB3EE0).DBExecute
20180320 18042743  /  +    					ubApp.TubApp(02AB3EE0).TubApp.InternalDBExecute
20180320 18042743  / debug 						P1: Int64		10
20180320 18042743  / debug 						P2: Int64		10
20180320 18042743  / debug 						P3: Int64		335295365808129
20180320 18042743  / debug 						P4: DateTime	9999-12-31T00:00:00
20180320 18042743  / SQL   						ubDBSQLite3ThreadSafe.TubSQLite3Statement(1727C850) SELECT A01.ID,A01.desktopID,A01.parentID,A01.code,A01.isFolder,A01.caption,A01.cmdCode,A01.inWindow,A01.isCollapsed,A01.displayOrder,A01.iconCls,A01.mi_treePath,A01.mi_owner,A01.mi_createDate,A01.mi_createUser,A01.mi_modifyDate,A01.mi_modifyUser,A01.mi_deleteDate,A01.mi_deleteUser  FROM ubm_navshortcut A01  WHERE (( A01.mi_owner = ? ) OR               (1=1) OR                             exists (select 1 from ubm_navshortcut_adm admsubtable where admsubtable.instanceID = A01.ID and admsubtable.admSubjID in ... (truncated) length=626
20180320 18042743  /  -    					00.000.132
20180320 18042743  /  -    				00.000.189
20180320 18042743  / debug 				Query result for entity "ubm_navshortcut" into data name "selectBeforeUpdate": row count=1
20180320 18042743  /  -    			00.000.209
20180320 18042743  /  -    		00.000.447
20180320 18042743  /  -    	00.003.669
20180320 18042743  /  +    	ubMixinClasses.TubTreeMixin(02B04DB0).MixinMethod
20180320 18042743  / debug 		ubm_navshortcut.update(TubTreeMixin)
20180320 18042743  /  -    	00.000.007
20180320 18042743  /  +    	ubMixinClasses.TubStorageMixin(02B042C0).MixinMethod
20180320 18042743  / debug 		ubm_navshortcut.update(TubStorageMixin)
20180320 18042743  /  +    		ubApp.TubApp(02AB3EE0).DBExecute
20180320 18042743  /  +    			ubApp.TubApp(02AB3EE0).TubApp.InternalDBExecute
20180320 18042743  / debug 				P1: NULL
20180320 18042743  / debug 				P2: DateTime	2018-03-20T18:04:27
20180320 18042743  / debug 				P3: String(17)	/335295365808129/
20180320 18042743  / debug 				P4: Int64		10
20180320 18042743  / debug 				P5: Int64		335295365808129
20180320 18042743  / DB    				StartTransaction for connection "main"
20180320 18042743  / SQL   				ubDBSQLite3ThreadSafe.TubSQLite3Statement(1727C7F0) UPDATE ubm_navshortcut SET parentID=?,mi_modifyDate=?,mi_treePath=?,mi_modifyUser=? WHERE ID= ?
20180320 18042743  /  -    			00.000.204
20180320 18042743  /  -    		00.000.206
20180320 18042743  /  -    	00.000.289
20180320 18042743  /  +    	ubMixinClasses.TubStorageMixin(02B042C0).MixinMethod
20180320 18042743  / debug 		ubm_navshortcut.afterupdate(TubStorageMixin)
20180320 18042743  /  +    		ubMixinClasses.TubRLSMixin(02B04E20).MixinMethod
20180320 18042743  / debug 			ubm_navshortcut.select(TubRLSMixin)
20180320 18042743  / debug 			Prepare RLS expression for ubm_navshortcut
20180320 18042743  /  -    		00.000.173
20180320 18042743  /  +    		ubMixinClasses.TubStorageMixin(02B042C0).MixinMethod
20180320 18042743  / debug 			ubm_navshortcut.select(TubStorageMixin)
20180320 18042743  /  +    			ubApp.TubDataStore(071CE260).Init
20180320 18042743  /  +    				ubApp.TubApp(02AB3EE0).DBExecute
20180320 18042743  /  +    					ubApp.TubApp(02AB3EE0).TubApp.InternalDBExecute
20180320 18042743  / debug 						P1: Int64		10
20180320 18042743  / debug 						P2: Int64		10
20180320 18042743  / debug 						P3: Int64		335295365808129
20180320 18042743  / debug 						P4: DateTime	9999-12-31T00:00:00
20180320 18042743  / SQL   						ubDBSQLite3ThreadSafe.TubSQLite3Statement(1727C8B0) SELECT A01.ID,A01.desktopID,A01.parentID,A01.caption,A01.code,A01.iconCls,A01.isFolder,A01.inWindow,A01.isCollapsed,A01.displayOrder,A01.cmdCode,A01.mi_modifyDate,A01.mi_treePath  FROM ubm_navshortcut A01  WHERE (( A01.mi_owner = ? ) OR               (1=1) OR                             exists (select 1 from ubm_navshortcut_adm admsubtable where admsubtable.instanceID = A01.ID and admsubtable.admSubjID in (select ur.RoleID from uba_userrole ur where ur.UserID = ? union select 10))) AND A01.ID=? AND A01.mi_d... (truncated) length=523
20180320 18042743  /  -    					00.000.110
20180320 18042743  /  -    				00.000.129
20180320 18042743  / debug 				Query result for entity "ubm_navshortcut" into data name "selectAfterUpdate": row count=1
20180320 18042743  /  -    			00.000.144
20180320 18042743  /  -    		00.000.311
20180320 18042743  /  -    	00.000.545
20180320 18042743  /  +    	ubMixinClasses.TubTreeMixin(02B04DB0).MixinMethod
20180320 18042743  / debug 		ubm_navshortcut.afterupdate(TubTreeMixin)
20180320 18042743  /  +    		ubApp.TubDataStore(071CE260).Init
20180320 18042743  /  +    			ubApp.TubApp(02AB3EE0).DBExecute
20180320 18042743  /  +    				ubApp.TubApp(02AB3EE0).TubApp.InternalDBExecute
20180320 18042743  / debug 					P1: Int64		335295365808129
20180320 18042743  / SQL   					ubDBSQLite3ThreadSafe.TubSQLite3Statement(1727CBB0) SELECT A01.ID  FROM ubm_navshortcut A01  WHERE A01.parentID=?
20180320 18042743  /  -    				00.000.027
20180320 18042743  /  -    			00.000.034
20180320 18042743  / debug 			Query result for entity "ubm_navshortcut" into data name "treeChilds": row count=0
20180320 18042743  /  -    		00.000.040
20180320 18042743  /  -    	00.000.084
20180320 18042743  /  +    	ubMixinClasses.TubAuditMixin(02B04F70).MixinMethod
20180320 18042743  / debug 		ubm_navshortcut.afterupdate(TubAuditMixin)
20180320 18042743  /  +    		ubApp.TubDataStore(172236E0).TubDataStore.ExecuteInsertFromSQL
20180320 18042743  /  +    			ubApp.TubApp(02AB3EE0).DBExecute
20180320 18042743  /  +    				ubApp.TubApp(02AB3EE0).TubApp.InternalDBExecute
20180320 18042743  / debug 					P1: Int64		335498328997889
20180320 18042743  / debug 					P2: String(15)	ubm_navshortcut
20180320 18042743  / debug 					P3: Int64		335295365808129
20180320 18042743  / debug 					P4: String(6)	UPDATE
20180320 18042743  / debug 					P5: Int64		10
20180320 18042743  / debug 					P6: DateTime	2018-03-20T18:04:27
20180320 18042743  / debug 					P7: String(9)	127.0.0.1
20180320 18042743  / debug 					P8: Int64		335295365808129
20180320 18042743  / debug 					P9: String(687..)	{"ID":335295365808129,"desktopID":335295183650817,"parentID":335295190532097,"code":"req_list","isFo...
20180320 18042743  / debug 					P10: String(130..)	{"parentID":null,"ID":335295365808129,"mi_modifyDate":"2018-03-20T18:04:27Z","mi_treePath":"/3352953...
20180320 18042743  / SQL   					ubDBSQLite3ThreadSafe.TubSQLite3Statement(1727CB50) INSERT INTO uba_auditTrail (ID,entity,entityinfo_id,actionType,actionUser,actionTime,remoteIP,parentEntityInfo_id,fromValue,toValue) VALUES (?,?,?,?,?,?,?,?,?,?)
20180320 18042743  /  -    				00.000.096
20180320 18042743  /  -    			00.000.098
20180320 18042743  /  -    		00.000.187
20180320 18042743  /  -    	00.000.224
20180320 18042743  / DB    	Commit connection "main" in 268us
20180320 18042743  / http  	127.0.0.1 <- 200
20180320 18042743  /  -    00.005.633
20180320 18043028  "  +    logout
20180320 18043028  " http  	127.0.0.1 -> POST logout
20180320 18043028  " http  	{}
20180320 18043028  " auth  	admin/4605665
20180320 18043028  " call  	endpoint logout
20180320 18043028  " auth  	Session closed admin/4605665/127.0.0.1
20180320 18043028  " http  	127.0.0.1 <- 200
20180320 18043028  "  -    00.000.423
20180320 18043028  .  +    adm
20180320 18043028  . http  	127.0.0.1 -> GET adm
20180320 18043028  . call  	endpoint adm
20180320 18043028  . http  	127.0.0.1 <- 200
20180320 18043028  .  -    00.001.331
20180320 18043030  #  +    models/adminui-pub/themes/UBGrayTheme/UBGrayTheme-all.css?ver=d41d8cd98f00b204e9800998ecf8427e
20180320 18043030  %  +    models/adminui-pub/themes/UBGrayTheme/ub.css?ver=d41d8cd98f00b204e9800998ecf8427e
20180320 18043030  $  +    clientRequire/font-awesome/css/font-awesome.min.css
20180320 18043030  0  +    models/adminui-pub/ub-css-all.css?ver=d41d8cd98f00b204e9800998ecf8427e
20180320 18043030  # http  	127.0.0.1 -> GET models/adminui-pub/themes/UBGrayTheme/UBGrayTheme-all.css?ver=d41d8cd98f00b204e9800998ecf8427e
20180320 18043030  % http  	127.0.0.1 -> GET models/adminui-pub/themes/UBGrayTheme/ub.css?ver=d41d8cd98f00b204e9800998ecf8427e
20180320 18043030  $ http  	127.0.0.1 -> GET clientRequire/font-awesome/css/font-awesome.min.css
20180320 18043030  0 http  	127.0.0.1 -> GET models/adminui-pub/ub-css-all.css?ver=d41d8cd98f00b204e9800998ecf8427e
20180320 18043030  &  +    clientRequire/systemjs/dist/system.js?ver=d41d8cd98f00b204e9800998ecf8427e
20180320 18043030  & http  	127.0.0.1 -> GET clientRequire/systemjs/dist/system.js?ver=d41d8cd98f00b204e9800998ecf8427e
20180320 18043030  0 call  	endpoint models
20180320 18043030  # call  	endpoint models
20180320 18043030  & call  	endpoint clientRequire
20180320 18043030  % call  	endpoint models
20180320 18043030  $ call  	endpoint clientRequire
20180320 18043030  & info  	Call clientRequire 
20180320 18043030  # http  	127.0.0.1 <- 200
20180320 18043030  #  -    00.000.498
20180320 18043030  % http  	127.0.0.1 <- 200
20180320 18043030  %  -    00.000.517
20180320 18043030  1  +    clientRequire/es6-promise/dist/es6-promise.auto.min.js
20180320 18043030  1 http  	127.0.0.1 -> GET clientRequire/es6-promise/dist/es6-promise.auto.min.js
20180320 18043030  0 http  	127.0.0.1 <- 200
20180320 18043030  0  -    00.000.756
20180320 18043030  1 call  	endpoint clientRequire
20180320 18043030  & http  	127.0.0.1 <- 200
20180320 18043030  &  -    00.000.770
20180320 18043030  1 info  	Call clientRequire 
20180320 18043030  1 http  	127.0.0.1 <- 200
20180320 18043030  1  -    00.000.424
20180320 18043030  $ info  	Call clientRequire 
20180320 18043030  $ http  	127.0.0.1 <- 200
20180320 18043030  $  -    00.001.939
20180320 18043030  '  +    models/adminui-pub/dist/ext-all.min.js?ver=d41d8cd98f00b204e9800998ecf8427e
20180320 18043030  ' http  	127.0.0.1 -> GET models/adminui-pub/dist/ext-all.min.js?ver=d41d8cd98f00b204e9800998ecf8427e
20180320 18043030  ' call  	endpoint models
20180320 18043030  ' http  	127.0.0.1 <- 200
20180320 18043030  '  -    00.000.308
20180320 18043034  ,  +    clientRequire/font-awesome/fonts/fontawesome-webfont.woff2?v=4.7.0
20180320 18043034  , http  	127.0.0.1 -> GET clientRequire/font-awesome/fonts/fontawesome-webfont.woff2?v=4.7.0
20180320 18043034  , call  	endpoint clientRequire
20180320 18043034  , info  	Call clientRequire 
20180320 18043034  , http  	127.0.0.1 <- 200
20180320 18043034  ,  -    00.000.346
20180320 18043059  )  +    clientRequire/@unitybase/adminui-pub/package.json
20180320 18043059  ) http  	127.0.0.1 -> GET clientRequire/@unitybase/adminui-pub/package.json
20180320 18043059  ) call  	endpoint clientRequire
20180320 18043059  ) info  	Call clientRequire 
20180320 18043059  ) http  	127.0.0.1 <- 200
20180320 18043059  )  -    00.000.340
20180320 18043059  (  +    clientRequire/@unitybase/adminui-pub/dist/adminui.app.min.js
20180320 18043059  *  +    models/UB/img/UBLogo32.png
20180320 18043059  ( http  	127.0.0.1 -> GET clientRequire/@unitybase/adminui-pub/dist/adminui.app.min.js
20180320 18043059  * http  	127.0.0.1 -> GET models/UB/img/UBLogo32.png
20180320 18043059  * call  	endpoint models
20180320 18043059  ( call  	endpoint clientRequire
20180320 18043059  ( info  	Call clientRequire 
20180320 18043059  * http  	127.0.0.1 <- 200
20180320 18043059  *  -    00.000.280
20180320 18043059  ( http  	127.0.0.1 <- 200
20180320 18043059  (  -    00.000.492
20180320 18043059  +  +    models/UB/img/UBLogo48.png
20180320 18043059  + http  	127.0.0.1 -> GET models/UB/img/UBLogo48.png
20180320 18043059  + call  	endpoint models
20180320 18043059  + http  	127.0.0.1 <- 200
20180320 18043059  +  -    00.000.587
20180320 18043110  -  +    getAppInfo
20180320 18043110  - http  	127.0.0.1 -> GET getAppInfo
20180320 18043110  - call  	endpoint getAppInfo
20180320 18043110  /  +    clientRequire/@unitybase/adminui-pub/themes/UBGrayTheme/UBGrayTheme.js
20180320 18043110  / http  	127.0.0.1 -> GET clientRequire/@unitybase/adminui-pub/themes/UBGrayTheme/UBGrayTheme.js
20180320 18043110  "  +    models/UB/img/UBLogo128.png
20180320 18043110  " http  	127.0.0.1 -> GET models/UB/img/UBLogo128.png
20180320 18043110  / call  	endpoint clientRequire
20180320 18043110  " call  	endpoint models
20180320 18043110  - http  	127.0.0.1 <- 304
20180320 18043110  -  -    00.000.563
20180320 18043110  / info  	Call clientRequire 
20180320 18043110  / http  	127.0.0.1 <- 200
20180320 18043110  /  -    00.000.348
20180320 18043110  " http  	127.0.0.1 <- 200
20180320 18043110  "  -    00.000.533
20180320 18043110  .  +    models/adminui-pub/locale/lang-en.js?ubver=3865914637ef7cd48187d30356b8b4b0
20180320 18043110  . http  	127.0.0.1 -> GET models/adminui-pub/locale/lang-en.js?ubver=3865914637ef7cd48187d30356b8b4b0
20180320 18043110  . call  	endpoint models
20180320 18043110  . http  	127.0.0.1 <- 200
20180320 18043110  .  -    00.000.423
20180320 18043110  0  +    models/UB/img/UBLogo16.ico
20180320 18043110  0 http  	127.0.0.1 -> GET models/UB/img/UBLogo16.ico
20180320 18043110  0 call  	endpoint models
20180320 18043110  0 http  	127.0.0.1 <- 200
20180320 18043110  0  -    00.000.257
20180320 18043113  %  +    models/adminui-pub/themes/UBGrayTheme/images/form/exclamation.png
20180320 18043113  % http  	127.0.0.1 -> GET models/adminui-pub/themes/UBGrayTheme/images/form/exclamation.png
20180320 18043113  % call  	endpoint models
20180320 18043113  % http  	127.0.0.1 <- 200
20180320 18043113  %  -    00.000.276
20180320 18043205  &  +    auth?AUTHTYPE=UB&userName=admin
20180320 18043205  & http  	127.0.0.1 -> POST auth?AUTHTYPE=UB&userName=admin
20180320 18043205  & call  	endpoint auth
20180320 18043205  & http  	127.0.0.1 <- 200
20180320 18043205  &  -    00.000.206
20180320 18043205  1  +    auth?AUTHTYPE=UB&clientNonce=b305c234137a59c0f8c6371643137255e63f2e62ef83f72ec19f15f433c8b872&password=28ce5e01ab4287d6c1c82e7bdc6ee31a49a124c6139ff3385d71842545097171&userName=admin
20180320 18043205  1 http  	127.0.0.1 -> POST auth?AUTHTYPE=UB&clientNonce=b305c234137a59c0f8c6371643137255e63f2e62ef83f72ec19f15f433c8b872&password=28ce5e01ab4287d6c1c82e7bdc6ee31a49a124c6139ff3385d71842545097171&userName=admin
20180320 18043205  1 call  	endpoint auth
20180320 18043205  1  +    	ubApp.TubDataStore(17320F78).Init
20180320 18043205  1  +    		ubApp.TubApp(02AB3EE0).DBExecute
20180320 18043205  1  +    			ubApp.TubApp(02AB3EE0).TubApp.InternalDBExecute
20180320 18043205  1  +    				00856EC2 
20180320 18043205  1  -    				00.002.203
20180320 18043205  1 SQL   				ubDBSQLite3ThreadSafe.TubSQLite3Statement(1727D210) PRAGMA foreign_keys = ON
20180320 18043205  1 debug 				P1: String(5)	admin
20180320 18043205  1 SQL   				ubDBSQLite3ThreadSafe.TubSQLite3Statement(02B6A810) select id, name, uPasswordHashHexa, uData, isPending, trustedIP from UBA_USER where name=? and disabled=0
20180320 18043205  1  -    			00.002.313
20180320 18043205  1  -    		00.002.388
20180320 18043205  1 debug 		Query result for entity "uba_user" into data name "": row count=1
20180320 18043205  1  -    	00.002.420
20180320 18043205  1  +    	ubApp.TubDataStore(17320F78).Init
20180320 18043205  1  +    		ubApp.TubApp(02AB3EE0).DBExecute
20180320 18043205  1  +    			ubApp.TubApp(02AB3EE0).TubApp.InternalDBExecute
20180320 18043205  1 debug 				P1: Int64		10
20180320 18043205  1 SQL   				ubDBSQLite3ThreadSafe.TubSQLite3Statement(1727D210) SELECT lastPasswordChangeDate FROM uba_user WHERE id=?
20180320 18043205  1  -    			00.000.033
20180320 18043205  1  -    		00.000.066
20180320 18043205  1 debug 		Query result for entity "uba_user" into data name "__expireDate": row count=1
20180320 18043205  1  -    	00.000.084
20180320 18043205  1  +    	ubApp.TubDataStore(20DE6A10).Init
20180320 18043205  1  +    		ubApp.TubApp(02AB3EE0).DBExecute
20180320 18043205  1  +    			ubApp.TubApp(02AB3EE0).TubApp.InternalDBExecute
20180320 18043205  1 debug 				P1: Int64		10
20180320 18043205  1 SQL   				ubDBSQLite3ThreadSafe.TubSQLite3Statement(1727D2D0) SELECT A01.roleID,A02.name,A02.description  FROM uba_userrole A01  INNER JOIN uba_role A02 ON A02.ID=A01.roleID  WHERE A01.userID=?
20180320 18043205  1  -    			00.000.048
20180320 18043205  1  -    		00.000.086
20180320 18043205  1 debug 		Query result for entity "uba_userrole" into data name "": row count=1
20180320 18043205  1  -    	00.000.096
20180320 18043205  1 auth  	New session admin/4605664 created at 127.0.0.1/-144115169285373934 using Mozilla/5.0 (Windows NT 6.3; Win64; x64) AppleWebKit/537.36 (KHTML, like Gecko) Chrome/64.0.3282.186 Safari/537.36 OPR/51.0.2830.55
20180320 18043205  1  +    	ubMixinClasses.TubStorageMixin(02B042C0).MixinMethod
20180320 18043205  1 debug 		uba_user.select(TubStorageMixin)
20180320 18043205  1  +    		ubApp.TubDataStore(20DE6A10).Init
20180320 18043205  1  +    			ubApp.TubApp(02AB3EE0).DBExecute
20180320 18043205  1  +    				ubApp.TubApp(02AB3EE0).TubApp.InternalDBExecute
20180320 18043205  1 debug 					P1: Int64		10
20180320 18043205  1 SQL   					ubDBSQLite3ThreadSafe.TubSQLite3Statement(1727D3F0) SELECT A01.name  FROM uba_user A01  WHERE A01.ID=?
20180320 18043205  1  -    				00.000.030
20180320 18043205  1  -    			00.000.053
20180320 18043205  1 debug 			Query result for entity "uba_user" into data name "": row count=1
20180320 18043205  1  -    		00.000.062
20180320 18043205  1  -    	00.000.120
20180320 18043205  1  +    	ubMixinClasses.TubStorageMixin(02B042C0).MixinMethod
20180320 18043205  1 debug 		uba_advSecurity.select(TubStorageMixin)
20180320 18043205  1  +    		ubApp.TubDataStore(20DE6A10).Init
20180320 18043205  1  +    			ubApp.TubApp(02AB3EE0).DBExecute
20180320 18043205  1  +    				ubApp.TubApp(02AB3EE0).TubApp.InternalDBExecute
20180320 18043205  1 debug 					P1: Int64		10
20180320 18043205  1 SQL   					ubDBSQLite3ThreadSafe.TubSQLite3Statement(1727D450) SELECT A01.ID,A01.allowedIP,A01.refreshIP,A01.fp,A01.refreshFp,A01.keyMediaName,A01.refreshKeyMedia,A01.mi_modifyDate  FROM uba_advSecurity A01  WHERE A01.userID=?
20180320 18043205  1  -    				00.000.045
20180320 18043205  1  -    			00.000.075
20180320 18043205  1 debug 			Query result for entity "uba_advSecurity" into data name "": row count=0
20180320 18043205  1  -    		00.000.085
20180320 18043205  1  -    	00.000.182
20180320 18043205  1  +    	ubMixinClasses.TubStorageMixin(02B042C0).MixinMethod
20180320 18043205  1 debug 		uba_userrole.select(TubStorageMixin)
20180320 18043205  1  +    		ubApp.TubDataStore(20DE6A10).Init
20180320 18043205  1  +    			ubApp.TubApp(02AB3EE0).DBExecute
20180320 18043205  1  +    				ubApp.TubApp(02AB3EE0).TubApp.InternalDBExecute
20180320 18043205  1 debug 					P1: Int64		10
20180320 18043205  1 SQL   					ubDBSQLite3ThreadSafe.TubSQLite3Statement(1727D4B0) SELECT A01.ID,A02.name,A01.roleID  FROM uba_userrole A01  INNER JOIN uba_role A02 ON A02.ID=A01.roleID  WHERE A01.userID=?
20180320 18043205  1  -    				00.000.047
20180320 18043205  1  -    			00.000.088
20180320 18043205  1 debug 			Query result for entity "uba_userrole" into data name "": row count=1
20180320 18043205  1  -    		00.000.096
20180320 18043205  1  -    	00.000.161
20180320 18043205  1  +    	ubMixinClasses.TubStorageMixin(02B042C0).MixinMethod
20180320 18043205  1 debug 		uba_audit.beforeinsert(TubStorageMixin)
20180320 18043205  1  -    	00.000.005
20180320 18043205  1  +    	ubMixinClasses.TubStorageMixin(02B042C0).MixinMethod
20180320 18043205  1 debug 		uba_audit.insert(TubStorageMixin)
20180320 18043205  1  +    		ubApp.TubDataStore(04B9CB70).TubDataStore.ExecuteInsertFromList
20180320 18043205  1  +    			ubApp.TubDataStore(04B9CB70).TubDataStore.ExecuteInsertFromSQL
20180320 18043205  1  +    				ubApp.TubApp(02AB3EE0).DBExecute
20180320 18043205  1  +    					ubApp.TubApp(02AB3EE0).TubApp.InternalDBExecute
20180320 18043205  1 debug 						P1: String(8)	uba_user
20180320 18043205  1 debug 						P2: Int64		10
20180320 18043205  1 debug 						P3: String(5)	LOGIN
20180320 18043205  1 debug 						P4: Int64		10
20180320 18043205  1 debug 						P5: DateTime	2018-03-20T18:04:32
20180320 18043205  1 debug 						P6: String(9)	127.0.0.1
20180320 18043205  1 debug 						P7: String(5)	admin
20180320 18043205  1 debug 						P8: Int64		335498329554945
20180320 18043205  1 debug 						P9: String(407..)	Connection: keep-alive  Content-Length: 0  Accept: application/json, text/plain, */*  Accept-Encodin...
20180320 18043205  1 DB    						StartTransaction for connection "main"
20180320 18043205  1 SQL   						ubDBSQLite3ThreadSafe.TubSQLite3Statement(1727D570) INSERT INTO uba_audit (entity,entityinfo_id,actionType,actionUser,actionTime,remoteIP,targetUser,ID,fromValue) VALUES (?,?,?,?,?,?,?,?,?)
20180320 18043205  1  -    					00.000.112
20180320 18043205  1  -    				00.000.114
20180320 18043205  1  -    			00.000.196
20180320 18043205  1  -    		00.000.208
20180320 18043205  1  -    	00.000.212
20180320 18043205  1  +    	ubMixinClasses.TubStorageMixin(02B042C0).MixinMethod
20180320 18043205  1 debug 		uba_audit.afterinsert(TubStorageMixin)
20180320 18043205  1  -    	00.000.004
20180320 18043205  1 DB    	Commit connection "main"
20180320 18043205  1 http  	127.0.0.1 <- 200
20180320 18043205  1  -    00.007.598
20180320 18043207  $  +    getDomainInfo?userName=admin&v=4
20180320 18043207  $ http  	127.0.0.1 -> GET getDomainInfo?userName=admin&v=4
20180320 18043207  $ auth  	admin/4605664
20180320 18043207  $ call  	endpoint getDomainInfo
20180320 18043207  $ http  	127.0.0.1 <- 304
20180320 18043207  $  -    00.002.294
20180320 18043208  ,  +    models/UBA/locale/lang-en.js?ubver=77650b6a42c37186bfb44af18a505e71
20180320 18043208  #  +    models/UB/locale/lang-en.js?ubver=16b0a19c938f48c16b56a05da80f0dc2
20180320 18043208  '  +    models/UBS/locale/lang-en.js?ubver=16f6cb04f3b2b6a19844744bc20cc653
20180320 18043208  , http  	127.0.0.1 -> GET models/UBA/locale/lang-en.js?ubver=77650b6a42c37186bfb44af18a505e71
20180320 18043208  # http  	127.0.0.1 -> GET models/UB/locale/lang-en.js?ubver=16b0a19c938f48c16b56a05da80f0dc2
20180320 18043208  ' http  	127.0.0.1 -> GET models/UBS/locale/lang-en.js?ubver=16f6cb04f3b2b6a19844744bc20cc653
20180320 18043208  )  +    models/UBM/locale/lang-en.js?ubver=5d30adb331eaa71d9412558d2ace2271
20180320 18043208  ) http  	127.0.0.1 -> GET models/UBM/locale/lang-en.js?ubver=5d30adb331eaa71d9412558d2ace2271
20180320 18043208  # call  	endpoint models
20180320 18043208  , call  	endpoint models
20180320 18043208  ' call  	endpoint models
20180320 18043208  ) call  	endpoint models
20180320 18043208  # http  	127.0.0.1 <- 200
20180320 18043208  ) http  	127.0.0.1 <- 200
20180320 18043208  #  -    00.000.264
20180320 18043208  )  -    00.000.255
20180320 18043208  ' http  	127.0.0.1 <- 200
20180320 18043208  '  -    00.000.291
20180320 18043208  , http  	127.0.0.1 <- 200
20180320 18043208  ,  -    00.001.403
20180320 18043209  *  +    clientRequire/@unitybase/ubs/package.json
20180320 18043209  * http  	127.0.0.1 -> GET clientRequire/@unitybase/ubs/package.json
20180320 18043209  * call  	endpoint clientRequire
20180320 18043209  * info  	Call clientRequire 
20180320 18043209  * http  	127.0.0.1 <- 200
20180320 18043209  *  -    00.001.001
20180320 18043209  +  +    clientRequire/@unitybase/ubs/public/initModel.js
20180320 18043209  + http  	127.0.0.1 -> GET clientRequire/@unitybase/ubs/public/initModel.js
20180320 18043209  + call  	endpoint clientRequire
20180320 18043209  + info  	Call clientRequire 
20180320 18043209  + http  	127.0.0.1 <- 200
20180320 18043209  +  -    00.000.238
20180320 18043209  (  +    clientRequire/@unitybase/ubs/public/dist/ubs.main.min.js?ubver=2018-03-20T20:03:34
20180320 18043209  ( http  	127.0.0.1 -> GET clientRequire/@unitybase/ubs/public/dist/ubs.main.min.js?ubver=2018-03-20T20:03:34
20180320 18043209  ( call  	endpoint clientRequire
20180320 18043209  ( info  	Call clientRequire 
20180320 18043209  ( http  	127.0.0.1 <- 200
20180320 18043209  (  -    00.000.251
20180320 18043209  -  +    clientRequire/@unitybase/ubm/package.json
20180320 18043209  - http  	127.0.0.1 -> GET clientRequire/@unitybase/ubm/package.json
20180320 18043209  - call  	endpoint clientRequire
20180320 18043209  - info  	Call clientRequire 
20180320 18043209  - http  	127.0.0.1 <- 200
20180320 18043209  -  -    00.000.224
20180320 18043210  /  +    clientRequire/@unitybase/ubm/public/initModel.js
20180320 18043210  / http  	127.0.0.1 -> GET clientRequire/@unitybase/ubm/public/initModel.js
20180320 18043210  / call  	endpoint clientRequire
20180320 18043210  / info  	Call clientRequire 
20180320 18043210  / http  	127.0.0.1 <- 200
20180320 18043210  /  -    00.000.323
20180320 18043211  "  +    ubql
20180320 18043211  " http  	127.0.0.1 -> POST ubql
20180320 18043211  " http  	[{"entity":"ubs_settings","method":"select","fieldList":["ID","settingKey","name","description","type","settingValue","defaultValue"],"version":"1519981756"},{"entity":"ubm_desktop","method":"select","fieldList":["ID","caption","code","url","isDefault","mi_owner","mi_createDate","mi_createUser","mi_modifyDate","mi_modifyUser","mi_deleteDate","mi_deleteUser"],"version":"-1"},{"entity":"ubm_form","method":"select","fieldList":["ID","code","description","caption","formType","formDef","formCode","model","entity","isDefault","mi_owner","mi_createDate","mi_createUser","mi_modifyDate","mi_modifyUser"],"version":2613330792},{"entity":"ubm_enum","method":"select","fieldList":["ID","eGroup","code","shortName","name","sortOrder","mi_owner","mi_createDate","mi_createUser","mi_modifyDate","mi_modifyUser","mi_deleteDate","mi_deleteUser"],"version":"1519981756"}]
20180320 18043211  " auth  	admin/4605664
20180320 18043211  " call  	endpoint ubql
20180320 18043211  "  +    	ubMixinClasses.TubStorageMixin(02B042C0).MixinMethod
20180320 18043211  " debug 		ubs_settings.select(TubStorageMixin)
20180320 18043211  "  +    		ubApp.TubDataStore(20DE6C90).Init
20180320 18043211  "  +    			ubApp.TubApp(02AB3EE0).DBExecute
20180320 18043211  "  +    				ubApp.TubApp(02AB3EE0).TubApp.InternalDBExecute
20180320 18043211  " SQL   					ubDBSQLite3ThreadSafe.TubSQLite3Statement(1727D690) SELECT ( (SELECT COALESCE(strftime('%s',  MAX(mi_modifyDate)),1) FROM ubs_settings) ) AS dataVersion
20180320 18043211  "  -    				00.000.075
20180320 18043211  "  -    			00.000.161
20180320 18043211  " debug 			Query result for entity "ubs_settings" into data name "": row count=1
20180320 18043211  "  -    		00.000.190
20180320 18043211  "  -    	00.000.289
20180320 18043211  "  +    	ubMixinClasses.TubRLSMixin(02B04E20).MixinMethod
20180320 18043211  " debug 		ubm_desktop.select(TubRLSMixin)
20180320 18043211  " debug 		Prepare RLS expression for ubm_desktop
20180320 18043211  "  +    		ubApp.TubDataStore(20DE6F88).Init
20180320 18043211  "  +    			ubApp.TubApp(02AB3EE0).DBExecute
20180320 18043211  "  +    				ubApp.TubApp(02AB3EE0).TubApp.InternalDBExecute
20180320 18043211  " SQL   					ubDBSQLite3ThreadSafe.TubSQLite3Statement(1727C910) select ID, name FROM uba_role
20180320 18043211  "  -    				00.000.027
20180320 18043211  "  -    			00.000.062
20180320 18043211  " debug 			Query result for entity "uba_role" into data name "": row count=7
20180320 18043211  "  -    		00.000.069
20180320 18043211  "  -    	00.000.993
20180320 18043211  "  +    	ubMixinClasses.TubStorageMixin(02B042C0).MixinMethod
20180320 18043211  " debug 		ubm_desktop.select(TubStorageMixin)
20180320 18043211  "  +    		ubApp.TubDataStore(20DE6A88).Init
20180320 18043211  "  +    			ubApp.TubApp(02AB3EE0).DBExecute
20180320 18043211  "  +    				ubApp.TubApp(02AB3EE0).TubApp.InternalDBExecute
20180320 18043211  " debug 					P1: Int64		10
20180320 18043211  " debug 					P2: Int64		10
20180320 18043211  " debug 					P3: DateTime	9999-12-31T00:00:00
20180320 18043211  " SQL   					ubDBSQLite3ThreadSafe.TubSQLite3Statement(1727D7B0) SELECT A01.ID,A01.caption,A01.code,A01.url,A01.isDefault,A01.mi_owner,A01.mi_createDate,A01.mi_createUser,A01.mi_modifyDate,A01.mi_modifyUser,A01.mi_deleteDate,A01.mi_deleteUser  FROM ubm_desktop A01  WHERE (( A01.mi_owner = ? ) OR (1=1) OR exists (select 1 from ubm_desktop_adm admsubtable where admsubtable.instanceID = A01.ID and admsubtable.admSubjID in (select ur.RoleID from uba_userrole ur where ur.UserID = ? union select 10))) AND A01.mi_deleteDate=?
20180320 18043211  "  -    				00.000.117
20180320 18043211  "  -    			00.000.154
20180320 18043211  " debug 			Query result for entity "ubm_desktop" into data name "": row count=2
20180320 18043211  "  -    		00.000.169
20180320 18043211  "  -    	00.000.323
20180320 18043213  "  +    	ubMixinClasses.TubStorageMixin(02B042C0).MixinMethod
20180320 18043213  " debug 		ubm_enum.select(TubStorageMixin)
20180320 18043213  "  +    		ubApp.TubDataStore(20DE72D0).Init
20180320 18043213  "  +    			ubApp.TubApp(02AB3EE0).DBExecute
20180320 18043213  "  +    				ubApp.TubApp(02AB3EE0).TubApp.InternalDBExecute
20180320 18043213  " SQL   					ubDBSQLite3ThreadSafe.TubSQLite3Statement(1727D870) SELECT ( (SELECT COALESCE(strftime('%s',  MAX(mi_modifyDate)),1) FROM ubm_enum) ) AS dataVersion
20180320 18043213  "  -    				00.000.071
20180320 18043213  "  -    			00.000.138
20180320 18043213  " debug 			Query result for entity "ubm_enum" into data name "": row count=1
20180320 18043213  "  -    		00.000.148
20180320 18043213  "  -    	00.000.290
20180320 18043213  " http  	127.0.0.1 <- 200
20180320 18043213  "  -    00.026.383
20180320 18043217  .  +    ubql
20180320 18043217  . http  	127.0.0.1 -> POST ubql
20180320 18043217  . http  	[{"entity":"ubm_navshortcut","method":"select","fieldList":["ID","desktopID","parentID","code","isFolder","caption","inWindow","isCollapsed","displayOrder","iconCls","mi_modifyDate"],"orderList":{"0":{"expression":"desktopID","order":"asc"},"1":{"expression":"parentID","order":"asc"},"2":{"expression":"displayOrder","order":"asc"},"3":{"expression":"caption","order":"asc"}}}]
20180320 18043217  . auth  	admin/4605664
20180320 18043217  . call  	endpoint ubql
20180320 18043217  .  +    	ubMixinClasses.TubRLSMixin(02B04E20).MixinMethod
20180320 18043217  . debug 		ubm_navshortcut.select(TubRLSMixin)
20180320 18043217  . debug 		Prepare RLS expression for ubm_navshortcut
20180320 18043217  .  +    		ubApp.TubDataStore(20DE6A38).Init
20180320 18043217  .  +    			ubApp.TubApp(02AB3EE0).DBExecute
20180320 18043217  .  +    				ubApp.TubApp(02AB3EE0).TubApp.InternalDBExecute
20180320 18043217  .  +    					00856EC2 
20180320 18043217  .  -    					00.001.897
20180320 18043217  . SQL   					ubDBSQLite3ThreadSafe.TubSQLite3Statement(1727DD50) PRAGMA foreign_keys = ON
20180320 18043217  . SQL   					ubDBSQLite3ThreadSafe.TubSQLite3Statement(02B6B950) select ID, name FROM uba_role
20180320 18043217  .  -    				00.001.929
20180320 18043217  .  -    			00.001.961
20180320 18043217  . debug 			Query result for entity "uba_role" into data name "": row count=7
20180320 18043217  .  -    		00.002.001
20180320 18043217  .  -    	00.002.942
20180320 18043217  .  +    	ubMixinClasses.TubStorageMixin(02B042C0).MixinMethod
20180320 18043217  . debug 		ubm_navshortcut.select(TubStorageMixin)
20180320 18043217  .  +    		ubApp.TubDataStore(20DE6D08).Init
20180320 18043217  .  +    			ubApp.TubApp(02AB3EE0).DBExecute
20180320 18043217  .  +    				ubApp.TubApp(02AB3EE0).TubApp.InternalDBExecute
20180320 18043217  . debug 					P1: Int64		10
20180320 18043217  . debug 					P2: Int64		10
20180320 18043217  . debug 					P3: DateTime	9999-12-31T00:00:00
20180320 18043217  . SQL   					ubDBSQLite3ThreadSafe.TubSQLite3Statement(1727DE10) SELECT A01.ID,A01.desktopID,A01.parentID,A01.code,A01.isFolder,A01.caption,A01.inWindow,A01.isCollapsed,A01.displayOrder,A01.iconCls,A01.mi_modifyDate  FROM ubm_navshortcut A01  WHERE (( A01.mi_owner = ? ) OR               (1=1) OR                             exists (select 1 from ubm_navshortcut_adm admsubtable where admsubtable.instanceID = A01.ID and admsubtable.admSubjID in (select ur.RoleID from uba_userrole ur where ur.UserID = ? union select 10))) AND A01.mi_deleteDate=? ORDER BY 2 ASC,3 ASC,9 ASC,6 ... (truncated) length=515
20180320 18043217  .  -    				00.000.118
20180320 18043217  .  -    			00.000.313
20180320 18043217  . debug 			Query result for entity "ubm_navshortcut" into data name "": row count=33
20180320 18043217  .  -    		00.000.343
20180320 18043217  .  -    	00.000.518
20180320 18043217  . http  	127.0.0.1 <- 200
20180320 18043217  .  -    00.003.890
20180320 18043222  0  +    models/adminui-pub/themes/UBGrayTheme/images/toolbar/more.png
20180320 18043222  0 http  	127.0.0.1 -> GET models/adminui-pub/themes/UBGrayTheme/images/toolbar/more.png
20180320 18043222  0 call  	endpoint models
20180320 18043222  0 http  	127.0.0.1 <- 200
20180320 18043222  0  -    00.000.264
20180320 18043222  %  +    models/adminui-pub/themes/UBGrayTheme/images/grid/hd-pop.png
20180320 18043222  % http  	127.0.0.1 -> GET models/adminui-pub/themes/UBGrayTheme/images/grid/hd-pop.png
20180320 18043222  &  +    models/adminui-pub/themes/UBGrayTheme/images/button/default-toolbar-small-arrow.png
20180320 18043222  & http  	127.0.0.1 -> GET models/adminui-pub/themes/UBGrayTheme/images/button/default-toolbar-small-arrow.png
20180320 18043222  % call  	endpoint models
20180320 18043222  & call  	endpoint models
20180320 18043222  % http  	127.0.0.1 <- 200
20180320 18043222  %  -    00.000.235
20180320 18043222  & http  	127.0.0.1 <- 200
20180320 18043222  &  -    00.000.238
20180320 18043409  #  +    models/adminui-pub/themes/UBGrayTheme/images/menu/scroll-bottom.png
20180320 18043409  1  +    models/adminui-pub/themes/UBGrayTheme/images/menu/scroll-top.png
20180320 18043409  $  +    models/adminui-pub/themes/UBGrayTheme/images/menu/menu-parent.png
20180320 18043409  # http  	127.0.0.1 -> GET models/adminui-pub/themes/UBGrayTheme/images/menu/scroll-bottom.png
20180320 18043409  $ http  	127.0.0.1 -> GET models/adminui-pub/themes/UBGrayTheme/images/menu/menu-parent.png
20180320 18043409  1 http  	127.0.0.1 -> GET models/adminui-pub/themes/UBGrayTheme/images/menu/scroll-top.png
20180320 18043409  1 call  	endpoint models
20180320 18043409  $ call  	endpoint models
20180320 18043409  # call  	endpoint models
20180320 18043409  1 http  	127.0.0.1 <- 200
20180320 18043409  # http  	127.0.0.1 <- 200
20180320 18043409  1  -    00.000.273
20180320 18043409  #  -    00.000.334
20180320 18043409  $ http  	127.0.0.1 <- 200
20180320 18043409  $  -    00.001.484
20180320 18044543  )  +    ubql
20180320 18044543  ) http  	127.0.0.1 -> POST ubql
20180320 18044543  ) http  	[{"entity":"ubm_navshortcut","method":"select","fieldList":["ID","cmdCode"],"whereList":{"c1":{"expression":"[ID]","condition":"equal","values":{"c1":335295153209345}}}}]
20180320 18044543  ) auth  	admin/4605664
20180320 18044543  ) call  	endpoint ubql
20180320 18044543  )  +    	ubMixinClasses.TubRLSMixin(02B04E20).MixinMethod
20180320 18044543  ) debug 		ubm_navshortcut.select(TubRLSMixin)
20180320 18044543  ) debug 		Prepare RLS expression for ubm_navshortcut
20180320 18044543  )  -    	00.000.221
20180320 18044543  )  +    	ubMixinClasses.TubStorageMixin(02B042C0).MixinMethod
20180320 18044543  ) debug 		ubm_navshortcut.select(TubStorageMixin)
20180320 18044543  )  +    		ubApp.TubDataStore(20DE6DF8).Init
20180320 18044543  )  +    			ubApp.TubApp(02AB3EE0).DBExecute
20180320 18044543  )  +    				ubApp.TubApp(02AB3EE0).TubApp.InternalDBExecute
20180320 18044543  ) debug 					P1: Int64		335295153209345
20180320 18044543  ) debug 					P2: Int64		10
20180320 18044543  ) debug 					P3: Int64		10
20180320 18044543  ) debug 					P4: DateTime	9999-12-31T00:00:00
20180320 18044543  ) SQL   					ubDBSQLite3ThreadSafe.TubSQLite3Statement(1727DFF0) SELECT A01.ID,A01.cmdCode  FROM ubm_navshortcut A01  WHERE A01.ID=? AND (( A01.mi_owner = ? ) OR               (1=1) OR                             exists (select 1 from ubm_navshortcut_adm admsubtable where admsubtable.instanceID = A01.ID and admsubtable.admSubjID in (select ur.RoleID from uba_userrole ur where ur.UserID = ? union select 10))) AND A01.mi_deleteDate=?
20180320 18044543  )  -    				00.000.130
20180320 18044543  )  -    			00.000.241
20180320 18044543  ) debug 			Query result for entity "ubm_navshortcut" into data name "": row count=1
20180320 18044543  )  -    		00.000.259
20180320 18044543  )  -    	00.000.392
20180320 18044543  ) http  	127.0.0.1 <- 200
20180320 18044543  )  -    00.000.995
20180320 18044547  '  +    models/adminui-pub/themes/UBGrayTheme/images/tab/tab-default-close-dark.png
20180320 18044547  ' http  	127.0.0.1 -> GET models/adminui-pub/themes/UBGrayTheme/images/tab/tab-default-close-dark.png
20180320 18044547  ' call  	endpoint models
20180320 18044547  ' http  	127.0.0.1 <- 200
20180320 18044547  '  -    00.000.344
20180320 18044550  ,  +    models/adminui-pub/themes/UBGrayTheme/images/loadmask/loading.gif
20180320 18044550  , http  	127.0.0.1 -> GET models/adminui-pub/themes/UBGrayTheme/images/loadmask/loading.gif
20180320 18044550  , call  	endpoint models
20180320 18044550  , http  	127.0.0.1 <- 200
20180320 18044550  ,  -    00.000.307
20180320 18044551  *  +    models/adminui-pub/themes/UBGrayTheme/images/form/trigger.png
20180320 18044551  * http  	127.0.0.1 -> GET models/adminui-pub/themes/UBGrayTheme/images/form/trigger.png
20180320 18044551  * call  	endpoint models
20180320 18044551  * http  	127.0.0.1 <- 200
20180320 18044551  *  -    00.000.343
20180320 18044552  (  +    models/adminui-pub/themes/UBGrayTheme/images/grid/page-next.png
20180320 18044552  +  +    models/adminui-pub/themes/UBGrayTheme/images/grid/page-prev.png
20180320 18044552  -  +    models/adminui-pub/themes/UBGrayTheme/ubimages/sum.png
20180320 18044552  ( http  	127.0.0.1 -> GET models/adminui-pub/themes/UBGrayTheme/images/grid/page-next.png
20180320 18044552  + http  	127.0.0.1 -> GET models/adminui-pub/themes/UBGrayTheme/images/grid/page-prev.png
20180320 18044552  - http  	127.0.0.1 -> GET models/adminui-pub/themes/UBGrayTheme/ubimages/sum.png
20180320 18044552  + call  	endpoint models
20180320 18044552  ( call  	endpoint models
20180320 18044552  - call  	endpoint models
20180320 18044552  + http  	127.0.0.1 <- 200
20180320 18044552  ( http  	127.0.0.1 <- 200
20180320 18044552  +  -    00.000.285
20180320 18044552  (  -    00.000.289
20180320 18044552  - http  	127.0.0.1 <- 200
20180320 18044552  -  -    00.000.314
20180320 18044554  /  +    ubql
20180320 18044554  / http  	127.0.0.1 -> POST ubql
20180320 18044554  / http  	[{"entity":"ubm_navshortcut","method":"select","fieldList":["desktopID","code","isFolder","caption","cmdCode","inWindow","isCollapsed","displayOrder","iconCls","ID","mi_modifyDate"],"options":{"limit":100,"start":0}}]
20180320 18044554  / auth  	admin/4605664
20180320 18044554  / call  	endpoint ubql
20180320 18044554  /  +    	ubMixinClasses.TubRLSMixin(02B04E20).MixinMethod
20180320 18044554  / debug 		ubm_navshortcut.select(TubRLSMixin)
20180320 18044554  / debug 		Prepare RLS expression for ubm_navshortcut
20180320 18044554  /  -    	00.000.529
20180320 18044554  /  +    	ubMixinClasses.TubStorageMixin(02B042C0).MixinMethod
20180320 18044554  / debug 		ubm_navshortcut.select(TubStorageMixin)
20180320 18044554  /  +    		ubApp.TubDataStore(20DE6D30).Init
20180320 18044554  /  +    			ubApp.TubApp(02AB3EE0).DBExecute
20180320 18044554  /  +    				ubApp.TubApp(02AB3EE0).TubApp.InternalDBExecute
20180320 18044554  / debug 					P1: Int64		10
20180320 18044554  / debug 					P2: Int64		10
20180320 18044554  / debug 					P3: DateTime	9999-12-31T00:00:00
20180320 18044554  / SQL   					ubDBSQLite3ThreadSafe.TubSQLite3Statement(1727DF30) SELECT A01.desktopID,A01.code,A01.isFolder,A01.caption,A01.cmdCode,A01.inWindow,A01.isCollapsed,A01.displayOrder,A01.iconCls,A01.ID,A01.mi_modifyDate  FROM ubm_navshortcut A01  WHERE (( A01.mi_owner = ? ) OR               (1=1) OR                             exists (select 1 from ubm_navshortcut_adm admsubtable where admsubtable.instanceID = A01.ID and admsubtable.admSubjID in (select ur.RoleID from uba_userrole ur where ur.UserID = ? union select 10))) AND A01.mi_deleteDate=? LIMIT 100 OFFSET 0 
20180320 18044554  /  -    				00.000.189
20180320 18044554  /  -    			00.000.396
20180320 18044554  / debug 			Query result for entity "ubm_navshortcut" into data name "": row count=33
20180320 18044554  /  -    		00.000.451
20180320 18044554  /  -    	00.000.667
20180320 18044554  / http  	127.0.0.1 <- 200
20180320 18044554  /  -    00.001.710
20180320 18044602  "  +    ubql
20180320 18044602  " http  	127.0.0.1 -> POST ubql
20180320 18044602  " http  	[{"entity":"ubm_desktop","method":"select","fieldList":["ID","caption","mi_modifyDate"],"version":"-1"}]
20180320 18044602  " auth  	admin/4605664
20180320 18044602  " call  	endpoint ubql
20180320 18044602  "  +    	ubMixinClasses.TubRLSMixin(02B04E20).MixinMethod
20180320 18044602  " debug 		ubm_desktop.select(TubRLSMixin)
20180320 18044602  " debug 		Prepare RLS expression for ubm_desktop
20180320 18044602  "  -    	00.000.204
20180320 18044602  "  +    	ubMixinClasses.TubStorageMixin(02B042C0).MixinMethod
20180320 18044602  " debug 		ubm_desktop.select(TubStorageMixin)
20180320 18044602  "  +    		ubApp.TubDataStore(20DE6D30).Init
20180320 18044602  "  +    			ubApp.TubApp(02AB3EE0).DBExecute
20180320 18044602  "  +    				ubApp.TubApp(02AB3EE0).TubApp.InternalDBExecute
20180320 18044602  " debug 					P1: Int64		10
20180320 18044602  " debug 					P2: Int64		10
20180320 18044602  " debug 					P3: DateTime	9999-12-31T00:00:00
20180320 18044602  " SQL   					ubDBSQLite3ThreadSafe.TubSQLite3Statement(1727E110) SELECT A01.ID,A01.caption,A01.mi_modifyDate  FROM ubm_desktop A01  WHERE (( A01.mi_owner = ? ) OR (1=1) OR exists (select 1 from ubm_desktop_adm admsubtable where admsubtable.instanceID = A01.ID and admsubtable.admSubjID in (select ur.RoleID from uba_userrole ur where ur.UserID = ? union select 10))) AND A01.mi_deleteDate=?
20180320 18044602  "  -    				00.000.127
20180320 18044602  "  -    			00.000.176
20180320 18044602  " debug 			Query result for entity "ubm_desktop" into data name "": row count=2
20180320 18044602  "  -    		00.000.192
20180320 18044602  "  -    	00.000.315
20180320 18044602  " http  	127.0.0.1 <- 200
20180320 18044602  "  -    00.000.818
20180320 18044850  0  +    models/adminui-pub/themes/UBGrayTheme/images/shared/icon-question.png
20180320 18044850  .  +    models/adminui-pub/themes/UBGrayTheme/images/tools/tool-sprites.png
20180320 18044850  0 http  	127.0.0.1 -> GET models/adminui-pub/themes/UBGrayTheme/images/shared/icon-question.png
20180320 18044850  . http  	127.0.0.1 -> GET models/adminui-pub/themes/UBGrayTheme/images/tools/tool-sprites.png
20180320 18044850  0 call  	endpoint models
20180320 18044850  . call  	endpoint models
20180320 18044850  . http  	127.0.0.1 <- 200
20180320 18044850  .  -    00.000.558
20180320 18044850  0 http  	127.0.0.1 <- 200
20180320 18044850  0  -    00.000.938
20180320 18045113  &  +    models/adminui-pub/themes/UBGrayTheme/ubimages/globe.svg
20180320 18045113  & http  	127.0.0.1 -> GET models/adminui-pub/themes/UBGrayTheme/ubimages/globe.svg
20180320 18045113  & call  	endpoint models
20180320 18045113  & http  	127.0.0.1 <- 200
20180320 18045113  &  -    00.000.340
20180320 18045113  %  +    models/adminui-pub/themes/UBGrayTheme/images/form/checkbox.png
20180320 18045113  % http  	127.0.0.1 -> GET models/adminui-pub/themes/UBGrayTheme/images/form/checkbox.png
20180320 18045113  % call  	endpoint models
20180320 18045113  % http  	127.0.0.1 <- 200
20180320 18045113  %  -    00.000.228
20180320 18045114  1  +    clientRequire/@unitybase/adminui-pub/dist/adminui.4.min.js
20180320 18045114  1 http  	127.0.0.1 -> GET clientRequire/@unitybase/adminui-pub/dist/adminui.4.min.js
20180320 18045114  1 call  	endpoint clientRequire
20180320 18045114  1 info  	Call clientRequire 
20180320 18045114  1 http  	127.0.0.1 <- 200
20180320 18045114  1  -    00.000.323
20180320 18045119  #  +    ubql
20180320 18045119  # http  	127.0.0.1 -> POST ubql
20180320 18045119  # http  	[{"entity":"ubm_navshortcut","fieldList":["ID","desktopID","parentID","caption","code","iconCls","isFolder","inWindow","isCollapsed","displayOrder","cmdCode","mi_modifyDate","mi_treePath"],"ID":335295255347201,"alsNeed":false,"method":"select"}]
20180320 18045119  # auth  	admin/4605664
20180320 18045119  # call  	endpoint ubql
20180320 18045119  #  +    	ubMixinClasses.TubRLSMixin(02B04E20).MixinMethod
20180320 18045119  # debug 		ubm_navshortcut.select(TubRLSMixin)
20180320 18045119  # debug 		Prepare RLS expression for ubm_navshortcut
20180320 18045119  #  +    		ubApp.TubDataStore(20DE8C70).Init
20180320 18045119  #  +    			ubApp.TubApp(02AB3EE0).DBExecute
20180320 18045119  #  +    				ubApp.TubApp(02AB3EE0).TubApp.InternalDBExecute
20180320 18045119  # SQL   					ubDBSQLite3ThreadSafe.TubSQLite3Statement(1727DED0) select ID, name FROM uba_role
20180320 18045119  #  -    				00.000.084
20180320 18045119  #  -    			00.000.216
20180320 18045119  # debug 			Query result for entity "uba_role" into data name "": row count=7
20180320 18045119  #  -    		00.000.233
20180320 18045119  #  -    	00.001.655
20180320 18045119  #  +    	ubMixinClasses.TubStorageMixin(02B042C0).MixinMethod
20180320 18045119  # debug 		ubm_navshortcut.select(TubStorageMixin)
20180320 18045119  #  +    		ubApp.TubDataStore(17320FA0).Init
20180320 18045119  #  +    			ubApp.TubApp(02AB3EE0).DBExecute
20180320 18045119  #  +    				ubApp.TubApp(02AB3EE0).TubApp.InternalDBExecute
20180320 18045119  # debug 					P1: Int64		10
20180320 18045119  # debug 					P2: Int64		10
20180320 18045119  # debug 					P3: Int64		335295255347201
20180320 18045119  # debug 					P4: DateTime	9999-12-31T00:00:00
20180320 18045119  # SQL   					ubDBSQLite3ThreadSafe.TubSQLite3Statement(1727E170) SELECT A01.ID,A01.desktopID,A01.parentID,A01.caption,A01.code,A01.iconCls,A01.isFolder,A01.inWindow,A01.isCollapsed,A01.displayOrder,A01.cmdCode,A01.mi_modifyDate,A01.mi_treePath  FROM ubm_navshortcut A01  WHERE (( A01.mi_owner = ? ) OR               (1=1) OR                             exists (select 1 from ubm_navshortcut_adm admsubtable where admsubtable.instanceID = A01.ID and admsubtable.admSubjID in (select ur.RoleID from uba_userrole ur where ur.UserID = ? union select 10))) AND A01.ID=? AND A01.mi_d... (truncated) length=523
20180320 18045119  #  -    				00.000.157
20180320 18045119  #  -    			00.000.256
20180320 18045119  # debug 			Query result for entity "ubm_navshortcut" into data name "": row count=1
20180320 18045119  #  -    		00.000.300
20180320 18045119  #  -    	00.000.528
20180320 18045119  # http  	127.0.0.1 <- 200
20180320 18045119  #  -    00.002.735
20180320 18045122  $  +    ubql
20180320 18045122  $ http  	127.0.0.1 -> POST ubql
20180320 18045122  $ http  	[{"entity":"ubm_navshortcut","method":"select","fieldList":["ID","caption","isFolder","mi_modifyDate"],"whereList":{"x100":{"values":{"ID":335295190532097},"expression":"[ID]","condition":"equal"},"onlyFolders":{"expression":"[isFolder]","condition":"equal","values":{"isFolder":true}}},"orderList":{"_asc":{"expression":"caption","order":"asc"}},"options":{"limit":30,"start":0}}]
20180320 18045122  $ auth  	admin/4605664
20180320 18045122  $ call  	endpoint ubql
20180320 18045122  $  +    	ubMixinClasses.TubRLSMixin(02B04E20).MixinMethod
20180320 18045122  $ debug 		ubm_navshortcut.select(TubRLSMixin)
20180320 18045122  $ debug 		Prepare RLS expression for ubm_navshortcut
20180320 18045122  $  -    	00.000.619
20180320 18045122  $  +    	ubMixinClasses.TubStorageMixin(02B042C0).MixinMethod
20180320 18045122  $ debug 		ubm_navshortcut.select(TubStorageMixin)
20180320 18045122  $  +    		ubApp.TubDataStore(20DE8FB8).Init
20180320 18045122  $  +    			ubApp.TubApp(02AB3EE0).DBExecute
20180320 18045122  $  +    				ubApp.TubApp(02AB3EE0).TubApp.InternalDBExecute
20180320 18045122  $ debug 					P1: Int64		335295190532097
20180320 18045122  $ debug 					P2: Bool		1
20180320 18045122  $ debug 					P3: Int64		10
20180320 18045122  $ debug 					P4: Int64		10
20180320 18045122  $ debug 					P5: DateTime	9999-12-31T00:00:00
20180320 18045122  $ SQL   					ubDBSQLite3ThreadSafe.TubSQLite3Statement(1727E050) SELECT A01.ID,A01.caption,A01.isFolder,A01.mi_modifyDate  FROM ubm_navshortcut A01  WHERE A01.ID=? AND A01.isFolder=? AND (( A01.mi_owner = ? ) OR               (1=1) OR                             exists (select 1 from ubm_navshortcut_adm admsubtable where admsubtable.instanceID = A01.ID and admsubtable.admSubjID in (select ur.RoleID from uba_userrole ur where ur.UserID = ? union select 10))) AND A01.mi_deleteDate=? ORDER BY 2 ASC LIMIT 30 OFFSET 0 
20180320 18045122  $  -    				00.000.184
20180320 18045122  $  -    			00.000.307
20180320 18045122  $ debug 			Query result for entity "ubm_navshortcut" into data name "": row count=1
20180320 18045122  $  -    		00.000.331
20180320 18045122  $  -    	00.000.585
20180320 18045122  $ http  	127.0.0.1 <- 200
20180320 18045122  $  -    00.001.781
20180320 18045123  )  +    models/adminui-pub/themes/UBGrayTheme/images/tree/leaf.png
20180320 18045123  '  +    models/adminui-pub/themes/UBGrayTheme/images/tree/arrows.png
20180320 18045123  ,  +    models/adminui-pub/themes/UBGrayTheme/images/tree/folder.png
20180320 18045123  ) http  	127.0.0.1 -> GET models/adminui-pub/themes/UBGrayTheme/images/tree/leaf.png
20180320 18045123  ' http  	127.0.0.1 -> GET models/adminui-pub/themes/UBGrayTheme/images/tree/arrows.png
20180320 18045123  , http  	127.0.0.1 -> GET models/adminui-pub/themes/UBGrayTheme/images/tree/folder.png
20180320 18045123  ' call  	endpoint models
20180320 18045123  ) call  	endpoint models
20180320 18045123  , call  	endpoint models
20180320 18045123  ' http  	127.0.0.1 <- 200
20180320 18045123  ) http  	127.0.0.1 <- 200
20180320 18045123  '  -    00.000.299
20180320 18045123  , http  	127.0.0.1 <- 200
20180320 18045123  )  -    00.000.304
20180320 18045123  ,  -    00.000.302
20180320 18045602  *  +    ubql
20180320 18045602  * http  	127.0.0.1 -> POST ubql
20180320 18045602  * http  	[{"fieldList":["ID","desktopID","parentID","caption","code","iconCls","isFolder","inWindow","isCollapsed","displayOrder","cmdCode","mi_modifyDate","mi_treePath"],"entity":"ubm_navshortcut","method":"update","alsNeed":false,"execParams":{"iconCls":"fa fa-briefcase","ID":335295255347201,"mi_modifyDate":"2018-03-02T09:36:19.000Z"}}]
20180320 18045602  * auth  	admin/4605664
20180320 18045602  * call  	endpoint ubql
20180320 18045602  *  +    	ubMixinClasses.TubStorageMixin(02B042C0).MixinMethod
20180320 18045602  * debug 		ubm_navshortcut.beforeupdate(TubStorageMixin)
20180320 18045602  *  +    		ubMixinClasses.TubRLSMixin(02B04E20).MixinMethod
20180320 18045602  * debug 			ubm_navshortcut.select(TubRLSMixin)
20180320 18045602  * debug 			Prepare RLS expression for ubm_navshortcut
20180320 18045602  *  -    		00.000.235
20180320 18045602  *  +    		ubMixinClasses.TubStorageMixin(02B042C0).MixinMethod
20180320 18045602  * debug 			ubm_navshortcut.select(TubStorageMixin)
20180320 18045602  *  +    			ubApp.TubDataStore(20DE8D10).Init
20180320 18045602  *  +    				ubApp.TubApp(02AB3EE0).DBExecute
20180320 18045602  *  +    					ubApp.TubApp(02AB3EE0).TubApp.InternalDBExecute
20180320 18045602  * debug 						P1: Int64		10
20180320 18045602  * debug 						P2: Int64		10
20180320 18045602  * debug 						P3: Int64		335295255347201
20180320 18045602  * debug 						P4: DateTime	9999-12-31T00:00:00
20180320 18045602  * SQL   						ubDBSQLite3ThreadSafe.TubSQLite3Statement(1727DF90) SELECT A01.ID,A01.desktopID,A01.parentID,A01.code,A01.isFolder,A01.caption,A01.cmdCode,A01.inWindow,A01.isCollapsed,A01.displayOrder,A01.iconCls,A01.mi_treePath,A01.mi_owner,A01.mi_createDate,A01.mi_createUser,A01.mi_modifyDate,A01.mi_modifyUser,A01.mi_deleteDate,A01.mi_deleteUser  FROM ubm_navshortcut A01  WHERE (( A01.mi_owner = ? ) OR               (1=1) OR                             exists (select 1 from ubm_navshortcut_adm admsubtable where admsubtable.instanceID = A01.ID and admsubtable.admSubjID in ... (truncated) length=626
20180320 18045602  *  -    					00.000.174
20180320 18045602  *  -    				00.000.293
20180320 18045602  * debug 				Query result for entity "ubm_navshortcut" into data name "selectBeforeUpdate": row count=1
20180320 18045602  *  -    			00.000.315
20180320 18045602  *  -    		00.000.569
20180320 18045602  *  -    	00.000.896
20180320 18045602  *  +    	ubMixinClasses.TubTreeMixin(02B04DB0).MixinMethod
20180320 18045602  * debug 		ubm_navshortcut.update(TubTreeMixin)
20180320 18045602  *  -    	00.000.004
20180320 18045602  *  +    	ubMixinClasses.TubStorageMixin(02B042C0).MixinMethod
20180320 18045602  * debug 		ubm_navshortcut.update(TubStorageMixin)
20180320 18045602  *  +    		ubApp.TubApp(02AB3EE0).DBExecute
20180320 18045602  *  +    			ubApp.TubApp(02AB3EE0).TubApp.InternalDBExecute
20180320 18045602  * debug 				P1: String(15)	fa fa-briefcase
20180320 18045602  * debug 				P2: DateTime	2018-03-20T18:04:56
20180320 18045602  * debug 				P3: Int64		10
20180320 18045602  * debug 				P4: Int64		335295255347201
20180320 18045602  * DB    				StartTransaction for connection "main"
20180320 18045602  * SQL   				ubDBSQLite3ThreadSafe.TubSQLite3Statement(1727DDB0) UPDATE ubm_navshortcut SET iconCls=?,mi_modifyDate=?,mi_modifyUser=? WHERE ID= ?
20180320 18045602  *  -    			00.000.173
20180320 18045602  *  -    		00.000.175
20180320 18045602  *  -    	00.000.249
20180320 18045602  *  +    	ubMixinClasses.TubStorageMixin(02B042C0).MixinMethod
20180320 18045602  * debug 		ubm_navshortcut.afterupdate(TubStorageMixin)
20180320 18045602  *  +    		ubMixinClasses.TubRLSMixin(02B04E20).MixinMethod
20180320 18045602  * debug 			ubm_navshortcut.select(TubRLSMixin)
20180320 18045602  * debug 			Prepare RLS expression for ubm_navshortcut
20180320 18045602  *  -    		00.000.294
20180320 18045602  *  +    		ubMixinClasses.TubStorageMixin(02B042C0).MixinMethod
20180320 18045602  * debug 			ubm_navshortcut.select(TubStorageMixin)
20180320 18045602  *  +    			ubApp.TubDataStore(20DE8D10).Init
20180320 18045602  *  +    				ubApp.TubApp(02AB3EE0).DBExecute
20180320 18045602  *  +    					ubApp.TubApp(02AB3EE0).TubApp.InternalDBExecute
20180320 18045602  * debug 						P1: Int64		10
20180320 18045602  * debug 						P2: Int64		10
20180320 18045602  * debug 						P3: Int64		335295255347201
20180320 18045602  * debug 						P4: DateTime	9999-12-31T00:00:00
20180320 18045602  * SQL   						ubDBSQLite3ThreadSafe.TubSQLite3Statement(1727E290) SELECT A01.ID,A01.desktopID,A01.parentID,A01.caption,A01.code,A01.iconCls,A01.isFolder,A01.inWindow,A01.isCollapsed,A01.displayOrder,A01.cmdCode,A01.mi_modifyDate,A01.mi_treePath  FROM ubm_navshortcut A01  WHERE (( A01.mi_owner = ? ) OR               (1=1) OR                             exists (select 1 from ubm_navshortcut_adm admsubtable where admsubtable.instanceID = A01.ID and admsubtable.admSubjID in (select ur.RoleID from uba_userrole ur where ur.UserID = ? union select 10))) AND A01.ID=? AND A01.mi_d... (truncated) length=523
20180320 18045602  *  -    					00.000.114
20180320 18045602  *  -    				00.000.132
20180320 18045602  * debug 				Query result for entity "ubm_navshortcut" into data name "selectAfterUpdate": row count=1
20180320 18045602  *  -    			00.000.148
20180320 18045602  *  -    		00.000.346
20180320 18045602  *  -    	00.000.700
20180320 18045602  *  +    	ubMixinClasses.TubTreeMixin(02B04DB0).MixinMethod
20180320 18045602  * debug 		ubm_navshortcut.afterupdate(TubTreeMixin)
20180320 18045602  *  -    	00.000.003
20180320 18045602  *  +    	ubMixinClasses.TubAuditMixin(02B04F70).MixinMethod
20180320 18045602  * debug 		ubm_navshortcut.afterupdate(TubAuditMixin)
20180320 18045602  *  +    		ubApp.TubDataStore(20DE8BD0).TubDataStore.ExecuteInsertFromSQL
20180320 18045602  *  +    			ubApp.TubApp(02AB3EE0).DBExecute
20180320 18045602  *  +    				ubApp.TubApp(02AB3EE0).TubApp.InternalDBExecute
20180320 18045602  * debug 					P1: Int64		335498332635137
20180320 18045602  * debug 					P2: String(15)	ubm_navshortcut
20180320 18045602  * debug 					P3: Int64		335295255347201
20180320 18045602  * debug 					P4: String(6)	UPDATE
20180320 18045602  * debug 					P5: Int64		10
20180320 18045602  * debug 					P6: DateTime	2018-03-20T18:04:56
20180320 18045602  * debug 					P7: String(9)	127.0.0.1
20180320 18045602  * debug 					P8: Int64		335295255347201
20180320 18045602  * debug 					P9: String(788..)	{"ID":335295255347201,"desktopID":335295183650817,"parentID":335295190532097,"code":"sub_depart","is...
20180320 18045602  * debug 					P10: String(108..)	{"iconCls":"fa fa-briefcase","ID":335295255347201,"mi_modifyDate":"2018-03-20T18:04:56Z","mi_modifyU...
20180320 18045602  * SQL   					ubDBSQLite3ThreadSafe.TubSQLite3Statement(1727E470) INSERT INTO uba_auditTrail (ID,entity,entityinfo_id,actionType,actionUser,actionTime,remoteIP,parentEntityInfo_id,fromValue,toValue) VALUES (?,?,?,?,?,?,?,?,?,?)
20180320 18045602  *  -    				00.000.092
20180320 18045602  *  -    			00.000.094
20180320 18045602  *  -    		00.000.187
20180320 18045602  *  -    	00.000.224
20180320 18045602  * DB    	Commit connection "main" in 282us
20180320 18045602  * http  	127.0.0.1 <- 200
20180320 18045602  *  -    00.002.878
20180320 18045621  (  +    ubql
20180320 18045621  ( http  	127.0.0.1 -> POST ubql
20180320 18045621  ( http  	[{"entity":"ubm_navshortcut","method":"select","fieldList":["ID","caption","isFolder","mi_modifyDate"],"whereList":{"x100":{"values":{"ID":335295190532097},"expression":"[ID]","condition":"equal"},"onlyFolders":{"expression":"[isFolder]","condition":"equal","values":{"isFolder":true}}},"orderList":{"_asc":{"expression":"caption","order":"asc"}},"options":{"limit":30,"start":0}}]
20180320 18045621  ( auth  	admin/4605664
20180320 18045621  ( call  	endpoint ubql
20180320 18045621  (  +    	ubMixinClasses.TubRLSMixin(02B04E20).MixinMethod
20180320 18045621  ( debug 		ubm_navshortcut.select(TubRLSMixin)
20180320 18045621  ( debug 		Prepare RLS expression for ubm_navshortcut
20180320 18045621  (  +    		ubApp.TubDataStore(20DE8FE0).Init
20180320 18045621  (  +    			ubApp.TubApp(02AB3EE0).DBExecute
20180320 18045621  (  +    				ubApp.TubApp(02AB3EE0).TubApp.InternalDBExecute
20180320 18045621  (  +    					00856EC2 
20180320 18045621  (  -    					00.002.098
20180320 18045621  ( SQL   					ubDBSQLite3ThreadSafe.TubSQLite3Statement(1727E9B0) PRAGMA foreign_keys = ON
20180320 18045621  ( SQL   					ubDBSQLite3ThreadSafe.TubSQLite3Statement(1727DD50) select ID, name FROM uba_role
20180320 18045621  (  -    				00.002.136
20180320 18045621  (  -    			00.002.170
20180320 18045621  ( debug 			Query result for entity "uba_role" into data name "": row count=7
20180320 18045621  (  -    		00.002.182
20180320 18045621  (  -    	00.003.352
20180320 18045621  (  +    	ubMixinClasses.TubStorageMixin(02B042C0).MixinMethod
20180320 18045621  ( debug 		ubm_navshortcut.select(TubStorageMixin)
20180320 18045621  (  +    		ubApp.TubDataStore(20DE8C48).Init
20180320 18045621  (  +    			ubApp.TubApp(02AB3EE0).DBExecute
20180320 18045621  (  +    				ubApp.TubApp(02AB3EE0).TubApp.InternalDBExecute
20180320 18045621  ( debug 					P1: Int64		335295190532097
20180320 18045621  ( debug 					P2: Bool		1
20180320 18045621  ( debug 					P3: Int64		10
20180320 18045621  ( debug 					P4: Int64		10
20180320 18045621  ( debug 					P5: DateTime	9999-12-31T00:00:00
20180320 18045621  ( SQL   					ubDBSQLite3ThreadSafe.TubSQLite3Statement(1727EA70) SELECT A01.ID,A01.caption,A01.isFolder,A01.mi_modifyDate  FROM ubm_navshortcut A01  WHERE A01.ID=? AND A01.isFolder=? AND (( A01.mi_owner = ? ) OR               (1=1) OR                             exists (select 1 from ubm_navshortcut_adm admsubtable where admsubtable.instanceID = A01.ID and admsubtable.admSubjID in (select ur.RoleID from uba_userrole ur where ur.UserID = ? union select 10))) AND A01.mi_deleteDate=? ORDER BY 2 ASC LIMIT 30 OFFSET 0 
20180320 18045621  (  -    				00.000.126
20180320 18045621  (  -    			00.000.207
20180320 18045621  ( debug 			Query result for entity "ubm_navshortcut" into data name "": row count=1
20180320 18045621  (  -    		00.000.227
20180320 18045621  (  -    	00.000.402
20180320 18045621  ( http  	127.0.0.1 <- 200
20180320 18045621  (  -    00.004.369
20180320 18081851  +  +    ubql
20180320 18081851  + http  	127.0.0.1 -> POST ubql
20180320 18081851  + http  	[{"entity":"ubm_navshortcut","fieldList":["ID","desktopID","parentID","caption","code","iconCls","isFolder","inWindow","isCollapsed","displayOrder","cmdCode","mi_modifyDate","mi_treePath"],"ID":335295365808129,"alsNeed":false,"method":"select"}]
20180320 18081851  + auth  	admin/4605664
20180320 18081851  + call  	endpoint ubql
20180320 18081851  +  +    	ubMixinClasses.TubRLSMixin(02B04E20).MixinMethod
20180320 18081851  + debug 		ubm_navshortcut.select(TubRLSMixin)
20180320 18081851  + debug 		Prepare RLS expression for ubm_navshortcut
20180320 18081851  +  +    		ubApp.TubDataStore(20DE6A60).Init
20180320 18081851  +  +    			ubApp.TubApp(02AB3EE0).DBExecute
20180320 18081851  +  +    				ubApp.TubApp(02AB3EE0).TubApp.InternalDBExecute
20180320 18081851  +  +    					00856EC2 
20180320 18081851  +  -    					00.002.253
20180320 18081851  + SQL   					ubDBSQLite3ThreadSafe.TubSQLite3Statement(1727F0D0) PRAGMA foreign_keys = ON
20180320 18081851  + SQL   					ubDBSQLite3ThreadSafe.TubSQLite3Statement(1727E9B0) select ID, name FROM uba_role
20180320 18081851  +  -    				00.002.298
20180320 18081851  +  -    			00.002.339
20180320 18081851  + debug 			Query result for entity "uba_role" into data name "": row count=7
20180320 18081851  +  -    		00.002.355
20180320 18081851  +  -    	00.003.624
20180320 18081851  +  +    	ubMixinClasses.TubStorageMixin(02B042C0).MixinMethod
20180320 18081851  + debug 		ubm_navshortcut.select(TubStorageMixin)
20180320 18081851  +  +    		ubApp.TubDataStore(20DE72D0).Init
20180320 18081851  +  +    			ubApp.TubApp(02AB3EE0).DBExecute
20180320 18081851  +  +    				ubApp.TubApp(02AB3EE0).TubApp.InternalDBExecute
20180320 18081851  + debug 					P1: Int64		10
20180320 18081851  + debug 					P2: Int64		10
20180320 18081851  + debug 					P3: Int64		335295365808129
20180320 18081851  + debug 					P4: DateTime	9999-12-31T00:00:00
20180320 18081851  + SQL   					ubDBSQLite3ThreadSafe.TubSQLite3Statement(1727F190) SELECT A01.ID,A01.desktopID,A01.parentID,A01.caption,A01.code,A01.iconCls,A01.isFolder,A01.inWindow,A01.isCollapsed,A01.displayOrder,A01.cmdCode,A01.mi_modifyDate,A01.mi_treePath  FROM ubm_navshortcut A01  WHERE (( A01.mi_owner = ? ) OR               (1=1) OR                             exists (select 1 from ubm_navshortcut_adm admsubtable where admsubtable.instanceID = A01.ID and admsubtable.admSubjID in (select ur.RoleID from uba_userrole ur where ur.UserID = ? union select 10))) AND A01.ID=? AND A01.mi_d... (truncated) length=523
20180320 18081851  +  -    				00.000.168
20180320 18081851  +  -    			00.000.285
20180320 18081851  + debug 			Query result for entity "ubm_navshortcut" into data name "": row count=1
20180320 18081851  +  -    		00.000.312
20180320 18081851  +  -    	00.000.616
20180320 18081851  + http  	127.0.0.1 <- 200
20180320 18081851  +  -    00.005.058
20180320 18082460  -  +    ubql
20180320 18082460  - http  	127.0.0.1 -> POST ubql
20180320 18082460  - http  	[{"fieldList":["ID","desktopID","parentID","caption","code","iconCls","isFolder","inWindow","isCollapsed","displayOrder","cmdCode","mi_modifyDate","mi_treePath"],"entity":"ubm_navshortcut","method":"update","alsNeed":false,"execParams":{"iconCls":"fa fa-clone","ID":335295365808129,"mi_modifyDate":"2018-03-20T18:04:27.000Z"}}]
20180320 18082460  - auth  	admin/4605664
20180320 18082460  - call  	endpoint ubql
20180320 18082460  -  +    	ubMixinClasses.TubStorageMixin(02B042C0).MixinMethod
20180320 18082460  - debug 		ubm_navshortcut.beforeupdate(TubStorageMixin)
20180320 18082460  -  +    		ubMixinClasses.TubRLSMixin(02B04E20).MixinMethod
20180320 18082460  - debug 			ubm_navshortcut.select(TubRLSMixin)
20180320 18082460  - debug 			Prepare RLS expression for ubm_navshortcut
20180320 18082460  -  -    		00.000.235
20180320 18082460  -  +    		ubMixinClasses.TubStorageMixin(02B042C0).MixinMethod
20180320 18082460  - debug 			ubm_navshortcut.select(TubStorageMixin)
20180320 18082460  -  +    			ubApp.TubDataStore(20DE6DD0).Init
20180320 18082460  -  +    				ubApp.TubApp(02AB3EE0).DBExecute
20180320 18082460  -  +    					ubApp.TubApp(02AB3EE0).TubApp.InternalDBExecute
20180320 18082460  - debug 						P1: Int64		10
20180320 18082460  - debug 						P2: Int64		10
20180320 18082460  - debug 						P3: Int64		335295365808129
20180320 18082460  - debug 						P4: DateTime	9999-12-31T00:00:00
20180320 18082460  - SQL   						ubDBSQLite3ThreadSafe.TubSQLite3Statement(1727F2B0) SELECT A01.ID,A01.desktopID,A01.parentID,A01.code,A01.isFolder,A01.caption,A01.cmdCode,A01.inWindow,A01.isCollapsed,A01.displayOrder,A01.iconCls,A01.mi_treePath,A01.mi_owner,A01.mi_createDate,A01.mi_createUser,A01.mi_modifyDate,A01.mi_modifyUser,A01.mi_deleteDate,A01.mi_deleteUser  FROM ubm_navshortcut A01  WHERE (( A01.mi_owner = ? ) OR               (1=1) OR                             exists (select 1 from ubm_navshortcut_adm admsubtable where admsubtable.instanceID = A01.ID and admsubtable.admSubjID in ... (truncated) length=626
20180320 18082460  -  -    					00.000.177
20180320 18082460  -  -    				00.000.299
20180320 18082460  - debug 				Query result for entity "ubm_navshortcut" into data name "selectBeforeUpdate": row count=1
20180320 18082460  -  -    			00.000.320
20180320 18082460  -  -    		00.000.601
20180320 18082460  -  -    	00.000.920
20180320 18082460  -  +    	ubMixinClasses.TubTreeMixin(02B04DB0).MixinMethod
20180320 18082460  - debug 		ubm_navshortcut.update(TubTreeMixin)
20180320 18082460  -  -    	00.000.004
20180320 18082460  -  +    	ubMixinClasses.TubStorageMixin(02B042C0).MixinMethod
20180320 18082460  - debug 		ubm_navshortcut.update(TubStorageMixin)
20180320 18082460  -  +    		ubApp.TubApp(02AB3EE0).DBExecute
20180320 18082460  -  +    			ubApp.TubApp(02AB3EE0).TubApp.InternalDBExecute
20180320 18082460  - debug 				P1: String(11)	fa fa-clone
20180320 18082460  - debug 				P2: DateTime	2018-03-20T18:08:24
20180320 18082460  - debug 				P3: Int64		10
20180320 18082460  - debug 				P4: Int64		335295365808129
20180320 18082460  - DB    				StartTransaction for connection "main"
20180320 18082460  - SQL   				ubDBSQLite3ThreadSafe.TubSQLite3Statement(1727F130) UPDATE ubm_navshortcut SET iconCls=?,mi_modifyDate=?,mi_modifyUser=? WHERE ID= ?
20180320 18082460  -  -    			00.000.178
20180320 18082460  -  -    		00.000.181
20180320 18082460  -  -    	00.000.258
20180320 18082460  -  +    	ubMixinClasses.TubStorageMixin(02B042C0).MixinMethod
20180320 18082460  - debug 		ubm_navshortcut.afterupdate(TubStorageMixin)
20180320 18082460  -  +    		ubMixinClasses.TubRLSMixin(02B04E20).MixinMethod
20180320 18082460  - debug 			ubm_navshortcut.select(TubRLSMixin)
20180320 18082460  - debug 			Prepare RLS expression for ubm_navshortcut
20180320 18082460  -  -    		00.000.317
20180320 18082460  -  +    		ubMixinClasses.TubStorageMixin(02B042C0).MixinMethod
20180320 18082460  - debug 			ubm_navshortcut.select(TubStorageMixin)
20180320 18082460  -  +    			ubApp.TubDataStore(20DE6DD0).Init
20180320 18082460  -  +    				ubApp.TubApp(02AB3EE0).DBExecute
20180320 18082460  -  +    					ubApp.TubApp(02AB3EE0).TubApp.InternalDBExecute
20180320 18082460  - debug 						P1: Int64		10
20180320 18082460  - debug 						P2: Int64		10
20180320 18082460  - debug 						P3: Int64		335295365808129
20180320 18082460  - debug 						P4: DateTime	9999-12-31T00:00:00
20180320 18082460  - SQL   						ubDBSQLite3ThreadSafe.TubSQLite3Statement(1727F310) SELECT A01.ID,A01.desktopID,A01.parentID,A01.caption,A01.code,A01.iconCls,A01.isFolder,A01.inWindow,A01.isCollapsed,A01.displayOrder,A01.cmdCode,A01.mi_modifyDate,A01.mi_treePath  FROM ubm_navshortcut A01  WHERE (( A01.mi_owner = ? ) OR               (1=1) OR                             exists (select 1 from ubm_navshortcut_adm admsubtable where admsubtable.instanceID = A01.ID and admsubtable.admSubjID in (select ur.RoleID from uba_userrole ur where ur.UserID = ? union select 10))) AND A01.ID=? AND A01.mi_d... (truncated) length=523
20180320 18082460  -  -    					00.000.135
20180320 18082460  -  -    				00.000.154
20180320 18082460  - debug 				Query result for entity "ubm_navshortcut" into data name "selectAfterUpdate": row count=1
20180320 18082460  -  -    			00.000.170
20180320 18082460  -  -    		00.000.344
20180320 18082460  -  -    	00.000.720
20180320 18082460  -  +    	ubMixinClasses.TubTreeMixin(02B04DB0).MixinMethod
20180320 18082460  - debug 		ubm_navshortcut.afterupdate(TubTreeMixin)
20180320 18082460  -  -    	00.000.003
20180320 18082460  -  +    	ubMixinClasses.TubAuditMixin(02B04F70).MixinMethod
20180320 18082460  - debug 		ubm_navshortcut.afterupdate(TubAuditMixin)
20180320 18082460  -  +    		ubApp.TubDataStore(20DE8EF0).TubDataStore.ExecuteInsertFromSQL
20180320 18082460  -  +    			ubApp.TubApp(02AB3EE0).DBExecute
20180320 18082460  -  +    				ubApp.TubApp(02AB3EE0).TubApp.InternalDBExecute
20180320 18082460  - debug 					P1: Int64		335498359373825
20180320 18082460  - debug 					P2: String(15)	ubm_navshortcut
20180320 18082460  - debug 					P3: Int64		335295365808129
20180320 18082460  - debug 					P4: String(6)	UPDATE
20180320 18082460  - debug 					P5: Int64		10
20180320 18082460  - debug 					P6: DateTime	2018-03-20T18:08:24
20180320 18082460  - debug 					P7: String(9)	127.0.0.1
20180320 18082460  - debug 					P8: Int64		335295365808129
20180320 18082460  - debug 					P9: String(660..)	{"ID":335295365808129,"desktopID":335295183650817,"parentID":null,"code":"req_list","isFolder":0,"ca...
20180320 18082460  - debug 					P10: String(104..)	{"iconCls":"fa fa-clone","ID":335295365808129,"mi_modifyDate":"2018-03-20T18:08:24Z","mi_modifyUser"...
20180320 18082460  - SQL   					ubDBSQLite3ThreadSafe.TubSQLite3Statement(1727F550) INSERT INTO uba_auditTrail (ID,entity,entityinfo_id,actionType,actionUser,actionTime,remoteIP,parentEntityInfo_id,fromValue,toValue) VALUES (?,?,?,?,?,?,?,?,?,?)
20180320 18082460  -  -    				00.000.097
20180320 18082460  -  -    			00.000.099
20180320 18082460  -  -    		00.000.194
20180320 18082460  -  -    	00.000.231
20180320 18082460  - DB    	Commit connection "main" in 325us
20180320 18082460  - http  	127.0.0.1 <- 200
20180320 18082460  -  -    00.003.018
20180320 18082703  /  +    logout
20180320 18082703  / http  	127.0.0.1 -> POST logout
20180320 18082703  / http  	{}
20180320 18082703  / auth  	admin/4605664
20180320 18082703  / call  	endpoint logout
20180320 18082703  / auth  	Session closed admin/4605664/127.0.0.1
20180320 18082703  / http  	127.0.0.1 <- 200
20180320 18082703  /  -    00.000.267
20180320 18082703  "  +    adm
20180320 18082703  " http  	127.0.0.1 -> GET adm
20180320 18082703  " call  	endpoint adm
20180320 18082703  " http  	127.0.0.1 <- 200
20180320 18082703  "  -    00.000.785
20180320 18082704  .  +    models/adminui-pub/themes/UBGrayTheme/UBGrayTheme-all.css?ver=d41d8cd98f00b204e9800998ecf8427e
20180320 18082704  %  +    models/adminui-pub/themes/UBGrayTheme/ub.css?ver=d41d8cd98f00b204e9800998ecf8427e
20180320 18082704  &  +    clientRequire/font-awesome/css/font-awesome.min.css
20180320 18082704  . http  	127.0.0.1 -> GET models/adminui-pub/themes/UBGrayTheme/UBGrayTheme-all.css?ver=d41d8cd98f00b204e9800998ecf8427e
20180320 18082704  0  +    models/adminui-pub/ub-css-all.css?ver=d41d8cd98f00b204e9800998ecf8427e
20180320 18082704  % http  	127.0.0.1 -> GET models/adminui-pub/themes/UBGrayTheme/ub.css?ver=d41d8cd98f00b204e9800998ecf8427e
20180320 18082704  & http  	127.0.0.1 -> GET clientRequire/font-awesome/css/font-awesome.min.css
20180320 18082704  0 http  	127.0.0.1 -> GET models/adminui-pub/ub-css-all.css?ver=d41d8cd98f00b204e9800998ecf8427e
20180320 18082704  % call  	endpoint models
20180320 18082704  . call  	endpoint models
20180320 18082704  & call  	endpoint clientRequire
20180320 18082704  0 call  	endpoint models
20180320 18082704  1  +    clientRequire/es6-promise/dist/es6-promise.auto.min.js
20180320 18082704  1 http  	127.0.0.1 -> GET clientRequire/es6-promise/dist/es6-promise.auto.min.js
20180320 18082704  & info  	Call clientRequire 
20180320 18082704  #  +    clientRequire/systemjs/dist/system.js?ver=d41d8cd98f00b204e9800998ecf8427e
20180320 18082704  # http  	127.0.0.1 -> GET clientRequire/systemjs/dist/system.js?ver=d41d8cd98f00b204e9800998ecf8427e
20180320 18082704  1 call  	endpoint clientRequire
20180320 18082704  # call  	endpoint clientRequire
20180320 18082704  0 http  	127.0.0.1 <- 200
20180320 18082704  0  -    00.000.490
20180320 18082704  & http  	127.0.0.1 <- 200
20180320 18082704  &  -    00.000.526
20180320 18082704  1 info  	Call clientRequire 
20180320 18082704  # info  	Call clientRequire 
20180320 18082704  1 http  	127.0.0.1 <- 200
20180320 18082704  1  -    00.000.860
20180320 18082704  # http  	127.0.0.1 <- 200
20180320 18082704  #  -    00.000.915
20180320 18082704  . http  	127.0.0.1 <- 200
20180320 18082704  .  -    00.001.867
20180320 18082704  % http  	127.0.0.1 <- 200
20180320 18082704  %  -    00.001.964
20180320 18082705  $  +    models/adminui-pub/dist/ext-all.min.js?ver=d41d8cd98f00b204e9800998ecf8427e
20180320 18082705  $ http  	127.0.0.1 -> GET models/adminui-pub/dist/ext-all.min.js?ver=d41d8cd98f00b204e9800998ecf8427e
20180320 18082705  $ call  	endpoint models
20180320 18082705  $ http  	127.0.0.1 <- 200
20180320 18082705  $  -    00.000.332
20180320 18082708  '  +    clientRequire/font-awesome/fonts/fontawesome-webfont.woff2?v=4.7.0
20180320 18082708  ' http  	127.0.0.1 -> GET clientRequire/font-awesome/fonts/fontawesome-webfont.woff2?v=4.7.0
20180320 18082708  ' call  	endpoint clientRequire
20180320 18082708  ' info  	Call clientRequire 
20180320 18082708  ' http  	127.0.0.1 <- 200
20180320 18082708  '  -    00.000.424
20180320 18082734  )  +    clientRequire/@unitybase/adminui-pub/package.json
20180320 18082734  ) http  	127.0.0.1 -> GET clientRequire/@unitybase/adminui-pub/package.json
20180320 18082734  ) call  	endpoint clientRequire
20180320 18082734  ) info  	Call clientRequire 
20180320 18082734  ) http  	127.0.0.1 <- 200
20180320 18082734  )  -    00.000.368
20180320 18082734  *  +    models/UB/img/UBLogo32.png
20180320 18082734  ,  +    clientRequire/@unitybase/adminui-pub/dist/adminui.app.min.js
20180320 18082734  * http  	127.0.0.1 -> GET models/UB/img/UBLogo32.png
20180320 18082734  , http  	127.0.0.1 -> GET clientRequire/@unitybase/adminui-pub/dist/adminui.app.min.js
20180320 18082734  * call  	endpoint models
20180320 18082734  , call  	endpoint clientRequire
20180320 18082734  , info  	Call clientRequire 
20180320 18082734  * http  	127.0.0.1 <- 200
20180320 18082734  *  -    00.000.376
20180320 18082734  , http  	127.0.0.1 <- 200
20180320 18082734  ,  -    00.000.381
20180320 18082735  (  +    models/UB/img/UBLogo48.png
20180320 18082735  ( http  	127.0.0.1 -> GET models/UB/img/UBLogo48.png
20180320 18082735  ( call  	endpoint models
20180320 18082735  ( http  	127.0.0.1 <- 200
20180320 18082735  (  -    00.000.368
20180320 18082735  +  +    models/UB/img/UBLogo128.png
20180320 18082735  + http  	127.0.0.1 -> GET models/UB/img/UBLogo128.png
20180320 18082735  + call  	endpoint models
20180320 18082735  + http  	127.0.0.1 <- 200
20180320 18082735  +  -    00.000.459
20180320 18082748  -  +    getAppInfo
20180320 18082748  - http  	127.0.0.1 -> GET getAppInfo
20180320 18082748  - call  	endpoint getAppInfo
20180320 18082748  /  +    clientRequire/@unitybase/adminui-pub/themes/UBGrayTheme/UBGrayTheme.js
20180320 18082748  / http  	127.0.0.1 -> GET clientRequire/@unitybase/adminui-pub/themes/UBGrayTheme/UBGrayTheme.js
20180320 18082748  / call  	endpoint clientRequire
20180320 18082748  - http  	127.0.0.1 <- 304
20180320 18082748  -  -    00.000.251
20180320 18082748  / info  	Call clientRequire 
20180320 18082748  / http  	127.0.0.1 <- 200
20180320 18082748  /  -    00.000.300
20180320 18082748  0  +    models/UB/img/UBLogo16.ico
20180320 18082748  "  +    models/adminui-pub/locale/lang-en.js?ubver=3865914637ef7cd48187d30356b8b4b0
20180320 18082748  0 http  	127.0.0.1 -> GET models/UB/img/UBLogo16.ico
20180320 18082748  " http  	127.0.0.1 -> GET models/adminui-pub/locale/lang-en.js?ubver=3865914637ef7cd48187d30356b8b4b0
20180320 18082748  " call  	endpoint models
20180320 18082748  0 call  	endpoint models
20180320 18082748  0 http  	127.0.0.1 <- 200
20180320 18082748  " http  	127.0.0.1 <- 200
20180320 18082748  0  -    00.000.258
20180320 18082748  "  -    00.000.258
20180320 18082750  &  +    models/adminui-pub/themes/UBGrayTheme/images/form/exclamation.png
20180320 18082750  & http  	127.0.0.1 -> GET models/adminui-pub/themes/UBGrayTheme/images/form/exclamation.png
20180320 18082750  & call  	endpoint models
20180320 18082750  & http  	127.0.0.1 <- 200
20180320 18082750  &  -    00.000.304
20180320 18082845  1  +    auth?AUTHTYPE=UB&userName=admin
20180320 18082845  1 http  	127.0.0.1 -> POST auth?AUTHTYPE=UB&userName=admin
20180320 18082845  1 call  	endpoint auth
20180320 18082845  1 http  	127.0.0.1 <- 200
20180320 18082845  1  -    00.000.210
20180320 18082845  #  +    auth?AUTHTYPE=UB&clientNonce=f8733fb6d68386b1f498623d56fa3203eed11fd1257b3cdf14a4ab619f43110b&password=d332db3a37ceb4af131d7fdf216cd61f161e4687345fad5aaa687470d46396d4&userName=admin
20180320 18082845  # http  	127.0.0.1 -> POST auth?AUTHTYPE=UB&clientNonce=f8733fb6d68386b1f498623d56fa3203eed11fd1257b3cdf14a4ab619f43110b&password=d332db3a37ceb4af131d7fdf216cd61f161e4687345fad5aaa687470d46396d4&userName=admin
20180320 18082845  # call  	endpoint auth
20180320 18082845  #  +    	ubApp.TubDataStore(1731BCD0).Init
20180320 18082845  #  +    		ubApp.TubApp(02AB3EE0).DBExecute
20180320 18082845  #  +    			ubApp.TubApp(02AB3EE0).TubApp.InternalDBExecute
20180320 18082845  # debug 				P1: String(5)	admin
20180320 18082845  # SQL   				ubDBSQLite3ThreadSafe.TubSQLite3Statement(1727F0D0) select id, name, uPasswordHashHexa, uData, isPending, trustedIP from UBA_USER where name=? and disabled=0
20180320 18082845  #  -    			00.000.080
20180320 18082845  #  -    		00.000.180
20180320 18082845  # debug 		Query result for entity "uba_user" into data name "": row count=1
20180320 18082845  #  -    	00.000.197
20180320 18082845  #  +    	ubApp.TubDataStore(1731BCD0).Init
20180320 18082845  #  +    		ubApp.TubApp(02AB3EE0).DBExecute
20180320 18082845  #  +    			ubApp.TubApp(02AB3EE0).TubApp.InternalDBExecute
20180320 18082845  # debug 				P1: Int64		10
20180320 18082845  # SQL   				ubDBSQLite3ThreadSafe.TubSQLite3Statement(1727F4F0) SELECT lastPasswordChangeDate FROM uba_user WHERE id=?
20180320 18082845  #  -    			00.000.025
20180320 18082845  #  -    		00.000.051
20180320 18082845  # debug 		Query result for entity "uba_user" into data name "__expireDate": row count=1
20180320 18082845  #  -    	00.000.082
20180320 18082845  #  +    	ubApp.TubDataStore(1731BB90).Init
20180320 18082845  #  +    		ubApp.TubApp(02AB3EE0).DBExecute
20180320 18082845  #  +    			ubApp.TubApp(02AB3EE0).TubApp.InternalDBExecute
20180320 18082845  # debug 				P1: Int64		10
20180320 18082845  # SQL   				ubDBSQLite3ThreadSafe.TubSQLite3Statement(1727F3D0) SELECT A01.roleID,A02.name,A02.description  FROM uba_userrole A01  INNER JOIN uba_role A02 ON A02.ID=A01.roleID  WHERE A01.userID=?
20180320 18082845  #  -    			00.000.051
20180320 18082845  #  -    		00.000.092
20180320 18082845  # debug 		Query result for entity "uba_userrole" into data name "": row count=1
20180320 18082845  #  -    	00.000.101
20180320 18082845  # auth  	New session admin/4605667 created at 127.0.0.1/-432345554027020287 using Mozilla/5.0 (Windows NT 6.3; Win64; x64) AppleWebKit/537.36 (KHTML, like Gecko) Chrome/64.0.3282.186 Safari/537.36 OPR/51.0.2830.55
20180320 18082845  #  +    	ubMixinClasses.TubStorageMixin(02B042C0).MixinMethod
20180320 18082845  # debug 		uba_user.select(TubStorageMixin)
20180320 18082845  #  +    		ubApp.TubDataStore(1731BB90).Init
20180320 18082845  #  +    			ubApp.TubApp(02AB3EE0).DBExecute
20180320 18082845  #  +    				ubApp.TubApp(02AB3EE0).TubApp.InternalDBExecute
20180320 18082845  # debug 					P1: Int64		10
20180320 18082845  # SQL   					ubDBSQLite3ThreadSafe.TubSQLite3Statement(1727F610) SELECT A01.name  FROM uba_user A01  WHERE A01.ID=?
20180320 18082845  #  -    				00.000.031
20180320 18082845  #  -    			00.000.055
20180320 18082845  # debug 			Query result for entity "uba_user" into data name "": row count=1
20180320 18082845  #  -    		00.000.063
20180320 18082845  #  -    	00.000.123
20180320 18082845  #  +    	ubMixinClasses.TubStorageMixin(02B042C0).MixinMethod
20180320 18082845  # debug 		uba_advSecurity.select(TubStorageMixin)
20180320 18082845  #  +    		ubApp.TubDataStore(1731BB90).Init
20180320 18082845  #  +    			ubApp.TubApp(02AB3EE0).DBExecute
20180320 18082845  #  +    				ubApp.TubApp(02AB3EE0).TubApp.InternalDBExecute
20180320 18082845  # debug 					P1: Int64		10
20180320 18082845  # SQL   					ubDBSQLite3ThreadSafe.TubSQLite3Statement(1727F670) SELECT A01.ID,A01.allowedIP,A01.refreshIP,A01.fp,A01.refreshFp,A01.keyMediaName,A01.refreshKeyMedia,A01.mi_modifyDate  FROM uba_advSecurity A01  WHERE A01.userID=?
20180320 18082845  #  -    				00.000.046
20180320 18082845  #  -    			00.000.078
20180320 18082845  # debug 			Query result for entity "uba_advSecurity" into data name "": row count=0
20180320 18082845  #  -    		00.000.086
20180320 18082845  #  -    	00.000.181
20180320 18082845  #  +    	ubMixinClasses.TubStorageMixin(02B042C0).MixinMethod
20180320 18082845  # debug 		uba_userrole.select(TubStorageMixin)
20180320 18082845  #  +    		ubApp.TubDataStore(1731BB90).Init
20180320 18082845  #  +    			ubApp.TubApp(02AB3EE0).DBExecute
20180320 18082845  #  +    				ubApp.TubApp(02AB3EE0).TubApp.InternalDBExecute
20180320 18082845  # debug 					P1: Int64		10
20180320 18082845  # SQL   					ubDBSQLite3ThreadSafe.TubSQLite3Statement(1727F730) SELECT A01.ID,A02.name,A01.roleID  FROM uba_userrole A01  INNER JOIN uba_role A02 ON A02.ID=A01.roleID  WHERE A01.userID=?
20180320 18082845  #  -    				00.000.051
20180320 18082845  #  -    			00.000.091
20180320 18082845  # debug 			Query result for entity "uba_userrole" into data name "": row count=1
20180320 18082845  #  -    		00.000.100
20180320 18082845  #  -    	00.000.172
20180320 18082845  #  +    	ubMixinClasses.TubStorageMixin(02B042C0).MixinMethod
20180320 18082845  # debug 		uba_audit.beforeinsert(TubStorageMixin)
20180320 18082845  #  -    	00.000.006
20180320 18082845  #  +    	ubMixinClasses.TubStorageMixin(02B042C0).MixinMethod
20180320 18082845  # debug 		uba_audit.insert(TubStorageMixin)
20180320 18082845  #  +    		ubApp.TubDataStore(04B9BF68).TubDataStore.ExecuteInsertFromList
20180320 18082845  #  +    			ubApp.TubDataStore(04B9BF68).TubDataStore.ExecuteInsertFromSQL
20180320 18082845  #  +    				ubApp.TubApp(02AB3EE0).DBExecute
20180320 18082845  #  +    					ubApp.TubApp(02AB3EE0).TubApp.InternalDBExecute
20180320 18082845  # debug 						P1: String(8)	uba_user
20180320 18082845  # debug 						P2: Int64		10
20180320 18082845  # debug 						P3: String(5)	LOGIN
20180320 18082845  # debug 						P4: Int64		10
20180320 18082845  # debug 						P5: DateTime	2018-03-20T18:08:28
20180320 18082845  # debug 						P6: String(9)	127.0.0.1
20180320 18082845  # debug 						P7: String(5)	admin
20180320 18082845  # debug 						P8: Int64		335498359865345
20180320 18082845  # debug 						P9: String(407..)	Connection: keep-alive  Content-Length: 0  Accept: application/json, text/plain, */*  Accept-Encodin...
20180320 18082845  # DB    						StartTransaction for connection "main"
20180320 18082845  # SQL   						ubDBSQLite3ThreadSafe.TubSQLite3Statement(1727F7F0) INSERT INTO uba_audit (entity,entityinfo_id,actionType,actionUser,actionTime,remoteIP,targetUser,ID,fromValue) VALUES (?,?,?,?,?,?,?,?,?)
20180320 18082845  #  -    					00.000.099
20180320 18082845  #  -    				00.000.101
20180320 18082845  #  -    			00.000.189
20180320 18082845  #  -    		00.000.201
20180320 18082845  #  -    	00.000.205
20180320 18082845  #  +    	ubMixinClasses.TubStorageMixin(02B042C0).MixinMethod
20180320 18082845  # debug 		uba_audit.afterinsert(TubStorageMixin)
20180320 18082845  #  -    	00.000.003
20180320 18082845  # DB    	Commit connection "main"
20180320 18082845  # http  	127.0.0.1 <- 200
20180320 18082845  #  -    00.005.255
20180320 18082846  %  +    getDomainInfo?userName=admin&v=4
20180320 18082846  % http  	127.0.0.1 -> GET getDomainInfo?userName=admin&v=4
20180320 18082846  % auth  	admin/4605667
20180320 18082846  % call  	endpoint getDomainInfo
20180320 18082846  % http  	127.0.0.1 <- 304
20180320 18082846  %  -    00.001.964
20180320 18082847  .  +    models/UB/locale/lang-en.js?ubver=16b0a19c938f48c16b56a05da80f0dc2
20180320 18082847  '  +    models/UBA/locale/lang-en.js?ubver=77650b6a42c37186bfb44af18a505e71
20180320 18082847  . http  	127.0.0.1 -> GET models/UB/locale/lang-en.js?ubver=16b0a19c938f48c16b56a05da80f0dc2
20180320 18082847  ' http  	127.0.0.1 -> GET models/UBA/locale/lang-en.js?ubver=77650b6a42c37186bfb44af18a505e71
20180320 18082847  )  +    models/UBM/locale/lang-en.js?ubver=5d30adb331eaa71d9412558d2ace2271
20180320 18082847  $  +    models/UBS/locale/lang-en.js?ubver=16f6cb04f3b2b6a19844744bc20cc653
20180320 18082847  ) http  	127.0.0.1 -> GET models/UBM/locale/lang-en.js?ubver=5d30adb331eaa71d9412558d2ace2271
20180320 18082847  $ http  	127.0.0.1 -> GET models/UBS/locale/lang-en.js?ubver=16f6cb04f3b2b6a19844744bc20cc653
20180320 18082847  ' call  	endpoint models
20180320 18082847  $ call  	endpoint models
20180320 18082847  ) call  	endpoint models
20180320 18082847  . call  	endpoint models
20180320 18082847  . http  	127.0.0.1 <- 200
20180320 18082847  ) http  	127.0.0.1 <- 200
20180320 18082847  $ http  	127.0.0.1 <- 200
20180320 18082847  .  -    00.000.289
20180320 18082847  )  -    00.000.278
20180320 18082847  $  -    00.000.277
20180320 18082847  ' http  	127.0.0.1 <- 200
20180320 18082847  '  -    00.000.307
20180320 18082847  *  +    clientRequire/@unitybase/ubs/package.json
20180320 18082847  * http  	127.0.0.1 -> GET clientRequire/@unitybase/ubs/package.json
20180320 18082847  * call  	endpoint clientRequire
20180320 18082847  * info  	Call clientRequire 
20180320 18082847  * http  	127.0.0.1 <- 200
20180320 18082847  *  -    00.000.275
20180320 18082847  (  +    clientRequire/@unitybase/ubs/public/initModel.js
20180320 18082847  ( http  	127.0.0.1 -> GET clientRequire/@unitybase/ubs/public/initModel.js
20180320 18082847  ( call  	endpoint clientRequire
20180320 18082847  ( info  	Call clientRequire 
20180320 18082847  ( http  	127.0.0.1 <- 200
20180320 18082847  (  -    00.000.256
20180320 18082847  ,  +    clientRequire/@unitybase/ubs/public/dist/ubs.main.min.js?ubver=2018-03-20T20:03:34
20180320 18082847  , http  	127.0.0.1 -> GET clientRequire/@unitybase/ubs/public/dist/ubs.main.min.js?ubver=2018-03-20T20:03:34
20180320 18082847  , call  	endpoint clientRequire
20180320 18082847  , info  	Call clientRequire 
20180320 18082847  , http  	127.0.0.1 <- 200
20180320 18082847  ,  -    00.000.268
20180320 18082847  +  +    clientRequire/@unitybase/ubm/package.json
20180320 18082847  + http  	127.0.0.1 -> GET clientRequire/@unitybase/ubm/package.json
20180320 18082847  + call  	endpoint clientRequire
20180320 18082847  + info  	Call clientRequire 
20180320 18082847  + http  	127.0.0.1 <- 200
20180320 18082847  +  -    00.000.208
20180320 18082848  -  +    clientRequire/@unitybase/ubm/public/initModel.js
20180320 18082848  - http  	127.0.0.1 -> GET clientRequire/@unitybase/ubm/public/initModel.js
20180320 18082848  - call  	endpoint clientRequire
20180320 18082848  - info  	Call clientRequire 
20180320 18082848  - http  	127.0.0.1 <- 200
20180320 18082848  -  -    00.000.293
20180320 18082850  /  +    ubql
20180320 18082850  / http  	127.0.0.1 -> POST ubql
20180320 18082850  / http  	[{"entity":"ubs_settings","method":"select","fieldList":["ID","settingKey","name","description","type","settingValue","defaultValue"],"version":"1519981756"},{"entity":"ubm_desktop","method":"select","fieldList":["ID","caption","code","url","isDefault","mi_owner","mi_createDate","mi_createUser","mi_modifyDate","mi_modifyUser","mi_deleteDate","mi_deleteUser"],"version":"-1"},{"entity":"ubm_form","method":"select","fieldList":["ID","code","description","caption","formType","formDef","formCode","model","entity","isDefault","mi_owner","mi_createDate","mi_createUser","mi_modifyDate","mi_modifyUser"],"version":2613330792},{"entity":"ubm_enum","method":"select","fieldList":["ID","eGroup","code","shortName","name","sortOrder","mi_owner","mi_createDate","mi_createUser","mi_modifyDate","mi_modifyUser","mi_deleteDate","mi_deleteUser"],"version":"1519981756"}]
20180320 18082850  / auth  	admin/4605667
20180320 18082850  / call  	endpoint ubql
20180320 18082850  /  +    	ubMixinClasses.TubStorageMixin(02B042C0).MixinMethod
20180320 18082850  / debug 		ubs_settings.select(TubStorageMixin)
20180320 18082850  /  +    		ubApp.TubDataStore(20DE6B78).Init
20180320 18082850  /  +    			ubApp.TubApp(02AB3EE0).DBExecute
20180320 18082850  /  +    				ubApp.TubApp(02AB3EE0).TubApp.InternalDBExecute
20180320 18082850  / SQL   					ubDBSQLite3ThreadSafe.TubSQLite3Statement(1727F910) SELECT ( (SELECT COALESCE(strftime('%s',  MAX(mi_modifyDate)),1) FROM ubs_settings) ) AS dataVersion
20180320 18082850  /  -    				00.000.078
20180320 18082850  /  -    			00.000.166
20180320 18082850  / debug 			Query result for entity "ubs_settings" into data name "": row count=1
20180320 18082850  /  -    		00.000.175
20180320 18082850  /  -    	00.000.277
20180320 18082850  /  +    	ubMixinClasses.TubRLSMixin(02B04E20).MixinMethod
20180320 18082850  / debug 		ubm_desktop.select(TubRLSMixin)
20180320 18082850  / debug 		Prepare RLS expression for ubm_desktop
20180320 18082850  /  -    	00.000.213
20180320 18082850  /  +    	ubMixinClasses.TubStorageMixin(02B042C0).MixinMethod
20180320 18082850  / debug 		ubm_desktop.select(TubStorageMixin)
20180320 18082850  /  +    		ubApp.TubDataStore(20DEC528).Init
20180320 18082850  /  +    			ubApp.TubApp(02AB3EE0).DBExecute
20180320 18082850  /  +    				ubApp.TubApp(02AB3EE0).TubApp.InternalDBExecute
20180320 18082850  / debug 					P1: Int64		10
20180320 18082850  / debug 					P2: Int64		10
20180320 18082850  / debug 					P3: DateTime	9999-12-31T00:00:00
20180320 18082850  / SQL   					ubDBSQLite3ThreadSafe.TubSQLite3Statement(1727F430) SELECT A01.ID,A01.caption,A01.code,A01.url,A01.isDefault,A01.mi_owner,A01.mi_createDate,A01.mi_createUser,A01.mi_modifyDate,A01.mi_modifyUser,A01.mi_deleteDate,A01.mi_deleteUser  FROM ubm_desktop A01  WHERE (( A01.mi_owner = ? ) OR (1=1) OR exists (select 1 from ubm_desktop_adm admsubtable where admsubtable.instanceID = A01.ID and admsubtable.admSubjID in (select ur.RoleID from uba_userrole ur where ur.UserID = ? union select 10))) AND A01.mi_deleteDate=?
20180320 18082850  /  -    				00.000.146
20180320 18082850  /  -    			00.000.183
20180320 18082850  / debug 			Query result for entity "ubm_desktop" into data name "": row count=2
20180320 18082850  /  -    		00.000.198
20180320 18082850  /  -    	00.000.349
20180320 18082851  /  +    	ubMixinClasses.TubStorageMixin(02B042C0).MixinMethod
20180320 18082851  / debug 		ubm_enum.select(TubStorageMixin)
20180320 18082851  /  +    		ubApp.TubDataStore(20DEC640).Init
20180320 18082851  /  +    			ubApp.TubApp(02AB3EE0).DBExecute
20180320 18082851  /  +    				ubApp.TubApp(02AB3EE0).TubApp.InternalDBExecute
20180320 18082851  / SQL   					ubDBSQLite3ThreadSafe.TubSQLite3Statement(1727F970) SELECT ( (SELECT COALESCE(strftime('%s',  MAX(mi_modifyDate)),1) FROM ubm_enum) ) AS dataVersion
20180320 18082851  /  -    				00.000.070
20180320 18082851  /  -    			00.000.136
20180320 18082851  / debug 			Query result for entity "ubm_enum" into data name "": row count=1
20180320 18082851  /  -    		00.000.146
20180320 18082851  /  -    	00.000.284
20180320 18082851  / http  	127.0.0.1 <- 200
20180320 18082851  /  -    00.024.532
20180320 18082856  0  +    ubql
20180320 18082856  0 http  	127.0.0.1 -> POST ubql
20180320 18082856  0 http  	[{"entity":"ubm_navshortcut","method":"select","fieldList":["ID","desktopID","parentID","code","isFolder","caption","inWindow","isCollapsed","displayOrder","iconCls","mi_modifyDate"],"orderList":{"0":{"expression":"desktopID","order":"asc"},"1":{"expression":"parentID","order":"asc"},"2":{"expression":"displayOrder","order":"asc"},"3":{"expression":"caption","order":"asc"}}}]
20180320 18082856  0 auth  	admin/4605667
20180320 18082856  0 call  	endpoint ubql
20180320 18082856  0  +    	ubMixinClasses.TubRLSMixin(02B04E20).MixinMethod
20180320 18082856  0 debug 		ubm_navshortcut.select(TubRLSMixin)
20180320 18082856  0 debug 		Prepare RLS expression for ubm_navshortcut
20180320 18082856  0  -    	00.000.398
20180320 18082856  0  +    	ubMixinClasses.TubStorageMixin(02B042C0).MixinMethod
20180320 18082856  0 debug 		ubm_navshortcut.select(TubStorageMixin)
20180320 18082856  0  +    		ubApp.TubDataStore(20DEC2D0).Init
20180320 18082856  0  +    			ubApp.TubApp(02AB3EE0).DBExecute
20180320 18082856  0  +    				ubApp.TubApp(02AB3EE0).TubApp.InternalDBExecute
20180320 18082856  0 debug 					P1: Int64		10
20180320 18082856  0 debug 					P2: Int64		10
20180320 18082856  0 debug 					P3: DateTime	9999-12-31T00:00:00
20180320 18082856  0 SQL   					ubDBSQLite3ThreadSafe.TubSQLite3Statement(1727F8B0) SELECT A01.ID,A01.desktopID,A01.parentID,A01.code,A01.isFolder,A01.caption,A01.inWindow,A01.isCollapsed,A01.displayOrder,A01.iconCls,A01.mi_modifyDate  FROM ubm_navshortcut A01  WHERE (( A01.mi_owner = ? ) OR               (1=1) OR                             exists (select 1 from ubm_navshortcut_adm admsubtable where admsubtable.instanceID = A01.ID and admsubtable.admSubjID in (select ur.RoleID from uba_userrole ur where ur.UserID = ? union select 10))) AND A01.mi_deleteDate=? ORDER BY 2 ASC,3 ASC,9 ASC,6 ... (truncated) length=515
20180320 18082856  0  -    				00.000.320
20180320 18082856  0  -    			00.000.715
20180320 18082856  0 debug 			Query result for entity "ubm_navshortcut" into data name "": row count=33
20180320 18082856  0  -    		00.000.752
20180320 18082856  0  -    	00.001.068
20180320 18082856  0 http  	127.0.0.1 <- 200
20180320 18082856  0  -    00.001.827
20180320 18082861  "  +    models/adminui-pub/themes/UBGrayTheme/images/toolbar/more.png
20180320 18082861  " http  	127.0.0.1 -> GET models/adminui-pub/themes/UBGrayTheme/images/toolbar/more.png
20180320 18082861  " call  	endpoint models
20180320 18082861  " http  	127.0.0.1 <- 200
20180320 18082861  "  -    00.000.259
20180320 18082861  &  +    models/adminui-pub/themes/UBGrayTheme/images/grid/hd-pop.png
20180320 18082861  & http  	127.0.0.1 -> GET models/adminui-pub/themes/UBGrayTheme/images/grid/hd-pop.png
20180320 18082861  & call  	endpoint models
20180320 18082861  1  +    models/adminui-pub/themes/UBGrayTheme/images/button/default-toolbar-small-arrow.png
20180320 18082861  1 http  	127.0.0.1 -> GET models/adminui-pub/themes/UBGrayTheme/images/button/default-toolbar-small-arrow.png
20180320 18082861  & http  	127.0.0.1 <- 200
20180320 18082861  &  -    00.000.247
20180320 18082861  1 call  	endpoint models
20180320 18082861  1 http  	127.0.0.1 <- 200
20180320 18082861  1  -    00.000.224
20180320 18083356  %  +    models/adminui-pub/themes/UBGrayTheme/images/menu/menu-parent.png
20180320 18083356  #  +    models/adminui-pub/themes/UBGrayTheme/images/menu/scroll-top.png
20180320 18083356  .  +    models/adminui-pub/themes/UBGrayTheme/images/menu/scroll-bottom.png
20180320 18083356  # http  	127.0.0.1 -> GET models/adminui-pub/themes/UBGrayTheme/images/menu/scroll-top.png
20180320 18083356  % http  	127.0.0.1 -> GET models/adminui-pub/themes/UBGrayTheme/images/menu/menu-parent.png
20180320 18083356  . http  	127.0.0.1 -> GET models/adminui-pub/themes/UBGrayTheme/images/menu/scroll-bottom.png
20180320 18083356  # call  	endpoint models
20180320 18083356  . call  	endpoint models
20180320 18083356  % call  	endpoint models
20180320 18083356  % http  	127.0.0.1 <- 200
20180320 18083356  # http  	127.0.0.1 <- 200
20180320 18083356  %  -    00.000.308
20180320 18083356  #  -    00.000.307
20180320 18083356  . http  	127.0.0.1 <- 200
20180320 18083356  .  -    00.000.310
20180320 18083434  $  +    ubql
20180320 18083434  $ http  	127.0.0.1 -> POST ubql
20180320 18083434  $ http  	[{"entity":"ubm_navshortcut","method":"select","fieldList":["ID","cmdCode"],"whereList":{"c1":{"expression":"[ID]","condition":"equal","values":{"c1":335295365808129}}}}]
20180320 18083434  $ auth  	admin/4605667
20180320 18083434  $ call  	endpoint ubql
20180320 18083434  $  +    	ubMixinClasses.TubRLSMixin(02B04E20).MixinMethod
20180320 18083434  $ debug 		ubm_navshortcut.select(TubRLSMixin)
20180320 18083434  $ debug 		Prepare RLS expression for ubm_navshortcut
20180320 18083434  $  -    	00.000.240
20180320 18083434  $  +    	ubMixinClasses.TubStorageMixin(02B042C0).MixinMethod
20180320 18083434  $ debug 		ubm_navshortcut.select(TubStorageMixin)
20180320 18083434  $  +    		ubApp.TubDataStore(20DE6AD8).Init
20180320 18083434  $  +    			ubApp.TubApp(02AB3EE0).DBExecute
20180320 18083434  $  +    				ubApp.TubApp(02AB3EE0).TubApp.InternalDBExecute
20180320 18083434  $ debug 					P1: Int64		335295365808129
20180320 18083434  $ debug 					P2: Int64		10
20180320 18083434  $ debug 					P3: Int64		10
20180320 18083434  $ debug 					P4: DateTime	9999-12-31T00:00:00
20180320 18083434  $ SQL   					ubDBSQLite3ThreadSafe.TubSQLite3Statement(1727F5B0) SELECT A01.ID,A01.cmdCode  FROM ubm_navshortcut A01  WHERE A01.ID=? AND (( A01.mi_owner = ? ) OR               (1=1) OR                             exists (select 1 from ubm_navshortcut_adm admsubtable where admsubtable.instanceID = A01.ID and admsubtable.admSubjID in (select ur.RoleID from uba_userrole ur where ur.UserID = ? union select 10))) AND A01.mi_deleteDate=?
20180320 18083434  $  -    				00.000.142
20180320 18083434  $  -    			00.000.240
20180320 18083434  $ debug 			Query result for entity "ubm_navshortcut" into data name "": row count=1
20180320 18083434  $  -    		00.000.258
20180320 18083434  $  -    	00.000.393
20180320 18083434  $ http  	127.0.0.1 <- 200
20180320 18083434  $  -    00.000.992
20180320 18083438  )  +    models/adminui-pub/themes/UBGrayTheme/images/tab/tab-default-close-dark.png
20180320 18083438  ) http  	127.0.0.1 -> GET models/adminui-pub/themes/UBGrayTheme/images/tab/tab-default-close-dark.png
20180320 18083438  ) call  	endpoint models
20180320 18083438  ) http  	127.0.0.1 <- 200
20180320 18083438  )  -    00.000.328
20180320 18083440  '  +    models/adminui-pub/themes/UBGrayTheme/images/loadmask/loading.gif
20180320 18083440  ' http  	127.0.0.1 -> GET models/adminui-pub/themes/UBGrayTheme/images/loadmask/loading.gif
20180320 18083440  ' call  	endpoint models
20180320 18083440  ' http  	127.0.0.1 <- 200
20180320 18083440  '  -    00.000.376
20180320 18083441  *  +    models/adminui-pub/themes/UBGrayTheme/images/form/trigger.png
20180320 18083441  * http  	127.0.0.1 -> GET models/adminui-pub/themes/UBGrayTheme/images/form/trigger.png
20180320 18083441  * call  	endpoint models
20180320 18083441  * http  	127.0.0.1 <- 200
20180320 18083441  *  -    00.000.355
20180320 18083442  ,  +    models/adminui-pub/themes/UBGrayTheme/images/grid/page-next.png
20180320 18083442  (  +    models/adminui-pub/themes/UBGrayTheme/images/grid/page-prev.png
20180320 18083442  , http  	127.0.0.1 -> GET models/adminui-pub/themes/UBGrayTheme/images/grid/page-next.png
20180320 18083442  ( http  	127.0.0.1 -> GET models/adminui-pub/themes/UBGrayTheme/images/grid/page-prev.png
20180320 18083442  ( call  	endpoint models
20180320 18083442  , call  	endpoint models
20180320 18083442  +  +    models/adminui-pub/themes/UBGrayTheme/ubimages/sum.png
20180320 18083442  + http  	127.0.0.1 -> GET models/adminui-pub/themes/UBGrayTheme/ubimages/sum.png
20180320 18083442  + call  	endpoint models
20180320 18083442  , http  	127.0.0.1 <- 200
20180320 18083442  ( http  	127.0.0.1 <- 200
20180320 18083442  ,  -    00.000.331
20180320 18083442  (  -    00.000.330
20180320 18083442  + http  	127.0.0.1 <- 200
20180320 18083442  +  -    00.000.244
20180320 18083444  -  +    ubql
20180320 18083444  - http  	127.0.0.1 -> POST ubql
20180320 18083444  - http  	[{"entity":"req_depart","method":"select","fieldList":["ID","name"]},{"entity":"req_subDepart","method":"select","fieldList":["ID","name"]},{"entity":"req_reqList","method":"select","fieldList":["reqDate","applicantPhone","applicantInfo","department","subDepartment","reqText","reqDoc","answer","ID"],"options":{"limit":100,"start":0}}]
20180320 18083444  - auth  	admin/4605667
20180320 18083444  - call  	endpoint ubql
20180320 18083444  -  +    	ubMixinClasses.TubStorageMixin(02B042C0).MixinMethod
20180320 18083444  - debug 		req_depart.select(TubStorageMixin)
20180320 18083444  -  +    		ubApp.TubDataStore(20DEC2D0).Init
20180320 18083444  -  +    			ubApp.TubApp(02AB3EE0).DBExecute
20180320 18083444  -  +    				ubApp.TubApp(02AB3EE0).TubApp.InternalDBExecute
20180320 18083444  - SQL   					ubDBSQLite3ThreadSafe.TubSQLite3Statement(1727FA30) SELECT A01.ID,A01.name  FROM req_depart A01 
20180320 18083444  -  -    				00.000.051
20180320 18083444  -  -    			00.000.133
20180320 18083444  - debug 			Query result for entity "req_depart" into data name "": row count=1
20180320 18083444  -  -    		00.000.143
20180320 18083444  -  -    	00.000.210
20180320 18083444  -  +    	ubMixinClasses.TubStorageMixin(02B042C0).MixinMethod
20180320 18083444  - debug 		req_subDepart.select(TubStorageMixin)
20180320 18083444  -  +    		ubApp.TubDataStore(20DE8C48).Init
20180320 18083444  -  +    			ubApp.TubApp(02AB3EE0).DBExecute
20180320 18083444  -  +    				ubApp.TubApp(02AB3EE0).TubApp.InternalDBExecute
20180320 18083444  - SQL   					ubDBSQLite3ThreadSafe.TubSQLite3Statement(1727FB50) SELECT A01.ID,A01.name  FROM req_subDepart A01 
20180320 18083444  -  -    				00.000.026
20180320 18083444  -  -    			00.000.052
20180320 18083444  - debug 			Query result for entity "req_subDepart" into data name "": row count=0
20180320 18083444  -  -    		00.000.058
20180320 18083444  -  -    	00.000.100
20180320 18083444  -  +    	ubMixinClasses.TubStorageMixin(02B042C0).MixinMethod
20180320 18083444  - debug 		req_reqList.select(TubStorageMixin)
20180320 18083444  -  +    		ubApp.TubDataStore(20DE6B78).Init
20180320 18083444  -  +    			ubApp.TubApp(02AB3EE0).DBExecute
20180320 18083444  -  +    				ubApp.TubApp(02AB3EE0).TubApp.InternalDBExecute
20180320 18083444  - SQL   					ubDBSQLite3ThreadSafe.TubSQLite3Statement(1727FC70) SELECT A01.reqDate,A01.applicantPhone,A01.applicantInfo,A01.department,A01.subDepartment,A01.reqText,A01.reqDoc,A01.answer,A01.ID  FROM req_reqList A01  LIMIT 100 OFFSET 0 
20180320 18083444  -  -    				00.000.044
20180320 18083444  -  -    			00.000.072
20180320 18083444  - debug 			Query result for entity "req_reqList" into data name "": row count=0
20180320 18083444  -  -    		00.000.079
20180320 18083444  -  -    	00.000.185
20180320 18083444  - http  	127.0.0.1 <- 200
20180320 18083444  -  -    00.000.966
20180320 18084324  /  +    ubql
20180320 18084324  / http  	127.0.0.1 -> POST ubql
20180320 18084324  / http  	[{"entity":"ubm_navshortcut","method":"select","fieldList":["ID","cmdCode"],"whereList":{"c1":{"expression":"[ID]","condition":"equal","values":{"c1":335295153209345}}}}]
20180320 18084324  / auth  	admin/4605667
20180320 18084324  / call  	endpoint ubql
20180320 18084324  /  +    	ubMixinClasses.TubRLSMixin(02B04E20).MixinMethod
20180320 18084324  / debug 		ubm_navshortcut.select(TubRLSMixin)
20180320 18084324  / debug 		Prepare RLS expression for ubm_navshortcut
20180320 18084324  /  -    	00.000.204
20180320 18084324  /  +    	ubMixinClasses.TubStorageMixin(02B042C0).MixinMethod
20180320 18084324  / debug 		ubm_navshortcut.select(TubStorageMixin)
20180320 18084324  /  +    		ubApp.TubDataStore(20DEC2D0).Init
20180320 18084324  /  +    			ubApp.TubApp(02AB3EE0).DBExecute
20180320 18084324  /  +    				ubApp.TubApp(02AB3EE0).TubApp.InternalDBExecute
20180320 18084324  / debug 					P1: Int64		335295153209345
20180320 18084324  / debug 					P2: Int64		10
20180320 18084324  / debug 					P3: Int64		10
20180320 18084324  / debug 					P4: DateTime	9999-12-31T00:00:00
20180320 18084324  / SQL   					ubDBSQLite3ThreadSafe.TubSQLite3Statement(1727D270) SELECT A01.ID,A01.cmdCode  FROM ubm_navshortcut A01  WHERE A01.ID=? AND (( A01.mi_owner = ? ) OR               (1=1) OR                             exists (select 1 from ubm_navshortcut_adm admsubtable where admsubtable.instanceID = A01.ID and admsubtable.admSubjID in (select ur.RoleID from uba_userrole ur where ur.UserID = ? union select 10))) AND A01.mi_deleteDate=?
20180320 18084324  /  -    				00.000.134
20180320 18084324  /  -    			00.000.224
20180320 18084324  / debug 			Query result for entity "ubm_navshortcut" into data name "": row count=1
20180320 18084324  /  -    		00.000.240
20180320 18084324  /  -    	00.000.367
20180320 18084324  / http  	127.0.0.1 <- 200
20180320 18084324  /  -    00.000.894
20180320 18084332  0  +    ubql
20180320 18084332  0 http  	127.0.0.1 -> POST ubql
20180320 18084332  0 http  	[{"entity":"ubm_navshortcut","method":"select","fieldList":["desktopID","code","isFolder","caption","cmdCode","inWindow","isCollapsed","displayOrder","iconCls","ID","mi_modifyDate"],"options":{"limit":100,"start":0}}]
20180320 18084332  0 auth  	admin/4605667
20180320 18084332  0 call  	endpoint ubql
20180320 18084332  0  +    	ubMixinClasses.TubRLSMixin(02B04E20).MixinMethod
20180320 18084332  0 debug 		ubm_navshortcut.select(TubRLSMixin)
20180320 18084332  0 debug 		Prepare RLS expression for ubm_navshortcut
20180320 18084332  0  -    	00.000.233
20180320 18084332  0  +    	ubMixinClasses.TubStorageMixin(02B042C0).MixinMethod
20180320 18084332  0 debug 		ubm_navshortcut.select(TubStorageMixin)
20180320 18084332  0  +    		ubApp.TubDataStore(20DE8C48).Init
20180320 18084332  0  +    			ubApp.TubApp(02AB3EE0).DBExecute
20180320 18084332  0  +    				ubApp.TubApp(02AB3EE0).TubApp.InternalDBExecute
20180320 18084332  0 debug 					P1: Int64		10
20180320 18084332  0 debug 					P2: Int64		10
20180320 18084332  0 debug 					P3: DateTime	9999-12-31T00:00:00
20180320 18084332  0 SQL   					ubDBSQLite3ThreadSafe.TubSQLite3Statement(1727FE50) SELECT A01.desktopID,A01.code,A01.isFolder,A01.caption,A01.cmdCode,A01.inWindow,A01.isCollapsed,A01.displayOrder,A01.iconCls,A01.ID,A01.mi_modifyDate  FROM ubm_navshortcut A01  WHERE (( A01.mi_owner = ? ) OR               (1=1) OR                             exists (select 1 from ubm_navshortcut_adm admsubtable where admsubtable.instanceID = A01.ID and admsubtable.admSubjID in (select ur.RoleID from uba_userrole ur where ur.UserID = ? union select 10))) AND A01.mi_deleteDate=? LIMIT 100 OFFSET 0 
20180320 18084332  0  -    				00.000.154
20180320 18084332  0  -    			00.000.314
20180320 18084332  0 debug 			Query result for entity "ubm_navshortcut" into data name "": row count=33
20180320 18084332  0  -    		00.000.366
20180320 18084332  0  -    	00.000.542
20180320 18084332  0 http  	127.0.0.1 <- 200
20180320 18084332  0  -    00.001.226
20180320 18084342  "  +    ubql
20180320 18084342  " http  	127.0.0.1 -> POST ubql
20180320 18084342  " http  	[{"entity":"ubm_desktop","method":"select","fieldList":["ID","caption","mi_modifyDate"],"version":"-1"}]
20180320 18084342  " auth  	admin/4605667
20180320 18084342  " call  	endpoint ubql
20180320 18084342  "  +    	ubMixinClasses.TubRLSMixin(02B04E20).MixinMethod
20180320 18084342  " debug 		ubm_desktop.select(TubRLSMixin)
20180320 18084342  " debug 		Prepare RLS expression for ubm_desktop
20180320 18084342  "  -    	00.000.735
20180320 18084342  "  +    	ubMixinClasses.TubStorageMixin(02B042C0).MixinMethod
20180320 18084342  " debug 		ubm_desktop.select(TubStorageMixin)
20180320 18084342  "  +    		ubApp.TubDataStore(20DEC500).Init
20180320 18084342  "  +    			ubApp.TubApp(02AB3EE0).DBExecute
20180320 18084342  "  +    				ubApp.TubApp(02AB3EE0).TubApp.InternalDBExecute
20180320 18084342  " debug 					P1: Int64		10
20180320 18084342  " debug 					P2: Int64		10
20180320 18084342  " debug 					P3: DateTime	9999-12-31T00:00:00
20180320 18084342  " SQL   					ubDBSQLite3ThreadSafe.TubSQLite3Statement(1727E110) SELECT A01.ID,A01.caption,A01.mi_modifyDate  FROM ubm_desktop A01  WHERE (( A01.mi_owner = ? ) OR (1=1) OR exists (select 1 from ubm_desktop_adm admsubtable where admsubtable.instanceID = A01.ID and admsubtable.admSubjID in (select ur.RoleID from uba_userrole ur where ur.UserID = ? union select 10))) AND A01.mi_deleteDate=?
20180320 18084342  "  -    				00.000.026
20180320 18084342  "  -    			00.000.131
20180320 18084342  " debug 			Query result for entity "ubm_desktop" into data name "": row count=2
20180320 18084342  "  -    		00.000.148
20180320 18084342  "  -    	00.000.273
20180320 18084342  " http  	127.0.0.1 <- 200
20180320 18084342  "  -    00.001.319
20180320 18084655  &  +    models/adminui-pub/themes/UBGrayTheme/ubimages/globe.svg
20180320 18084655  & http  	127.0.0.1 -> GET models/adminui-pub/themes/UBGrayTheme/ubimages/globe.svg
20180320 18084655  & call  	endpoint models
20180320 18084655  & http  	127.0.0.1 <- 200
20180320 18084655  &  -    00.000.299
20180320 18084655  1  +    models/adminui-pub/themes/UBGrayTheme/images/form/checkbox.png
20180320 18084655  1 http  	127.0.0.1 -> GET models/adminui-pub/themes/UBGrayTheme/images/form/checkbox.png
20180320 18084655  1 call  	endpoint models
20180320 18084655  1 http  	127.0.0.1 <- 200
20180320 18084655  1  -    00.000.273
20180320 18084657  #  +    clientRequire/@unitybase/adminui-pub/dist/adminui.4.min.js
20180320 18084657  # http  	127.0.0.1 -> GET clientRequire/@unitybase/adminui-pub/dist/adminui.4.min.js
20180320 18084657  # call  	endpoint clientRequire
20180320 18084657  # info  	Call clientRequire 
20180320 18084657  # http  	127.0.0.1 <- 200
20180320 18084657  #  -    00.000.430
20180320 18084662  %  +    ubql
20180320 18084662  % http  	127.0.0.1 -> POST ubql
20180320 18084662  % http  	[{"entity":"ubm_navshortcut","fieldList":["ID","desktopID","parentID","caption","code","iconCls","isFolder","inWindow","isCollapsed","displayOrder","cmdCode","mi_modifyDate","mi_treePath"],"ID":335295365808129,"alsNeed":false,"method":"select"}]
20180320 18084662  % auth  	admin/4605667
20180320 18084662  % call  	endpoint ubql
20180320 18084700  %  +    	ubMixinClasses.TubRLSMixin(02B04E20).MixinMethod
20180320 18084700  % debug 		ubm_navshortcut.select(TubRLSMixin)
20180320 18084700  % debug 		Prepare RLS expression for ubm_navshortcut
20180320 18084700  %  -    	00.000.245
20180320 18084700  %  +    	ubMixinClasses.TubStorageMixin(02B042C0).MixinMethod
20180320 18084700  % debug 		ubm_navshortcut.select(TubStorageMixin)
20180320 18084700  %  +    		ubApp.TubDataStore(072684F0).Init
20180320 18084700  %  +    			ubApp.TubApp(02AB3EE0).DBExecute
20180320 18084700  %  +    				ubApp.TubApp(02AB3EE0).TubApp.InternalDBExecute
20180320 18084700  % debug 					P1: Int64		10
20180320 18084700  % debug 					P2: Int64		10
20180320 18084700  % debug 					P3: Int64		335295365808129
20180320 18084700  % debug 					P4: DateTime	9999-12-31T00:00:00
20180320 18084700  % SQL   					ubDBSQLite3ThreadSafe.TubSQLite3Statement(1727FBB0) SELECT A01.ID,A01.desktopID,A01.parentID,A01.caption,A01.code,A01.iconCls,A01.isFolder,A01.inWindow,A01.isCollapsed,A01.displayOrder,A01.cmdCode,A01.mi_modifyDate,A01.mi_treePath  FROM ubm_navshortcut A01  WHERE (( A01.mi_owner = ? ) OR               (1=1) OR                             exists (select 1 from ubm_navshortcut_adm admsubtable where admsubtable.instanceID = A01.ID and admsubtable.admSubjID in (select ur.RoleID from uba_userrole ur where ur.UserID = ? union select 10))) AND A01.ID=? AND A01.mi_d... (truncated) length=523
20180320 18084700  %  -    				00.000.166
20180320 18084700  %  -    			00.000.281
20180320 18084700  % debug 			Query result for entity "ubm_navshortcut" into data name "": row count=1
20180320 18084700  %  -    		00.000.300
20180320 18084700  %  -    	00.000.502
20180320 18084700  % http  	127.0.0.1 <- 200
20180320 18084700  %  -    00.001.122
20180320 18084703  .  +    models/adminui-pub/themes/UBGrayTheme/images/tree/leaf.png
20180320 18084703  . http  	127.0.0.1 -> GET models/adminui-pub/themes/UBGrayTheme/images/tree/leaf.png
20180320 18084703  . call  	endpoint models
20180320 18084703  $  +    models/adminui-pub/themes/UBGrayTheme/images/tree/arrows.png
20180320 18084703  $ http  	127.0.0.1 -> GET models/adminui-pub/themes/UBGrayTheme/images/tree/arrows.png
20180320 18084703  )  +    models/adminui-pub/themes/UBGrayTheme/images/tree/folder.png
20180320 18084703  ) http  	127.0.0.1 -> GET models/adminui-pub/themes/UBGrayTheme/images/tree/folder.png
20180320 18084703  $ call  	endpoint models
20180320 18084703  ) call  	endpoint models
20180320 18084703  . http  	127.0.0.1 <- 200
20180320 18084703  .  -    00.000.356
20180320 18084703  $ http  	127.0.0.1 <- 200
20180320 18084703  ) http  	127.0.0.1 <- 200
20180320 18084703  $  -    00.000.216
20180320 18084703  )  -    00.000.213
20180320 18101919  '  +    getAppInfo
20180320 18101919  ' http  	127.0.0.1 -> GET getAppInfo
20180320 18101919  ' call  	endpoint getAppInfo
20180320 18101919  ' http  	127.0.0.1 <- 200
20180320 18101919  '  -    00.000.736
20180320 18102304  *  +    logout
20180320 18102304  * http  	127.0.0.1 -> POST logout
20180320 18102304  * http  	{}
20180320 18102304  * auth  	admin/4605667
20180320 18102304  * call  	endpoint logout
20180320 18102304  * auth  	Session closed admin/4605667/127.0.0.1
20180320 18102304  * http  	127.0.0.1 <- 200
20180320 18102304  *  -    00.000.305
20180320 18102304  ,  +    adm
20180320 18102304  , http  	127.0.0.1 -> GET adm
20180320 18102304  , call  	endpoint adm
20180320 18102304  , http  	127.0.0.1 <- 200
20180320 18102304  ,  -    00.001.558
20180320 18102305  /  +    models/adminui-pub/themes/UBGrayTheme/ub.css?ver=d41d8cd98f00b204e9800998ecf8427e
20180320 18102305  +  +    models/adminui-pub/ub-css-all.css?ver=d41d8cd98f00b204e9800998ecf8427e
20180320 18102305  (  +    models/adminui-pub/themes/UBGrayTheme/UBGrayTheme-all.css?ver=d41d8cd98f00b204e9800998ecf8427e
20180320 18102305  -  +    clientRequire/font-awesome/css/font-awesome.min.css
20180320 18102305  / http  	127.0.0.1 -> GET models/adminui-pub/themes/UBGrayTheme/ub.css?ver=d41d8cd98f00b204e9800998ecf8427e
20180320 18102305  0  +    clientRequire/es6-promise/dist/es6-promise.auto.min.js
20180320 18102305  ( http  	127.0.0.1 -> GET models/adminui-pub/themes/UBGrayTheme/UBGrayTheme-all.css?ver=d41d8cd98f00b204e9800998ecf8427e
20180320 18102305  + http  	127.0.0.1 -> GET models/adminui-pub/ub-css-all.css?ver=d41d8cd98f00b204e9800998ecf8427e
20180320 18102305  - http  	127.0.0.1 -> GET clientRequire/font-awesome/css/font-awesome.min.css
20180320 18102305  0 http  	127.0.0.1 -> GET clientRequire/es6-promise/dist/es6-promise.auto.min.js
20180320 18102305  "  +    clientRequire/systemjs/dist/system.js?ver=d41d8cd98f00b204e9800998ecf8427e
20180320 18102305  " http  	127.0.0.1 -> GET clientRequire/systemjs/dist/system.js?ver=d41d8cd98f00b204e9800998ecf8427e
20180320 18102305  0 call  	endpoint clientRequire
20180320 18102305  - call  	endpoint clientRequire
20180320 18102305  / call  	endpoint models
20180320 18102305  " call  	endpoint clientRequire
20180320 18102305  ( call  	endpoint models
20180320 18102305  " info  	Call clientRequire 
20180320 18102305  - info  	Call clientRequire 
20180320 18102305  / http  	127.0.0.1 <- 200
20180320 18102305  " http  	127.0.0.1 <- 200
20180320 18102305  /  -    00.000.536
20180320 18102305  "  -    00.000.482
20180320 18102305  + call  	endpoint models
20180320 18102305  - http  	127.0.0.1 <- 200
20180320 18102305  -  -    00.000.658
20180320 18102305  ( http  	127.0.0.1 <- 200
20180320 18102305  (  -    00.001.089
20180320 18102305  + http  	127.0.0.1 <- 200
20180320 18102305  +  -    00.001.126
20180320 18102305  0 info  	Call clientRequire 
20180320 18102305  0 http  	127.0.0.1 <- 200
20180320 18102305  0  -    00.002.405
20180320 18102305  &  +    models/adminui-pub/dist/ext-all.min.js?ver=d41d8cd98f00b204e9800998ecf8427e
20180320 18102305  & http  	127.0.0.1 -> GET models/adminui-pub/dist/ext-all.min.js?ver=d41d8cd98f00b204e9800998ecf8427e
20180320 18102305  & call  	endpoint models
20180320 18102305  & http  	127.0.0.1 <- 200
20180320 18102305  &  -    00.000.485
20180320 18102309  1  +    clientRequire/font-awesome/fonts/fontawesome-webfont.woff2?v=4.7.0
20180320 18102309  1 http  	127.0.0.1 -> GET clientRequire/font-awesome/fonts/fontawesome-webfont.woff2?v=4.7.0
20180320 18102309  1 call  	endpoint clientRequire
20180320 18102309  1 info  	Call clientRequire 
20180320 18102309  1 http  	127.0.0.1 <- 200
20180320 18102309  1  -    00.000.478
20180320 18102333  #  +    clientRequire/@unitybase/adminui-pub/package.json
20180320 18102333  # http  	127.0.0.1 -> GET clientRequire/@unitybase/adminui-pub/package.json
20180320 18102333  # call  	endpoint clientRequire
20180320 18102333  # info  	Call clientRequire 
20180320 18102333  # http  	127.0.0.1 <- 200
20180320 18102333  #  -    00.000.441
20180320 18102333  %  +    clientRequire/@unitybase/adminui-pub/dist/adminui.app.min.js
20180320 18102333  .  +    models/UB/img/UBLogo32.png
20180320 18102333  % http  	127.0.0.1 -> GET clientRequire/@unitybase/adminui-pub/dist/adminui.app.min.js
20180320 18102333  . http  	127.0.0.1 -> GET models/UB/img/UBLogo32.png
20180320 18102333  % call  	endpoint clientRequire
20180320 18102333  . call  	endpoint models
20180320 18102333  . http  	127.0.0.1 <- 200
20180320 18102333  .  -    00.000.530
20180320 18102333  % info  	Call clientRequire 
20180320 18102333  % http  	127.0.0.1 <- 200
20180320 18102333  %  -    00.001.414
20180320 18102334  $  +    models/UB/img/UBLogo48.png
20180320 18102334  $ http  	127.0.0.1 -> GET models/UB/img/UBLogo48.png
20180320 18102334  $ call  	endpoint models
20180320 18102334  $ http  	127.0.0.1 <- 200
20180320 18102334  $  -    00.000.335
20180320 18102334  )  +    models/UB/img/UBLogo128.png
20180320 18102334  ) http  	127.0.0.1 -> GET models/UB/img/UBLogo128.png
20180320 18102334  ) call  	endpoint models
20180320 18102334  ) http  	127.0.0.1 <- 200
20180320 18102334  )  -    00.000.560
20180320 18102347  '  +    getAppInfo
20180320 18102347  ' http  	127.0.0.1 -> GET getAppInfo
20180320 18102347  ' call  	endpoint getAppInfo
20180320 18102347  *  +    clientRequire/@unitybase/adminui-pub/themes/UBGrayTheme/UBGrayTheme.js
20180320 18102347  * http  	127.0.0.1 -> GET clientRequire/@unitybase/adminui-pub/themes/UBGrayTheme/UBGrayTheme.js
20180320 18102347  ' http  	127.0.0.1 <- 304
20180320 18102347  '  -    00.000.239
20180320 18102347  * call  	endpoint clientRequire
20180320 18102347  * info  	Call clientRequire 
20180320 18102347  * http  	127.0.0.1 <- 200
20180320 18102347  *  -    00.000.305
20180320 18102348  ,  +    models/adminui-pub/locale/lang-en.js?ubver=3865914637ef7cd48187d30356b8b4b0
20180320 18102348  "  +    models/UB/img/UBLogo16.ico
20180320 18102348  , http  	127.0.0.1 -> GET models/adminui-pub/locale/lang-en.js?ubver=3865914637ef7cd48187d30356b8b4b0
20180320 18102348  " http  	127.0.0.1 -> GET models/UB/img/UBLogo16.ico
20180320 18102348  , call  	endpoint models
20180320 18102348  " call  	endpoint models
20180320 18102348  , http  	127.0.0.1 <- 200
20180320 18102348  ,  -    00.000.273
20180320 18102348  " http  	127.0.0.1 <- 200
20180320 18102348  "  -    00.000.275
20180320 18102349  /  +    models/adminui-pub/themes/UBGrayTheme/images/form/exclamation.png
20180320 18102349  / http  	127.0.0.1 -> GET models/adminui-pub/themes/UBGrayTheme/images/form/exclamation.png
20180320 18102349  / call  	endpoint models
20180320 18102349  / http  	127.0.0.1 <- 200
20180320 18102349  /  -    00.000.283
20180320 18102458  -  +    auth?AUTHTYPE=UB&userName=admin
20180320 18102458  - http  	127.0.0.1 -> POST auth?AUTHTYPE=UB&userName=admin
20180320 18102458  - call  	endpoint auth
20180320 18102458  - http  	127.0.0.1 <- 200
20180320 18102458  -  -    00.000.248
20180320 18102458  +  +    auth?AUTHTYPE=UB&clientNonce=83b270f98c51273b6053e809dc57f367b1560ebdb285da21de9f3bcaca42a8ff&password=baf5a5024827d6d8f4fc1b328c9421648fcdef36a487745c56ffa9b90a6fb31b&userName=admin
20180320 18102458  + http  	127.0.0.1 -> POST auth?AUTHTYPE=UB&clientNonce=83b270f98c51273b6053e809dc57f367b1560ebdb285da21de9f3bcaca42a8ff&password=baf5a5024827d6d8f4fc1b328c9421648fcdef36a487745c56ffa9b90a6fb31b&userName=admin
20180320 18102458  + call  	endpoint auth
20180320 18102458  +  +    	ubApp.TubDataStore(04B9CB98).Init
20180320 18102458  +  +    		ubApp.TubApp(02AB3EE0).DBExecute
20180320 18102458  +  +    			ubApp.TubApp(02AB3EE0).TubApp.InternalDBExecute
20180320 18102458  + debug 				P1: String(5)	admin
20180320 18102458  + SQL   				ubDBSQLite3ThreadSafe.TubSQLite3Statement(1727F9D0) select id, name, uPasswordHashHexa, uData, isPending, trustedIP from UBA_USER where name=? and disabled=0
20180320 18102458  +  -    			00.000.095
20180320 18102458  +  -    		00.000.205
20180320 18102458  + debug 		Query result for entity "uba_user" into data name "": row count=1
20180320 18102458  +  -    	00.000.248
20180320 18102458  +  +    	ubApp.TubDataStore(04B9CB98).Init
20180320 18102458  +  +    		ubApp.TubApp(02AB3EE0).DBExecute
20180320 18102458  +  +    			ubApp.TubApp(02AB3EE0).TubApp.InternalDBExecute
20180320 18102458  + debug 				P1: Int64		10
20180320 18102458  + SQL   				ubDBSQLite3ThreadSafe.TubSQLite3Statement(1727E1D0) SELECT lastPasswordChangeDate FROM uba_user WHERE id=?
20180320 18102458  +  -    			00.000.025
20180320 18102458  +  -    		00.000.053
20180320 18102458  + debug 		Query result for entity "uba_user" into data name "__expireDate": row count=1
20180320 18102458  +  -    	00.000.061
20180320 18102458  +  +    	ubApp.TubDataStore(072684F0).Init
20180320 18102458  +  +    		ubApp.TubApp(02AB3EE0).DBExecute
20180320 18102458  +  +    			ubApp.TubApp(02AB3EE0).TubApp.InternalDBExecute
20180320 18102458  + debug 				P1: Int64		10
20180320 18102458  + SQL   				ubDBSQLite3ThreadSafe.TubSQLite3Statement(1727FDF0) SELECT A01.roleID,A02.name,A02.description  FROM uba_userrole A01  INNER JOIN uba_role A02 ON A02.ID=A01.roleID  WHERE A01.userID=?
20180320 18102458  +  -    			00.000.050
20180320 18102458  +  -    		00.000.088
20180320 18102458  + debug 		Query result for entity "uba_userrole" into data name "": row count=1
20180320 18102458  +  -    	00.000.098
20180320 18102458  + auth  	New session admin/4605666 created at 127.0.0.1/-144115186465243081 using Mozilla/5.0 (Windows NT 6.3; Win64; x64) AppleWebKit/537.36 (KHTML, like Gecko) Chrome/64.0.3282.186 Safari/537.36 OPR/51.0.2830.55
20180320 18102458  +  +    	ubMixinClasses.TubStorageMixin(02B042C0).MixinMethod
20180320 18102458  + debug 		uba_user.select(TubStorageMixin)
20180320 18102458  +  +    		ubApp.TubDataStore(072684F0).Init
20180320 18102458  +  +    			ubApp.TubApp(02AB3EE0).DBExecute
20180320 18102458  +  +    				ubApp.TubApp(02AB3EE0).TubApp.InternalDBExecute
20180320 18102458  + debug 					P1: Int64		10
20180320 18102458  + SQL   					ubDBSQLite3ThreadSafe.TubSQLite3Statement(1727FEB0) SELECT A01.name  FROM uba_user A01  WHERE A01.ID=?
20180320 18102458  +  -    				00.000.058
20180320 18102458  +  -    			00.000.121
20180320 18102458  + debug 			Query result for entity "uba_user" into data name "": row count=1
20180320 18102458  +  -    		00.000.141
20180320 18102458  +  -    	00.000.221
20180320 18102458  +  +    	ubMixinClasses.TubStorageMixin(02B042C0).MixinMethod
20180320 18102458  + debug 		uba_advSecurity.select(TubStorageMixin)
20180320 18102458  +  +    		ubApp.TubDataStore(072684F0).Init
20180320 18102458  +  +    			ubApp.TubApp(02AB3EE0).DBExecute
20180320 18102458  +  +    				ubApp.TubApp(02AB3EE0).TubApp.InternalDBExecute
20180320 18102458  + debug 					P1: Int64		10
20180320 18102458  + SQL   					ubDBSQLite3ThreadSafe.TubSQLite3Statement(1727FF70) SELECT A01.ID,A01.allowedIP,A01.refreshIP,A01.fp,A01.refreshFp,A01.keyMediaName,A01.refreshKeyMedia,A01.mi_modifyDate  FROM uba_advSecurity A01  WHERE A01.userID=?
20180320 18102458  +  -    				00.000.050
20180320 18102458  +  -    			00.000.089
20180320 18102458  + debug 			Query result for entity "uba_advSecurity" into data name "": row count=0
20180320 18102458  +  -    		00.000.099
20180320 18102458  +  -    	00.000.202
20180320 18102458  +  +    	ubMixinClasses.TubStorageMixin(02B042C0).MixinMethod
20180320 18102458  + debug 		uba_userrole.select(TubStorageMixin)
20180320 18102458  +  +    		ubApp.TubDataStore(072684F0).Init
20180320 18102458  +  +    			ubApp.TubApp(02AB3EE0).DBExecute
20180320 18102458  +  +    				ubApp.TubApp(02AB3EE0).TubApp.InternalDBExecute
20180320 18102458  + debug 					P1: Int64		10
20180320 18102458  + SQL   					ubDBSQLite3ThreadSafe.TubSQLite3Statement(1727FFD0) SELECT A01.ID,A02.name,A01.roleID  FROM uba_userrole A01  INNER JOIN uba_role A02 ON A02.ID=A01.roleID  WHERE A01.userID=?
20180320 18102458  +  -    				00.000.054
20180320 18102458  +  -    			00.000.174
20180320 18102458  + debug 			Query result for entity "uba_userrole" into data name "": row count=1
20180320 18102458  +  -    		00.000.184
20180320 18102458  +  -    	00.000.257
20180320 18102458  +  +    	ubMixinClasses.TubStorageMixin(02B042C0).MixinMethod
20180320 18102458  + debug 		uba_audit.beforeinsert(TubStorageMixin)
20180320 18102458  +  -    	00.000.007
20180320 18102458  +  +    	ubMixinClasses.TubStorageMixin(02B042C0).MixinMethod
20180320 18102458  + debug 		uba_audit.insert(TubStorageMixin)
20180320 18102458  +  +    		ubApp.TubDataStore(07229A10).TubDataStore.ExecuteInsertFromList
20180320 18102458  +  +    			ubApp.TubDataStore(07229A10).TubDataStore.ExecuteInsertFromSQL
20180320 18102458  +  +    				ubApp.TubApp(02AB3EE0).DBExecute
20180320 18102458  +  +    					ubApp.TubApp(02AB3EE0).TubApp.InternalDBExecute
20180320 18102458  + debug 						P1: String(8)	uba_user
20180320 18102458  + debug 						P2: Int64		10
20180320 18102458  + debug 						P3: String(5)	LOGIN
20180320 18102458  + debug 						P4: Int64		10
20180320 18102458  + debug 						P5: DateTime	2018-03-20T18:10:24
20180320 18102458  + debug 						P6: String(9)	127.0.0.1
20180320 18102458  + debug 						P7: String(5)	admin
20180320 18102458  + debug 						P8: Int64		335498374742017
20180320 18102458  + debug 						P9: String(407..)	Connection: keep-alive  Content-Length: 0  Accept: application/json, text/plain, */*  Accept-Encodin...
20180320 18102458  + DB    						StartTransaction for connection "main"
20180320 18102458  + SQL   						ubDBSQLite3ThreadSafe.TubSQLite3Statement(17280090) INSERT INTO uba_audit (entity,entityinfo_id,actionType,actionUser,actionTime,remoteIP,targetUser,ID,fromValue) VALUES (?,?,?,?,?,?,?,?,?)
20180320 18102458  +  -    					00.000.107
20180320 18102458  +  -    				00.000.109
20180320 18102458  +  -    			00.000.199
20180320 18102458  +  -    		00.000.211
20180320 18102458  +  -    	00.000.216
20180320 18102458  +  +    	ubMixinClasses.TubStorageMixin(02B042C0).MixinMethod
20180320 18102458  + debug 		uba_audit.afterinsert(TubStorageMixin)
20180320 18102458  +  -    	00.000.004
20180320 18102458  + DB    	Commit connection "main"
20180320 18102458  + http  	127.0.0.1 <- 200
20180320 18102458  +  -    00.005.887
20180320 18102459  0  +    getDomainInfo?userName=admin&v=4
20180320 18102459  0 http  	127.0.0.1 -> GET getDomainInfo?userName=admin&v=4
20180320 18102459  0 auth  	admin/4605666
20180320 18102459  0 call  	endpoint getDomainInfo
20180320 18102459  0 http  	127.0.0.1 <- 304
20180320 18102459  0  -    00.002.151
20180320 18102461  (  +    models/UB/locale/lang-en.js?ubver=16b0a19c938f48c16b56a05da80f0dc2
20180320 18102461  1  +    models/UBA/locale/lang-en.js?ubver=77650b6a42c37186bfb44af18a505e71
20180320 18102461  ( http  	127.0.0.1 -> GET models/UB/locale/lang-en.js?ubver=16b0a19c938f48c16b56a05da80f0dc2
20180320 18102461  1 http  	127.0.0.1 -> GET models/UBA/locale/lang-en.js?ubver=77650b6a42c37186bfb44af18a505e71
20180320 18102461  1 call  	endpoint models
20180320 18102461  ( call  	endpoint models
20180320 18102461  &  +    models/UBS/locale/lang-en.js?ubver=16f6cb04f3b2b6a19844744bc20cc653
20180320 18102461  & http  	127.0.0.1 -> GET models/UBS/locale/lang-en.js?ubver=16f6cb04f3b2b6a19844744bc20cc653
20180320 18102461  #  +    models/UBM/locale/lang-en.js?ubver=5d30adb331eaa71d9412558d2ace2271
20180320 18102461  # http  	127.0.0.1 -> GET models/UBM/locale/lang-en.js?ubver=5d30adb331eaa71d9412558d2ace2271
20180320 18102461  # call  	endpoint models
20180320 18102461  & call  	endpoint models
20180320 18102461  ( http  	127.0.0.1 <- 200
20180320 18102461  (  -    00.000.433
20180320 18102461  & http  	127.0.0.1 <- 200
20180320 18102461  &  -    00.000.266
20180320 18102461  1 http  	127.0.0.1 <- 200
20180320 18102461  1  -    00.000.586
20180320 18102461  # http  	127.0.0.1 <- 200
20180320 18102461  #  -    00.000.395
20180320 18102461  .  +    clientRequire/@unitybase/ubs/package.json
20180320 18102461  . http  	127.0.0.1 -> GET clientRequire/@unitybase/ubs/package.json
20180320 18102461  . call  	endpoint clientRequire
20180320 18102461  . info  	Call clientRequire 
20180320 18102461  . http  	127.0.0.1 <- 200
20180320 18102461  .  -    00.000.322
20180320 18102461  $  +    clientRequire/@unitybase/ubs/public/initModel.js
20180320 18102461  $ http  	127.0.0.1 -> GET clientRequire/@unitybase/ubs/public/initModel.js
20180320 18102461  $ call  	endpoint clientRequire
20180320 18102461  $ info  	Call clientRequire 
20180320 18102461  $ http  	127.0.0.1 <- 200
20180320 18102461  $  -    00.000.257
20180320 18102461  %  +    clientRequire/@unitybase/ubs/public/dist/ubs.main.min.js?ubver=2018-03-20T20:03:34
20180320 18102461  % http  	127.0.0.1 -> GET clientRequire/@unitybase/ubs/public/dist/ubs.main.min.js?ubver=2018-03-20T20:03:34
20180320 18102461  % call  	endpoint clientRequire
20180320 18102461  % info  	Call clientRequire 
20180320 18102461  % http  	127.0.0.1 <- 200
20180320 18102461  %  -    00.000.313
20180320 18102461  )  +    clientRequire/@unitybase/ubm/package.json
20180320 18102461  ) http  	127.0.0.1 -> GET clientRequire/@unitybase/ubm/package.json
20180320 18102461  ) call  	endpoint clientRequire
20180320 18102461  ) info  	Call clientRequire 
20180320 18102461  ) http  	127.0.0.1 <- 200
20180320 18102461  )  -    00.000.260
20180320 18102500  '  +    clientRequire/@unitybase/ubm/public/initModel.js
20180320 18102500  ' http  	127.0.0.1 -> GET clientRequire/@unitybase/ubm/public/initModel.js
20180320 18102500  ' call  	endpoint clientRequire
20180320 18102500  ' info  	Call clientRequire 
20180320 18102500  ' http  	127.0.0.1 <- 200
20180320 18102500  '  -    00.000.320
20180320 18102501  *  +    ubql
20180320 18102501  * http  	127.0.0.1 -> POST ubql
20180320 18102501  * http  	[{"entity":"ubs_settings","method":"select","fieldList":["ID","settingKey","name","description","type","settingValue","defaultValue"],"version":"1519981756"},{"entity":"ubm_desktop","method":"select","fieldList":["ID","caption","code","url","isDefault","mi_owner","mi_createDate","mi_createUser","mi_modifyDate","mi_modifyUser","mi_deleteDate","mi_deleteUser"],"version":"-1"},{"entity":"ubm_form","method":"select","fieldList":["ID","code","description","caption","formType","formDef","formCode","model","entity","isDefault","mi_owner","mi_createDate","mi_createUser","mi_modifyDate","mi_modifyUser"],"version":2613330792},{"entity":"ubm_enum","method":"select","fieldList":["ID","eGroup","code","shortName","name","sortOrder","mi_owner","mi_createDate","mi_createUser","mi_modifyDate","mi_modifyUser","mi_deleteDate","mi_deleteUser"],"version":"1519981756"}]
20180320 18102501  * auth  	admin/4605666
20180320 18102501  * call  	endpoint ubql
20180320 18102501  *  +    	ubMixinClasses.TubStorageMixin(02B042C0).MixinMethod
20180320 18102501  * debug 		ubs_settings.select(TubStorageMixin)
20180320 18102501  *  +    		ubApp.TubDataStore(20DE6EC0).Init
20180320 18102501  *  +    			ubApp.TubApp(02AB3EE0).DBExecute
20180320 18102501  *  +    				ubApp.TubApp(02AB3EE0).TubApp.InternalDBExecute
20180320 18102501  * SQL   					ubDBSQLite3ThreadSafe.TubSQLite3Statement(17280150) SELECT ( (SELECT COALESCE(strftime('%s',  MAX(mi_modifyDate)),1) FROM ubs_settings) ) AS dataVersion
20180320 18102501  *  -    				00.000.081
20180320 18102501  *  -    			00.000.171
20180320 18102501  * debug 			Query result for entity "ubs_settings" into data name "": row count=1
20180320 18102501  *  -    		00.000.180
20180320 18102501  *  -    	00.000.284
20180320 18102501  *  +    	ubMixinClasses.TubRLSMixin(02B04E20).MixinMethod
20180320 18102501  * debug 		ubm_desktop.select(TubRLSMixin)
20180320 18102501  * debug 		Prepare RLS expression for ubm_desktop
20180320 18102501  *  -    	00.000.229
20180320 18102501  *  +    	ubMixinClasses.TubStorageMixin(02B042C0).MixinMethod
20180320 18102501  * debug 		ubm_desktop.select(TubStorageMixin)
20180320 18102501  *  +    		ubApp.TubDataStore(20DE6D08).Init
20180320 18102501  *  +    			ubApp.TubApp(02AB3EE0).DBExecute
20180320 18102501  *  +    				ubApp.TubApp(02AB3EE0).TubApp.InternalDBExecute
20180320 18102501  * debug 					P1: Int64		10
20180320 18102501  * debug 					P2: Int64		10
20180320 18102501  * debug 					P3: DateTime	9999-12-31T00:00:00
20180320 18102501  * SQL   					ubDBSQLite3ThreadSafe.TubSQLite3Statement(1727FD90) SELECT A01.ID,A01.caption,A01.code,A01.url,A01.isDefault,A01.mi_owner,A01.mi_createDate,A01.mi_createUser,A01.mi_modifyDate,A01.mi_modifyUser,A01.mi_deleteDate,A01.mi_deleteUser  FROM ubm_desktop A01  WHERE (( A01.mi_owner = ? ) OR (1=1) OR exists (select 1 from ubm_desktop_adm admsubtable where admsubtable.instanceID = A01.ID and admsubtable.admSubjID in (select ur.RoleID from uba_userrole ur where ur.UserID = ? union select 10))) AND A01.mi_deleteDate=?
20180320 18102501  *  -    				00.000.124
20180320 18102501  *  -    			00.000.160
20180320 18102501  * debug 			Query result for entity "ubm_desktop" into data name "": row count=2
20180320 18102501  *  -    		00.000.196
20180320 18102501  *  -    	00.000.346
20180320 18102503  *  +    	ubMixinClasses.TubStorageMixin(02B042C0).MixinMethod
20180320 18102503  * debug 		ubm_enum.select(TubStorageMixin)
20180320 18102503  *  +    		ubApp.TubDataStore(20DEC730).Init
20180320 18102503  *  +    			ubApp.TubApp(02AB3EE0).DBExecute
20180320 18102503  *  +    				ubApp.TubApp(02AB3EE0).TubApp.InternalDBExecute
20180320 18102503  * SQL   					ubDBSQLite3ThreadSafe.TubSQLite3Statement(172801B0) SELECT ( (SELECT COALESCE(strftime('%s',  MAX(mi_modifyDate)),1) FROM ubm_enum) ) AS dataVersion
20180320 18102503  *  -    				00.000.071
20180320 18102503  *  -    			00.000.136
20180320 18102503  * debug 			Query result for entity "ubm_enum" into data name "": row count=1
20180320 18102503  *  -    		00.000.145
20180320 18102503  *  -    	00.000.285
20180320 18102503  * http  	127.0.0.1 <- 200
20180320 18102503  *  -    00.026.359
20180320 18102506  "  +    ubql
20180320 18102506  " http  	127.0.0.1 -> POST ubql
20180320 18102506  " http  	[{"entity":"ubm_navshortcut","method":"select","fieldList":["ID","desktopID","parentID","code","isFolder","caption","inWindow","isCollapsed","displayOrder","iconCls","mi_modifyDate"],"orderList":{"0":{"expression":"desktopID","order":"asc"},"1":{"expression":"parentID","order":"asc"},"2":{"expression":"displayOrder","order":"asc"},"3":{"expression":"caption","order":"asc"}}}]
20180320 18102506  " auth  	admin/4605666
20180320 18102506  " call  	endpoint ubql
20180320 18102506  "  +    	ubMixinClasses.TubRLSMixin(02B04E20).MixinMethod
20180320 18102506  " debug 		ubm_navshortcut.select(TubRLSMixin)
20180320 18102506  " debug 		Prepare RLS expression for ubm_navshortcut
20180320 18102506  "  -    	00.000.229
20180320 18102506  "  +    	ubMixinClasses.TubStorageMixin(02B042C0).MixinMethod
20180320 18102506  " debug 		ubm_navshortcut.select(TubStorageMixin)
20180320 18102506  "  +    		ubApp.TubDataStore(20DEC960).Init
20180320 18102506  "  +    			ubApp.TubApp(02AB3EE0).DBExecute
20180320 18102506  "  +    				ubApp.TubApp(02AB3EE0).TubApp.InternalDBExecute
20180320 18102506  " debug 					P1: Int64		10
20180320 18102506  " debug 					P2: Int64		10
20180320 18102506  " debug 					P3: DateTime	9999-12-31T00:00:00
20180320 18102506  " SQL   					ubDBSQLite3ThreadSafe.TubSQLite3Statement(17280390) SELECT A01.ID,A01.desktopID,A01.parentID,A01.code,A01.isFolder,A01.caption,A01.inWindow,A01.isCollapsed,A01.displayOrder,A01.iconCls,A01.mi_modifyDate  FROM ubm_navshortcut A01  WHERE (( A01.mi_owner = ? ) OR               (1=1) OR                             exists (select 1 from ubm_navshortcut_adm admsubtable where admsubtable.instanceID = A01.ID and admsubtable.admSubjID in (select ur.RoleID from uba_userrole ur where ur.UserID = ? union select 10))) AND A01.mi_deleteDate=? ORDER BY 2 ASC,3 ASC,9 ASC,6 ... (truncated) length=515
20180320 18102506  "  -    				00.000.158
20180320 18102506  "  -    			00.000.385
20180320 18102506  " debug 			Query result for entity "ubm_navshortcut" into data name "": row count=33
20180320 18102506  "  -    		00.000.436
20180320 18102506  "  -    	00.000.616
20180320 18102506  " http  	127.0.0.1 <- 200
20180320 18102506  "  -    00.001.210
20180320 18102511  ,  +    models/adminui-pub/themes/UBGrayTheme/images/toolbar/more.png
20180320 18102511  , http  	127.0.0.1 -> GET models/adminui-pub/themes/UBGrayTheme/images/toolbar/more.png
20180320 18102511  , call  	endpoint models
20180320 18102511  , http  	127.0.0.1 <- 200
20180320 18102511  ,  -    00.000.278
20180320 18102511  /  +    models/adminui-pub/themes/UBGrayTheme/images/grid/hd-pop.png
20180320 18102511  / http  	127.0.0.1 -> GET models/adminui-pub/themes/UBGrayTheme/images/grid/hd-pop.png
20180320 18102511  / call  	endpoint models
20180320 18102511  / http  	127.0.0.1 <- 200
20180320 18102511  /  -    00.000.214
20180320 18102511  -  +    models/adminui-pub/themes/UBGrayTheme/images/button/default-toolbar-small-arrow.png
20180320 18102511  - http  	127.0.0.1 -> GET models/adminui-pub/themes/UBGrayTheme/images/button/default-toolbar-small-arrow.png
20180320 18102511  - call  	endpoint models
20180320 18102511  - http  	127.0.0.1 <- 200
20180320 18102511  -  -    00.000.257
20180320 18102626  (  +    models/adminui-pub/themes/UBGrayTheme/images/menu/scroll-bottom.png
20180320 18102626  +  +    models/adminui-pub/themes/UBGrayTheme/images/menu/scroll-top.png
20180320 18102626  ( http  	127.0.0.1 -> GET models/adminui-pub/themes/UBGrayTheme/images/menu/scroll-bottom.png
20180320 18102626  + http  	127.0.0.1 -> GET models/adminui-pub/themes/UBGrayTheme/images/menu/scroll-top.png
20180320 18102626  0  +    models/adminui-pub/themes/UBGrayTheme/images/menu/menu-parent.png
20180320 18102626  0 http  	127.0.0.1 -> GET models/adminui-pub/themes/UBGrayTheme/images/menu/menu-parent.png
20180320 18102626  + call  	endpoint models
20180320 18102626  ( call  	endpoint models
20180320 18102626  0 call  	endpoint models
20180320 18102626  + http  	127.0.0.1 <- 200
20180320 18102626  +  -    00.000.264
20180320 18102626  0 http  	127.0.0.1 <- 200
20180320 18102626  0  -    00.000.264
20180320 18102626  ( http  	127.0.0.1 <- 200
20180320 18102626  (  -    00.000.295
20180320 18110651  1  +    ubql
20180320 18110651  1 http  	127.0.0.1 -> POST ubql
20180320 18110651  1 http  	[{"entity":"ubm_navshortcut","method":"select","fieldList":["ID","cmdCode"],"whereList":{"c1":{"expression":"[ID]","condition":"equal","values":{"c1":335295204392961}}}}]
20180320 18110651  1 auth  	admin/4605666
20180320 18110651  1 call  	endpoint ubql
20180320 18110651  1  +    	ubMixinClasses.TubRLSMixin(02B04E20).MixinMethod
20180320 18110651  1 debug 		ubm_navshortcut.select(TubRLSMixin)
20180320 18110651  1 debug 		Prepare RLS expression for ubm_navshortcut
20180320 18110651  1  +    		ubApp.TubDataStore(20DEC848).Init
20180320 18110651  1  +    			ubApp.TubApp(02AB3EE0).DBExecute
20180320 18110651  1  +    				ubApp.TubApp(02AB3EE0).TubApp.InternalDBExecute
20180320 18110651  1 SQL   					ubDBSQLite3ThreadSafe.TubSQLite3Statement(1727FD30) select ID, name FROM uba_role
20180320 18110651  1  -    				00.000.080
20180320 18110651  1  -    			00.000.196
20180320 18110651  1 debug 			Query result for entity "uba_role" into data name "": row count=7
20180320 18110651  1  -    		00.000.211
20180320 18110651  1  -    	00.001.299
20180320 18110651  1  +    	ubMixinClasses.TubStorageMixin(02B042C0).MixinMethod
20180320 18110651  1 debug 		ubm_navshortcut.select(TubStorageMixin)
20180320 18110651  1  +    		ubApp.TubDataStore(20DEC640).Init
20180320 18110651  1  +    			ubApp.TubApp(02AB3EE0).DBExecute
20180320 18110651  1  +    				ubApp.TubApp(02AB3EE0).TubApp.InternalDBExecute
20180320 18110651  1 debug 					P1: Int64		335295204392961
20180320 18110651  1 debug 					P2: Int64		10
20180320 18110651  1 debug 					P3: Int64		10
20180320 18110651  1 debug 					P4: DateTime	9999-12-31T00:00:00
20180320 18110651  1 SQL   					ubDBSQLite3ThreadSafe.TubSQLite3Statement(17280510) SELECT A01.ID,A01.cmdCode  FROM ubm_navshortcut A01  WHERE A01.ID=? AND (( A01.mi_owner = ? ) OR               (1=1) OR                             exists (select 1 from ubm_navshortcut_adm admsubtable where admsubtable.instanceID = A01.ID and admsubtable.admSubjID in (select ur.RoleID from uba_userrole ur where ur.UserID = ? union select 10))) AND A01.mi_deleteDate=?
20180320 18110651  1  -    				00.000.125
20180320 18110651  1  -    			00.000.191
20180320 18110651  1 debug 			Query result for entity "ubm_navshortcut" into data name "": row count=1
20180320 18110651  1  -    		00.000.206
20180320 18110651  1  -    	00.000.355
20180320 18110651  1 http  	127.0.0.1 <- 200
20180320 18110651  1  -    00.002.175
20180320 18110655  &  +    models/adminui-pub/themes/UBGrayTheme/images/tab/tab-default-close-dark.png
20180320 18110655  & http  	127.0.0.1 -> GET models/adminui-pub/themes/UBGrayTheme/images/tab/tab-default-close-dark.png
20180320 18110655  & call  	endpoint models
20180320 18110655  & http  	127.0.0.1 <- 200
20180320 18110655  &  -    00.000.303
20180320 18110657  #  +    models/adminui-pub/themes/UBGrayTheme/images/loadmask/loading.gif
20180320 18110657  # http  	127.0.0.1 -> GET models/adminui-pub/themes/UBGrayTheme/images/loadmask/loading.gif
20180320 18110657  # call  	endpoint models
20180320 18110657  # http  	127.0.0.1 <- 200
20180320 18110657  #  -    00.000.381
20180320 18110659  .  +    models/adminui-pub/themes/UBGrayTheme/images/form/trigger.png
20180320 18110659  . http  	127.0.0.1 -> GET models/adminui-pub/themes/UBGrayTheme/images/form/trigger.png
20180320 18110659  . call  	endpoint models
20180320 18110659  . http  	127.0.0.1 <- 200
20180320 18110659  .  -    00.000.351
20180320 18110659  $  +    models/adminui-pub/themes/UBGrayTheme/images/grid/page-prev.png
20180320 18110659  %  +    models/adminui-pub/themes/UBGrayTheme/images/grid/page-next.png
20180320 18110659  $ http  	127.0.0.1 -> GET models/adminui-pub/themes/UBGrayTheme/images/grid/page-prev.png
20180320 18110659  % http  	127.0.0.1 -> GET models/adminui-pub/themes/UBGrayTheme/images/grid/page-next.png
20180320 18110659  )  +    models/adminui-pub/themes/UBGrayTheme/ubimages/sum.png
20180320 18110659  ) http  	127.0.0.1 -> GET models/adminui-pub/themes/UBGrayTheme/ubimages/sum.png
20180320 18110659  % call  	endpoint models
20180320 18110659  $ call  	endpoint models
20180320 18110659  ) call  	endpoint models
20180320 18110659  % http  	127.0.0.1 <- 200
20180320 18110659  ) http  	127.0.0.1 <- 200
20180320 18110659  %  -    00.000.302
20180320 18110659  )  -    00.000.297
20180320 18110659  $ http  	127.0.0.1 <- 200
20180320 18110659  $  -    00.000.448
20180320 18110661  '  +    ubql
20180320 18110661  ' http  	127.0.0.1 -> POST ubql
20180320 18110661  ' http  	[{"entity":"req_depart","method":"select","fieldList":["ID","name","postAddr","phoneNum"],"options":{"limit":100,"start":0}}]
20180320 18110661  ' auth  	admin/4605666
20180320 18110661  ' call  	endpoint ubql
20180320 18110661  '  +    	ubMixinClasses.TubStorageMixin(02B042C0).MixinMethod
20180320 18110661  ' debug 		req_depart.select(TubStorageMixin)
20180320 18110661  '  +    		ubApp.TubDataStore(20DE8C48).Init
20180320 18110661  '  +    			ubApp.TubApp(02AB3EE0).DBExecute
20180320 18110661  '  +    				ubApp.TubApp(02AB3EE0).TubApp.InternalDBExecute
20180320 18110661  ' SQL   					ubDBSQLite3ThreadSafe.TubSQLite3Statement(1727FA90) SELECT A01.ID,A01.name,A01.postAddr,A01.phoneNum  FROM req_depart A01  LIMIT 100 OFFSET 0 
20180320 18110661  '  -    				00.000.078
20180320 18110661  '  -    			00.000.194
20180320 18110661  ' debug 			Query result for entity "req_depart" into data name "": row count=1
20180320 18110661  '  -    		00.000.207
20180320 18110661  '  -    	00.000.321
20180320 18110661  ' http  	127.0.0.1 <- 200
20180320 18110661  '  -    00.000.765
20180320 18110839  *  +    ubql
20180320 18110839  * http  	127.0.0.1 -> POST ubql
20180320 18110839  * http  	[{"entity":"ubm_navshortcut","method":"select","fieldList":["ID","cmdCode"],"whereList":{"c1":{"expression":"[ID]","condition":"equal","values":{"c1":335295255347201}}}}]
20180320 18110839  * auth  	admin/4605666
20180320 18110839  * call  	endpoint ubql
20180320 18110839  *  +    	ubMixinClasses.TubRLSMixin(02B04E20).MixinMethod
20180320 18110839  * debug 		ubm_navshortcut.select(TubRLSMixin)
20180320 18110839  * debug 		Prepare RLS expression for ubm_navshortcut
20180320 18110839  *  -    	00.000.229
20180320 18110839  *  +    	ubMixinClasses.TubStorageMixin(02B042C0).MixinMethod
20180320 18110839  * debug 		ubm_navshortcut.select(TubStorageMixin)
20180320 18110839  *  +    		ubApp.TubDataStore(20DEC500).Init
20180320 18110839  *  +    			ubApp.TubApp(02AB3EE0).DBExecute
20180320 18110839  *  +    				ubApp.TubApp(02AB3EE0).TubApp.InternalDBExecute
20180320 18110839  * debug 					P1: Int64		335295255347201
20180320 18110839  * debug 					P2: Int64		10
20180320 18110839  * debug 					P3: Int64		10
20180320 18110839  * debug 					P4: DateTime	9999-12-31T00:00:00
20180320 18110839  * SQL   					ubDBSQLite3ThreadSafe.TubSQLite3Statement(17279D30) SELECT A01.ID,A01.cmdCode  FROM ubm_navshortcut A01  WHERE A01.ID=? AND (( A01.mi_owner = ? ) OR               (1=1) OR                             exists (select 1 from ubm_navshortcut_adm admsubtable where admsubtable.instanceID = A01.ID and admsubtable.admSubjID in (select ur.RoleID from uba_userrole ur where ur.UserID = ? union select 10))) AND A01.mi_deleteDate=?
20180320 18110839  *  -    				00.000.031
20180320 18110839  *  -    			00.000.130
20180320 18110839  * debug 			Query result for entity "ubm_navshortcut" into data name "": row count=1
20180320 18110839  *  -    		00.000.148
20180320 18110839  *  -    	00.000.283
20180320 18110839  * http  	127.0.0.1 <- 200
20180320 18110839  *  -    00.000.849
20180320 18110847  "  +    ubql
20180320 18110847  " http  	127.0.0.1 -> POST ubql
20180320 18110847  " http  	[{"entity":"req_subDepart","method":"select","fieldList":["name","department.ID","department.name","department.postAddr","department.phoneNum","ID"],"options":{"limit":100,"start":0}}]
20180320 18110847  " auth  	admin/4605666
20180320 18110847  " call  	endpoint ubql
20180320 18110847  "  +    	ubMixinClasses.TubStorageMixin(02B042C0).MixinMethod
20180320 18110847  " debug 		req_subDepart.select(TubStorageMixin)
20180320 18110847  "  +    		ubApp.TubDataStore(20DECAA0).Init
20180320 18110847  "  +    			ubApp.TubApp(02AB3EE0).DBExecute
20180320 18110847  "  +    				ubApp.TubApp(02AB3EE0).TubApp.InternalDBExecute
20180320 18110847  " SQL   					ubDBSQLite3ThreadSafe.TubSQLite3Statement(17280450) SELECT A01.name,A02.ID,A02.name AS name2,  A02.postAddr,A02.phoneNum,A01.ID AS ID2  FROM req_subDepart A01  INNER JOIN req_depart A02 ON A02.ID=A01.department  LIMIT 100 OFFSET 0 
20180320 18110847  "  -    				00.000.088
20180320 18110847  "  -    			00.000.165
20180320 18110847  " debug 			Query result for entity "req_subDepart" into data name "": row count=0
20180320 18110847  "  -    		00.000.177
20180320 18110847  "  -    	00.000.332
20180320 18110847  " http  	127.0.0.1 <- 200
20180320 18110847  "  -    00.000.882
20180320 18111012  ,  +    ubql
20180320 18111012  , http  	127.0.0.1 -> POST ubql
20180320 18111012  , http  	[{"entity":"ubm_navshortcut","method":"select","fieldList":["ID","cmdCode"],"whereList":{"c1":{"expression":"[ID]","condition":"equal","values":{"c1":335295365808129}}}}]
20180320 18111012  , auth  	admin/4605666
20180320 18111012  , call  	endpoint ubql
20180320 18111012  ,  +    	ubMixinClasses.TubRLSMixin(02B04E20).MixinMethod
20180320 18111012  , debug 		ubm_navshortcut.select(TubRLSMixin)
20180320 18111012  , debug 		Prepare RLS expression for ubm_navshortcut
20180320 18111012  ,  -    	00.000.224
20180320 18111012  ,  +    	ubMixinClasses.TubStorageMixin(02B042C0).MixinMethod
20180320 18111012  , debug 		ubm_navshortcut.select(TubStorageMixin)
20180320 18111012  ,  +    		ubApp.TubDataStore(20DECCF8).Init
20180320 18111012  ,  +    			ubApp.TubApp(02AB3EE0).DBExecute
20180320 18111012  ,  +    				ubApp.TubApp(02AB3EE0).TubApp.InternalDBExecute
20180320 18111012  , debug 					P1: Int64		335295365808129
20180320 18111012  , debug 					P2: Int64		10
20180320 18111012  , debug 					P3: Int64		10
20180320 18111012  , debug 					P4: DateTime	9999-12-31T00:00:00
20180320 18111012  , SQL   					ubDBSQLite3ThreadSafe.TubSQLite3Statement(172802D0) SELECT A01.ID,A01.cmdCode  FROM ubm_navshortcut A01  WHERE A01.ID=? AND (( A01.mi_owner = ? ) OR               (1=1) OR                             exists (select 1 from ubm_navshortcut_adm admsubtable where admsubtable.instanceID = A01.ID and admsubtable.admSubjID in (select ur.RoleID from uba_userrole ur where ur.UserID = ? union select 10))) AND A01.mi_deleteDate=?
20180320 18111012  ,  -    				00.000.138
20180320 18111012  ,  -    			00.000.257
20180320 18111012  , debug 			Query result for entity "ubm_navshortcut" into data name "": row count=1
20180320 18111012  ,  -    		00.000.273
20180320 18111012  ,  -    	00.000.413
20180320 18111012  , http  	127.0.0.1 <- 200
20180320 18111012  ,  -    00.001.009
20180320 18111020  /  +    ubql
20180320 18111020  / http  	127.0.0.1 -> POST ubql
20180320 18111020  / http  	[{"entity":"req_depart","method":"select","fieldList":["ID","name"]},{"entity":"req_subDepart","method":"select","fieldList":["ID","name"]},{"entity":"req_reqList","method":"select","fieldList":["reqDate","applicantPhone","applicantInfo","department","subDepartment","reqText","reqDoc","answer","ID"],"options":{"limit":100,"start":0}}]
20180320 18111020  / auth  	admin/4605666
20180320 18111020  / call  	endpoint ubql
20180320 18111020  /  +    	ubMixinClasses.TubStorageMixin(02B042C0).MixinMethod
20180320 18111020  / debug 		req_depart.select(TubStorageMixin)
20180320 18111020  /  +    		ubApp.TubDataStore(20DEC500).Init
20180320 18111020  /  +    			ubApp.TubApp(02AB3EE0).DBExecute
20180320 18111020  /  +    				ubApp.TubApp(02AB3EE0).TubApp.InternalDBExecute
20180320 18111020  / SQL   					ubDBSQLite3ThreadSafe.TubSQLite3Statement(17280630) SELECT A01.ID,A01.name  FROM req_depart A01 
20180320 18111020  /  -    				00.000.055
20180320 18111020  /  -    			00.000.149
20180320 18111020  / debug 			Query result for entity "req_depart" into data name "": row count=1
20180320 18111020  /  -    		00.000.185
20180320 18111020  /  -    	00.000.263
20180320 18111020  /  +    	ubMixinClasses.TubStorageMixin(02B042C0).MixinMethod
20180320 18111020  / debug 		req_subDepart.select(TubStorageMixin)
20180320 18111020  /  +    		ubApp.TubDataStore(20DECC08).Init
20180320 18111020  /  +    			ubApp.TubApp(02AB3EE0).DBExecute
20180320 18111020  /  +    				ubApp.TubApp(02AB3EE0).TubApp.InternalDBExecute
20180320 18111020  / SQL   					ubDBSQLite3ThreadSafe.TubSQLite3Statement(172805D0) SELECT A01.ID,A01.name  FROM req_subDepart A01 
20180320 18111020  /  -    				00.000.032
20180320 18111020  /  -    			00.000.066
20180320 18111020  / debug 			Query result for entity "req_subDepart" into data name "": row count=0
20180320 18111020  /  -    		00.000.073
20180320 18111020  /  -    	00.000.126
20180320 18111020  /  +    	ubMixinClasses.TubStorageMixin(02B042C0).MixinMethod
20180320 18111020  / debug 		req_reqList.select(TubStorageMixin)
20180320 18111020  /  +    		ubApp.TubDataStore(20DECF28).Init
20180320 18111020  /  +    			ubApp.TubApp(02AB3EE0).DBExecute
20180320 18111020  /  +    				ubApp.TubApp(02AB3EE0).TubApp.InternalDBExecute
20180320 18111020  / SQL   					ubDBSQLite3ThreadSafe.TubSQLite3Statement(17280270) SELECT A01.reqDate,A01.applicantPhone,A01.applicantInfo,A01.department,A01.subDepartment,A01.reqText,A01.reqDoc,A01.answer,A01.ID  FROM req_reqList A01  LIMIT 100 OFFSET 0 
20180320 18111020  /  -    				00.000.064
20180320 18111020  /  -    			00.000.107
20180320 18111020  / debug 			Query result for entity "req_reqList" into data name "": row count=0
20180320 18111020  /  -    		00.000.115
20180320 18111020  /  -    	00.000.233
20180320 18111020  / http  	127.0.0.1 <- 200
20180320 18111020  /  -    00.001.342
20180320 18123136  -  +    ubql
20180320 18123136  - http  	127.0.0.1 -> POST ubql
20180320 18123136  - http  	[{"entity":"ubm_navshortcut","method":"select","fieldList":["ID","cmdCode"],"whereList":{"c1":{"expression":"[ID]","condition":"equal","values":{"c1":335295153209345}}}}]
20180320 18123136  - auth  	admin/4605666
20180320 18123136  - call  	endpoint ubql
20180320 18123136  -  +    	ubMixinClasses.TubRLSMixin(02B04E20).MixinMethod
20180320 18123136  - debug 		ubm_navshortcut.select(TubRLSMixin)
20180320 18123136  - debug 		Prepare RLS expression for ubm_navshortcut
20180320 18123136  -  -    	00.000.255
20180320 18123136  -  +    	ubMixinClasses.TubStorageMixin(02B042C0).MixinMethod
20180320 18123136  - debug 		ubm_navshortcut.select(TubStorageMixin)
20180320 18123136  -  +    		ubApp.TubDataStore(20DECD98).Init
20180320 18123136  -  +    			ubApp.TubApp(02AB3EE0).DBExecute
20180320 18123136  -  +    				ubApp.TubApp(02AB3EE0).TubApp.InternalDBExecute
20180320 18123136  - debug 					P1: Int64		335295153209345
20180320 18123136  - debug 					P2: Int64		10
20180320 18123136  - debug 					P3: Int64		10
20180320 18123136  - debug 					P4: DateTime	9999-12-31T00:00:00
20180320 18123136  - SQL   					ubDBSQLite3ThreadSafe.TubSQLite3Statement(17280210) SELECT A01.ID,A01.cmdCode  FROM ubm_navshortcut A01  WHERE A01.ID=? AND (( A01.mi_owner = ? ) OR               (1=1) OR                             exists (select 1 from ubm_navshortcut_adm admsubtable where admsubtable.instanceID = A01.ID and admsubtable.admSubjID in (select ur.RoleID from uba_userrole ur where ur.UserID = ? union select 10))) AND A01.mi_deleteDate=?
20180320 18123136  -  -    				00.000.155
20180320 18123136  -  -    			00.000.272
20180320 18123136  - debug 			Query result for entity "ubm_navshortcut" into data name "": row count=1
20180320 18123136  -  -    		00.000.289
20180320 18123136  -  -    	00.000.438
20180320 18123136  - http  	127.0.0.1 <- 200
20180320 18123136  -  -    00.001.151
20180320 18123144  (  +    ubql
20180320 18123144  ( http  	127.0.0.1 -> POST ubql
20180320 18123144  ( http  	[{"entity":"ubm_navshortcut","method":"select","fieldList":["desktopID","code","isFolder","caption","cmdCode","inWindow","isCollapsed","displayOrder","iconCls","ID","mi_modifyDate"],"options":{"limit":100,"start":0}}]
20180320 18123144  ( auth  	admin/4605666
20180320 18123144  ( call  	endpoint ubql
20180320 18123144  (  +    	ubMixinClasses.TubRLSMixin(02B04E20).MixinMethod
20180320 18123144  ( debug 		ubm_navshortcut.select(TubRLSMixin)
20180320 18123144  ( debug 		Prepare RLS expression for ubm_navshortcut
20180320 18123144  (  -    	00.000.249
20180320 18123144  (  +    	ubMixinClasses.TubStorageMixin(02B042C0).MixinMethod
20180320 18123144  ( debug 		ubm_navshortcut.select(TubStorageMixin)
20180320 18123144  (  +    		ubApp.TubDataStore(20DECD98).Init
20180320 18123144  (  +    			ubApp.TubApp(02AB3EE0).DBExecute
20180320 18123144  (  +    				ubApp.TubApp(02AB3EE0).TubApp.InternalDBExecute
20180320 18123144  ( debug 					P1: Int64		10
20180320 18123144  ( debug 					P2: Int64		10
20180320 18123144  ( debug 					P3: DateTime	9999-12-31T00:00:00
20180320 18123144  ( SQL   					ubDBSQLite3ThreadSafe.TubSQLite3Statement(17280870) SELECT A01.desktopID,A01.code,A01.isFolder,A01.caption,A01.cmdCode,A01.inWindow,A01.isCollapsed,A01.displayOrder,A01.iconCls,A01.ID,A01.mi_modifyDate  FROM ubm_navshortcut A01  WHERE (( A01.mi_owner = ? ) OR               (1=1) OR                             exists (select 1 from ubm_navshortcut_adm admsubtable where admsubtable.instanceID = A01.ID and admsubtable.admSubjID in (select ur.RoleID from uba_userrole ur where ur.UserID = ? union select 10))) AND A01.mi_deleteDate=? LIMIT 100 OFFSET 0 
20180320 18123144  (  -    				00.000.167
20180320 18123144  (  -    			00.000.385
20180320 18123144  ( debug 			Query result for entity "ubm_navshortcut" into data name "": row count=33
20180320 18123144  (  -    		00.000.439
20180320 18123144  (  -    	00.000.633
20180320 18123144  ( http  	127.0.0.1 <- 200
20180320 18123144  (  -    00.001.417
20180320 18123154  +  +    ubql
20180320 18123154  + http  	127.0.0.1 -> POST ubql
20180320 18123154  + http  	[{"entity":"ubm_desktop","method":"select","fieldList":["ID","caption","mi_modifyDate"],"version":"-1"}]
20180320 18123154  + auth  	admin/4605666
20180320 18123154  + call  	endpoint ubql
20180320 18123154  +  +    	ubMixinClasses.TubRLSMixin(02B04E20).MixinMethod
20180320 18123154  + debug 		ubm_desktop.select(TubRLSMixin)
20180320 18123154  + debug 		Prepare RLS expression for ubm_desktop
20180320 18123154  +  -    	00.000.244
20180320 18123154  +  +    	ubMixinClasses.TubStorageMixin(02B042C0).MixinMethod
20180320 18123154  + debug 		ubm_desktop.select(TubStorageMixin)
20180320 18123154  +  +    		ubApp.TubDataStore(071CE210).Init
20180320 18123154  +  +    			ubApp.TubApp(02AB3EE0).DBExecute
20180320 18123154  +  +    				ubApp.TubApp(02AB3EE0).TubApp.InternalDBExecute
20180320 18123154  + debug 					P1: Int64		10
20180320 18123154  + debug 					P2: Int64		10
20180320 18123154  + debug 					P3: DateTime	9999-12-31T00:00:00
20180320 18123154  + SQL   					ubDBSQLite3ThreadSafe.TubSQLite3Statement(17280750) SELECT A01.ID,A01.caption,A01.mi_modifyDate  FROM ubm_desktop A01  WHERE (( A01.mi_owner = ? ) OR (1=1) OR exists (select 1 from ubm_desktop_adm admsubtable where admsubtable.instanceID = A01.ID and admsubtable.admSubjID in (select ur.RoleID from uba_userrole ur where ur.UserID = ? union select 10))) AND A01.mi_deleteDate=?
20180320 18123154  +  -    				00.000.141
20180320 18123154  +  -    			00.000.219
20180320 18123154  + debug 			Query result for entity "ubm_desktop" into data name "": row count=2
20180320 18123154  +  -    		00.000.235
20180320 18123154  +  -    	00.000.379
20180320 18123154  + http  	127.0.0.1 <- 200
20180320 18123154  +  -    00.001.041
20180320 18123754  1  +    models/adminui-pub/themes/UBGrayTheme/images/shared/icon-question.png
20180320 18123754  0  +    models/adminui-pub/themes/UBGrayTheme/images/tools/tool-sprites.png
20180320 18123754  1 http  	127.0.0.1 -> GET models/adminui-pub/themes/UBGrayTheme/images/shared/icon-question.png
20180320 18123754  0 http  	127.0.0.1 -> GET models/adminui-pub/themes/UBGrayTheme/images/tools/tool-sprites.png
20180320 18123754  1 call  	endpoint models
20180320 18123754  0 call  	endpoint models
20180320 18123754  1 http  	127.0.0.1 <- 200
20180320 18123754  1  -    00.000.419
20180320 18123754  0 http  	127.0.0.1 <- 200
20180320 18123754  0  -    00.000.555
20180320 18123856  &  +    ubql
20180320 18123856  & http  	127.0.0.1 -> POST ubql
20180320 18123856  & http  	[{"entity":"ubm_navshortcut","method":"delete","execParams":{"ID":335295365808129}}]
20180320 18123856  & auth  	admin/4605666
20180320 18123856  & call  	endpoint ubql
20180320 18123856  &  +    	ubMixinClasses.TubTreeMixin(02B04DB0).MixinMethod
20180320 18123856  & debug 		ubm_navshortcut.beforedelete(TubTreeMixin)
20180320 18123856  &  +    		ubApp.TubDataStore(20DECC08).Init
20180320 18123856  &  +    			ubApp.TubApp(02AB3EE0).DBExecute
20180320 18123856  &  +    				ubApp.TubApp(02AB3EE0).TubApp.InternalDBExecute
20180320 18123856  &  +    					00856EC2 
20180320 18123856  &  -    					00.002.047
20180320 18123856  & SQL   					ubDBSQLite3ThreadSafe.TubSQLite3Statement(17280D50) PRAGMA foreign_keys = ON
20180320 18123856  & debug 					P1: Int64		335295365808129
20180320 18123856  & debug 					P2: DateTime	9999-12-31T00:00:00
20180320 18123856  & SQL   					ubDBSQLite3ThreadSafe.TubSQLite3Statement(17280930) SELECT A01.ID  FROM ubm_navshortcut A01  WHERE A01.parentID=? AND A01.mi_deleteDate=?
20180320 18123856  &  -    				00.002.106
20180320 18123856  &  -    			00.002.142
20180320 18123856  & debug 			Query result for entity "ubm_navshortcut" into data name "_temp": row count=0
20180320 18123856  &  -    		00.002.156
20180320 18123856  &  -    	00.002.275
20180320 18123856  &  +    	ubMixinClasses.TubStorageMixin(02B042C0).MixinMethod
20180320 18123856  & debug 		ubm_navshortcut.beforedelete(TubStorageMixin)
20180320 18123856  &  +    		ubMixinClasses.TubRLSMixin(02B04E20).MixinMethod
20180320 18123856  & debug 			ubm_navshortcut.select(TubRLSMixin)
20180320 18123856  & debug 			Prepare RLS expression for ubm_navshortcut
20180320 18123856  &  +    			ubApp.TubDataStore(20DECE88).Init
20180320 18123856  &  +    				ubApp.TubApp(02AB3EE0).DBExecute
20180320 18123856  &  +    					ubApp.TubApp(02AB3EE0).TubApp.InternalDBExecute
20180320 18123856  & SQL   						ubDBSQLite3ThreadSafe.TubSQLite3Statement(1727F250) select ID, name FROM uba_role
20180320 18123856  &  -    					00.000.027
20180320 18123856  &  -    				00.000.068
20180320 18123856  & debug 				Query result for entity "uba_role" into data name "": row count=7
20180320 18123856  &  -    			00.000.078
20180320 18123856  &  -    		00.001.212
20180320 18123856  &  +    		ubMixinClasses.TubStorageMixin(02B042C0).MixinMethod
20180320 18123856  & debug 			ubm_navshortcut.select(TubStorageMixin)
20180320 18123856  &  +    			ubApp.TubDataStore(20DECD98).Init
20180320 18123856  &  +    				ubApp.TubApp(02AB3EE0).DBExecute
20180320 18123856  &  +    					ubApp.TubApp(02AB3EE0).TubApp.InternalDBExecute
20180320 18123856  & debug 						P1: Int64		10
20180320 18123856  & debug 						P2: Int64		10
20180320 18123856  & debug 						P3: Int64		335295365808129
20180320 18123856  & debug 						P4: DateTime	9999-12-31T00:00:00
20180320 18123856  & SQL   						ubDBSQLite3ThreadSafe.TubSQLite3Statement(17280E10) SELECT A01.ID,A01.desktopID,A01.parentID,A01.code,A01.isFolder,A01.caption,A01.cmdCode,A01.inWindow,A01.isCollapsed,A01.displayOrder,A01.iconCls,A01.mi_treePath,A01.mi_owner,A01.mi_createDate,A01.mi_createUser,A01.mi_modifyDate,A01.mi_modifyUser,A01.mi_deleteDate,A01.mi_deleteUser  FROM ubm_navshortcut A01  WHERE (( A01.mi_owner = ? ) OR               (1=1) OR                             exists (select 1 from ubm_navshortcut_adm admsubtable where admsubtable.instanceID = A01.ID and admsubtable.admSubjID in ... (truncated) length=626
20180320 18123856  &  -    					00.000.166
20180320 18123856  &  -    				00.000.230
20180320 18123856  & debug 				Query result for entity "ubm_navshortcut" into data name "": row count=1
20180320 18123856  &  -    			00.000.249
20180320 18123856  &  -    		00.000.477
20180320 18123856  &  +    		ubApp.TubDataStore(20DECC08).Init
20180320 18123856  &  +    			ubApp.TubApp(02AB3EE0).DBExecute
20180320 18123856  &  +    				ubApp.TubApp(02AB3EE0).TubApp.InternalDBExecute
20180320 18123856  & debug 					P1: Int64		335295365808129
20180320 18123856  & SQL   					ubDBSQLite3ThreadSafe.TubSQLite3Statement(17280DB0) SELECT A01.ID  FROM ubm_navshortcut_adm A01  WHERE A01.instanceID=?
20180320 18123856  &  -    				00.000.038
20180320 18123856  &  -    			00.000.069
20180320 18123856  & debug 			Query result for entity "ubm_navshortcut" into data name "ubm_navshortcut_adm": row count=0
20180320 18123856  &  -    		00.000.077
20180320 18123856  &  -    	00.001.988
20180320 18123856  &  +    	ubMixinClasses.TubStorageMixin(02B042C0).MixinMethod
20180320 18123856  & debug 		ubm_navshortcut.delete(TubStorageMixin)
20180320 18123856  &  +    		ubApp.TubApp(02AB3EE0).DBExecute
20180320 18123856  &  +    			ubApp.TubApp(02AB3EE0).TubApp.InternalDBExecute
20180320 18123856  & debug 				P1: Int64		10
20180320 18123856  & debug 				P2: DateTime	2018-03-20T18:12:38
20180320 18123856  & debug 				P3: Int64		10
20180320 18123856  & debug 				P4: DateTime	2018-03-20T20:12:38
20180320 18123856  & debug 				P5: Int64		335295365808129
20180320 18123856  & DB    				StartTransaction for connection "main"
20180320 18123856  & SQL   				ubDBSQLite3ThreadSafe.TubSQLite3Statement(17280F30) UPDATE ubm_navshortcut SET mi_deleteUser=?,mi_modifyDate=?,mi_modifyUser=?,mi_deleteDate=? WHERE ID= ?
20180320 18123856  &  -    			00.000.248
20180320 18123856  &  -    		00.000.250
20180320 18123856  &  -    	00.000.339
20180320 18123856  &  +    	ubMixinClasses.TubAuditMixin(02B04F70).MixinMethod
20180320 18123856  & debug 		ubm_navshortcut.afterdelete(TubAuditMixin)
20180320 18123856  &  +    		ubApp.TubDataStore(20DEC500).TubDataStore.ExecuteInsertFromSQL
20180320 18123856  &  +    			ubApp.TubApp(02AB3EE0).DBExecute
20180320 18123856  &  +    				ubApp.TubApp(02AB3EE0).TubApp.InternalDBExecute
20180320 18123856  & debug 					P1: Int64		335498391879681
20180320 18123856  & debug 					P2: String(15)	ubm_navshortcut
20180320 18123856  & debug 					P3: Int64		335295365808129
20180320 18123856  & debug 					P4: String(6)	DELETE
20180320 18123856  & debug 					P5: Int64		10
20180320 18123856  & debug 					P6: DateTime	2018-03-20T18:12:38
20180320 18123856  & debug 					P7: String(9)	127.0.0.1
20180320 18123856  & debug 					P8: Int64		335295365808129
20180320 18123856  & debug 					P9: String(655..)	{"ID":335295365808129,"desktopID":335295183650817,"parentID":null,"code":"req_list","isFolder":0,"ca...
20180320 18123856  & SQL   					ubDBSQLite3ThreadSafe.TubSQLite3Statement(17280E70) INSERT INTO uba_auditTrail (ID,entity,entityinfo_id,actionType,actionUser,actionTime,remoteIP,parentEntityInfo_id,fromValue) VALUES (?,?,?,?,?,?,?,?,?)
20180320 18123856  &  -    				00.000.083
20180320 18123856  &  -    			00.000.085
20180320 18123856  &  -    		00.000.176
20180320 18123856  &  -    	00.000.212
20180320 18123856  &  +    	ubMixinClasses.TubStorageMixin(02B042C0).MixinMethod
20180320 18123856  & debug 		ubm_navshortcut.afterdelete(TubStorageMixin)
20180320 18123856  &  -    	00.000.001
20180320 18123856  & DB    	Commit connection "main" in 360us
20180320 18123856  & http  	127.0.0.1 <- 200
20180320 18123856  &  -    00.005.843
20180320 18124052  #  +    ubql
20180320 18124052  # http  	127.0.0.1 -> POST ubql
20180320 18124052  # http  	[{"entity":"ubm_navshortcut","method":"delete","execParams":{"ID":335295255347201}}]
20180320 18124052  # auth  	admin/4605666
20180320 18124052  # call  	endpoint ubql
20180320 18124052  #  +    	ubMixinClasses.TubTreeMixin(02B04DB0).MixinMethod
20180320 18124052  # debug 		ubm_navshortcut.beforedelete(TubTreeMixin)
20180320 18124052  #  +    		ubApp.TubDataStore(20DECC08).Init
20180320 18124052  #  +    			ubApp.TubApp(02AB3EE0).DBExecute
20180320 18124052  #  +    				ubApp.TubApp(02AB3EE0).TubApp.InternalDBExecute
20180320 18124052  # debug 					P1: Int64		335295255347201
20180320 18124052  # debug 					P2: DateTime	9999-12-31T00:00:00
20180320 18124052  # SQL   					ubDBSQLite3ThreadSafe.TubSQLite3Statement(17280FF0) SELECT A01.ID  FROM ubm_navshortcut A01  WHERE A01.parentID=? AND A01.mi_deleteDate=?
20180320 18124052  #  -    				00.000.083
20180320 18124052  #  -    			00.000.170
20180320 18124052  # debug 			Query result for entity "ubm_navshortcut" into data name "_temp": row count=0
20180320 18124052  #  -    		00.000.183
20180320 18124052  #  -    	00.000.284
20180320 18124052  #  +    	ubMixinClasses.TubStorageMixin(02B042C0).MixinMethod
20180320 18124052  # debug 		ubm_navshortcut.beforedelete(TubStorageMixin)
20180320 18124052  #  +    		ubMixinClasses.TubRLSMixin(02B04E20).MixinMethod
20180320 18124052  # debug 			ubm_navshortcut.select(TubRLSMixin)
20180320 18124052  # debug 			Prepare RLS expression for ubm_navshortcut
20180320 18124052  #  -    		00.000.249
20180320 18124052  #  +    		ubMixinClasses.TubStorageMixin(02B042C0).MixinMethod
20180320 18124052  # debug 			ubm_navshortcut.select(TubStorageMixin)
20180320 18124052  #  +    			ubApp.TubDataStore(20DECC30).Init
20180320 18124052  #  +    				ubApp.TubApp(02AB3EE0).DBExecute
20180320 18124052  #  +    					ubApp.TubApp(02AB3EE0).TubApp.InternalDBExecute
20180320 18124052  # debug 						P1: Int64		10
20180320 18124052  # debug 						P2: Int64		10
20180320 18124052  # debug 						P3: Int64		335295255347201
20180320 18124052  # debug 						P4: DateTime	9999-12-31T00:00:00
20180320 18124052  # SQL   						ubDBSQLite3ThreadSafe.TubSQLite3Statement(17281170) SELECT A01.ID,A01.desktopID,A01.parentID,A01.code,A01.isFolder,A01.caption,A01.cmdCode,A01.inWindow,A01.isCollapsed,A01.displayOrder,A01.iconCls,A01.mi_treePath,A01.mi_owner,A01.mi_createDate,A01.mi_createUser,A01.mi_modifyDate,A01.mi_modifyUser,A01.mi_deleteDate,A01.mi_deleteUser  FROM ubm_navshortcut A01  WHERE (( A01.mi_owner = ? ) OR               (1=1) OR                             exists (select 1 from ubm_navshortcut_adm admsubtable where admsubtable.instanceID = A01.ID and admsubtable.admSubjID in ... (truncated) length=626
20180320 18124052  #  -    					00.000.145
20180320 18124052  #  -    				00.000.214
20180320 18124052  # debug 				Query result for entity "ubm_navshortcut" into data name "": row count=1
20180320 18124052  #  -    			00.000.232
20180320 18124052  #  -    		00.000.451
20180320 18124052  #  +    		ubApp.TubDataStore(20DECC08).Init
20180320 18124052  #  +    			ubApp.TubApp(02AB3EE0).DBExecute
20180320 18124052  #  +    				ubApp.TubApp(02AB3EE0).TubApp.InternalDBExecute
20180320 18124052  # debug 					P1: Int64		335295255347201
20180320 18124052  # SQL   					ubDBSQLite3ThreadSafe.TubSQLite3Statement(172810B0) SELECT A01.ID  FROM ubm_navshortcut_adm A01  WHERE A01.instanceID=?
20180320 18124052  #  -    				00.000.032
20180320 18124052  #  -    			00.000.065
20180320 18124052  # debug 			Query result for entity "ubm_navshortcut" into data name "ubm_navshortcut_adm": row count=0
20180320 18124052  #  -    		00.000.072
20180320 18124052  #  -    	00.000.956
20180320 18124052  #  +    	ubMixinClasses.TubStorageMixin(02B042C0).MixinMethod
20180320 18124052  # debug 		ubm_navshortcut.delete(TubStorageMixin)
20180320 18124052  #  +    		ubApp.TubApp(02AB3EE0).DBExecute
20180320 18124052  #  +    			ubApp.TubApp(02AB3EE0).TubApp.InternalDBExecute
20180320 18124052  # debug 				P1: Int64		10
20180320 18124052  # debug 				P2: DateTime	2018-03-20T18:12:40
20180320 18124052  # debug 				P3: Int64		10
20180320 18124052  # debug 				P4: DateTime	2018-03-20T20:12:40
20180320 18124052  # debug 				P5: Int64		335295255347201
20180320 18124052  # DB    				StartTransaction for connection "main"
20180320 18124052  # SQL   				ubDBSQLite3ThreadSafe.TubSQLite3Statement(17281350) UPDATE ubm_navshortcut SET mi_deleteUser=?,mi_modifyDate=?,mi_modifyUser=?,mi_deleteDate=? WHERE ID= ?
20180320 18124052  #  -    			00.000.194
20180320 18124052  #  -    		00.000.195
20180320 18124052  #  -    	00.000.275
20180320 18124052  #  +    	ubMixinClasses.TubAuditMixin(02B04F70).MixinMethod
20180320 18124052  # debug 		ubm_navshortcut.afterdelete(TubAuditMixin)
20180320 18124052  #  +    		ubApp.TubDataStore(20DEC960).TubDataStore.ExecuteInsertFromSQL
20180320 18124052  #  +    			ubApp.TubApp(02AB3EE0).DBExecute
20180320 18124052  #  +    				ubApp.TubApp(02AB3EE0).TubApp.InternalDBExecute
20180320 18124052  # debug 					P1: Int64		335498392141825
20180320 18124052  # debug 					P2: String(15)	ubm_navshortcut
20180320 18124052  # debug 					P3: Int64		335295255347201
20180320 18124052  # debug 					P4: String(6)	DELETE
20180320 18124052  # debug 					P5: Int64		10
20180320 18124052  # debug 					P6: DateTime	2018-03-20T18:12:40
20180320 18124052  # debug 					P7: String(9)	127.0.0.1
20180320 18124052  # debug 					P8: Int64		335295255347201
20180320 18124052  # debug 					P9: String(787..)	{"ID":335295255347201,"desktopID":335295183650817,"parentID":335295190532097,"code":"sub_depart","is...
20180320 18124052  # SQL   					ubDBSQLite3ThreadSafe.TubSQLite3Statement(17281230) INSERT INTO uba_auditTrail (ID,entity,entityinfo_id,actionType,actionUser,actionTime,remoteIP,parentEntityInfo_id,fromValue) VALUES (?,?,?,?,?,?,?,?,?)
20180320 18124052  #  -    				00.000.087
20180320 18124052  #  -    			00.000.090
20180320 18124052  #  -    		00.000.175
20180320 18124052  #  -    	00.000.211
20180320 18124052  #  +    	ubMixinClasses.TubStorageMixin(02B042C0).MixinMethod
20180320 18124052  # debug 		ubm_navshortcut.afterdelete(TubStorageMixin)
20180320 18124052  #  -    	00.000.001
20180320 18124052  # DB    	Commit connection "main" in 272us
20180320 18124052  # http  	127.0.0.1 <- 200
20180320 18124052  #  -    00.002.550
20180320 18124415  .  +    ubql
20180320 18124415  . http  	127.0.0.1 -> POST ubql
20180320 18124415  . http  	[{"entity":"ubm_navshortcut","method":"delete","execParams":{"ID":335295204392961}}]
20180320 18124415  . auth  	admin/4605666
20180320 18124415  . call  	endpoint ubql
20180320 18124415  .  +    	ubMixinClasses.TubTreeMixin(02B04DB0).MixinMethod
20180320 18124415  . debug 		ubm_navshortcut.beforedelete(TubTreeMixin)
20180320 18124415  .  +    		ubApp.TubDataStore(20DECC08).Init
20180320 18124415  .  +    			ubApp.TubApp(02AB3EE0).DBExecute
20180320 18124415  .  +    				ubApp.TubApp(02AB3EE0).TubApp.InternalDBExecute
20180320 18124415  . debug 					P1: Int64		335295204392961
20180320 18124415  . debug 					P2: DateTime	9999-12-31T00:00:00
20180320 18124415  . SQL   					ubDBSQLite3ThreadSafe.TubSQLite3Statement(17281410) SELECT A01.ID  FROM ubm_navshortcut A01  WHERE A01.parentID=? AND A01.mi_deleteDate=?
20180320 18124415  .  -    				00.000.090
20180320 18124415  .  -    			00.000.176
20180320 18124415  . debug 			Query result for entity "ubm_navshortcut" into data name "_temp": row count=0
20180320 18124415  .  -    		00.000.188
20180320 18124415  .  -    	00.000.290
20180320 18124415  .  +    	ubMixinClasses.TubStorageMixin(02B042C0).MixinMethod
20180320 18124415  . debug 		ubm_navshortcut.beforedelete(TubStorageMixin)
20180320 18124415  .  +    		ubMixinClasses.TubRLSMixin(02B04E20).MixinMethod
20180320 18124415  . debug 			ubm_navshortcut.select(TubRLSMixin)
20180320 18124415  . debug 			Prepare RLS expression for ubm_navshortcut
20180320 18124415  .  -    		00.000.235
20180320 18124415  .  +    		ubMixinClasses.TubStorageMixin(02B042C0).MixinMethod
20180320 18124415  . debug 			ubm_navshortcut.select(TubStorageMixin)
20180320 18124415  .  +    			ubApp.TubDataStore(20DEC410).Init
20180320 18124415  .  +    				ubApp.TubApp(02AB3EE0).DBExecute
20180320 18124415  .  +    					ubApp.TubApp(02AB3EE0).TubApp.InternalDBExecute
20180320 18124415  . debug 						P1: Int64		10
20180320 18124415  . debug 						P2: Int64		10
20180320 18124415  . debug 						P3: Int64		335295204392961
20180320 18124415  . debug 						P4: DateTime	9999-12-31T00:00:00
20180320 18124415  . SQL   						ubDBSQLite3ThreadSafe.TubSQLite3Statement(172814D0) SELECT A01.ID,A01.desktopID,A01.parentID,A01.code,A01.isFolder,A01.caption,A01.cmdCode,A01.inWindow,A01.isCollapsed,A01.displayOrder,A01.iconCls,A01.mi_treePath,A01.mi_owner,A01.mi_createDate,A01.mi_createUser,A01.mi_modifyDate,A01.mi_modifyUser,A01.mi_deleteDate,A01.mi_deleteUser  FROM ubm_navshortcut A01  WHERE (( A01.mi_owner = ? ) OR               (1=1) OR                             exists (select 1 from ubm_navshortcut_adm admsubtable where admsubtable.instanceID = A01.ID and admsubtable.admSubjID in ... (truncated) length=626
20180320 18124415  .  -    					00.000.140
20180320 18124415  .  -    				00.000.207
20180320 18124415  . debug 				Query result for entity "ubm_navshortcut" into data name "": row count=1
20180320 18124415  .  -    			00.000.226
20180320 18124415  .  -    		00.000.468
20180320 18124415  .  +    		ubApp.TubDataStore(20DECC08).Init
20180320 18124415  .  +    			ubApp.TubApp(02AB3EE0).DBExecute
20180320 18124415  .  +    				ubApp.TubApp(02AB3EE0).TubApp.InternalDBExecute
20180320 18124415  . debug 					P1: Int64		335295204392961
20180320 18124415  . SQL   					ubDBSQLite3ThreadSafe.TubSQLite3Statement(172812F0) SELECT A01.ID  FROM ubm_navshortcut_adm A01  WHERE A01.instanceID=?
20180320 18124415  .  -    				00.000.030
20180320 18124415  .  -    			00.000.062
20180320 18124415  . debug 			Query result for entity "ubm_navshortcut" into data name "ubm_navshortcut_adm": row count=0
20180320 18124415  .  -    		00.000.069
20180320 18124415  .  -    	00.000.945
20180320 18124415  .  +    	ubMixinClasses.TubStorageMixin(02B042C0).MixinMethod
20180320 18124415  . debug 		ubm_navshortcut.delete(TubStorageMixin)
20180320 18124415  .  +    		ubApp.TubApp(02AB3EE0).DBExecute
20180320 18124415  .  +    			ubApp.TubApp(02AB3EE0).TubApp.InternalDBExecute
20180320 18124415  . debug 				P1: Int64		10
20180320 18124415  . debug 				P2: DateTime	2018-03-20T18:12:44
20180320 18124415  . debug 				P3: Int64		10
20180320 18124415  . debug 				P4: DateTime	2018-03-20T20:12:44
20180320 18124415  . debug 				P5: Int64		335295204392961
20180320 18124415  . DB    				StartTransaction for connection "main"
20180320 18124415  . SQL   				ubDBSQLite3ThreadSafe.TubSQLite3Statement(172816B0) UPDATE ubm_navshortcut SET mi_deleteUser=?,mi_modifyDate=?,mi_modifyUser=?,mi_deleteDate=? WHERE ID= ?
20180320 18124415  .  -    			00.000.204
20180320 18124415  .  -    		00.000.206
20180320 18124415  .  -    	00.000.283
20180320 18124415  .  +    	ubMixinClasses.TubAuditMixin(02B04F70).MixinMethod
20180320 18124415  . debug 		ubm_navshortcut.afterdelete(TubAuditMixin)
20180320 18124415  .  +    		ubApp.TubDataStore(20DEE6E8).TubDataStore.ExecuteInsertFromSQL
20180320 18124415  .  +    			ubApp.TubApp(02AB3EE0).DBExecute
20180320 18124415  .  +    				ubApp.TubApp(02AB3EE0).TubApp.InternalDBExecute
20180320 18124415  . debug 					P1: Int64		335498392567809
20180320 18124415  . debug 					P2: String(15)	ubm_navshortcut
20180320 18124415  . debug 					P3: Int64		335295204392961
20180320 18124415  . debug 					P4: String(6)	DELETE
20180320 18124415  . debug 					P5: Int64		10
20180320 18124415  . debug 					P6: DateTime	2018-03-20T18:12:44
20180320 18124415  . debug 					P7: String(9)	127.0.0.1
20180320 18124415  . debug 					P8: Int64		335295204392961
20180320 18124415  . debug 					P9: String(725..)	{"ID":335295204392961,"desktopID":335295183650817,"parentID":335295190532097,"code":"req_depart","is...
20180320 18124415  . SQL   					ubDBSQLite3ThreadSafe.TubSQLite3Statement(17281590) INSERT INTO uba_auditTrail (ID,entity,entityinfo_id,actionType,actionUser,actionTime,remoteIP,parentEntityInfo_id,fromValue) VALUES (?,?,?,?,?,?,?,?,?)
20180320 18124415  .  -    				00.000.110
20180320 18124415  .  -    			00.000.112
20180320 18124415  .  -    		00.000.196
20180320 18124415  .  -    	00.000.233
20180320 18124415  .  +    	ubMixinClasses.TubStorageMixin(02B042C0).MixinMethod
20180320 18124415  . debug 		ubm_navshortcut.afterdelete(TubStorageMixin)
20180320 18124415  .  -    	00.000.001
20180320 18124415  . DB    	Commit connection "main" in 340us
20180320 18124415  . http  	127.0.0.1 <- 200
20180320 18124415  .  -    00.002.628
20180320 18124617  %  +    ubql
20180320 18124617  % http  	127.0.0.1 -> POST ubql
20180320 18124617  % http  	[{"entity":"ubm_navshortcut","method":"delete","execParams":{"ID":335295190532097}}]
20180320 18124617  % auth  	admin/4605666
20180320 18124617  % call  	endpoint ubql
20180320 18124617  %  +    	ubMixinClasses.TubTreeMixin(02B04DB0).MixinMethod
20180320 18124617  % debug 		ubm_navshortcut.beforedelete(TubTreeMixin)
20180320 18124617  %  +    		ubApp.TubDataStore(20DE6B78).Init
20180320 18124617  %  +    			ubApp.TubApp(02AB3EE0).DBExecute
20180320 18124617  %  +    				ubApp.TubApp(02AB3EE0).TubApp.InternalDBExecute
20180320 18124617  % debug 					P1: Int64		335295190532097
20180320 18124617  % debug 					P2: DateTime	9999-12-31T00:00:00
20180320 18124617  % SQL   					ubDBSQLite3ThreadSafe.TubSQLite3Statement(17281530) SELECT A01.ID  FROM ubm_navshortcut A01  WHERE A01.parentID=? AND A01.mi_deleteDate=?
20180320 18124617  %  -    				00.000.086
20180320 18124617  %  -    			00.000.201
20180320 18124617  % debug 			Query result for entity "ubm_navshortcut" into data name "_temp": row count=0
20180320 18124617  %  -    		00.000.215
20180320 18124617  %  -    	00.000.325
20180320 18124617  %  +    	ubMixinClasses.TubStorageMixin(02B042C0).MixinMethod
20180320 18124617  % debug 		ubm_navshortcut.beforedelete(TubStorageMixin)
20180320 18124617  %  +    		ubMixinClasses.TubRLSMixin(02B04E20).MixinMethod
20180320 18124617  % debug 			ubm_navshortcut.select(TubRLSMixin)
20180320 18124617  % debug 			Prepare RLS expression for ubm_navshortcut
20180320 18124617  %  -    		00.000.408
20180320 18124617  %  +    		ubMixinClasses.TubStorageMixin(02B042C0).MixinMethod
20180320 18124617  % debug 			ubm_navshortcut.select(TubStorageMixin)
20180320 18124617  %  +    			ubApp.TubDataStore(20DEEAA8).Init
20180320 18124617  %  +    				ubApp.TubApp(02AB3EE0).DBExecute
20180320 18124617  %  +    					ubApp.TubApp(02AB3EE0).TubApp.InternalDBExecute
20180320 18124617  % debug 						P1: Int64		10
20180320 18124617  % debug 						P2: Int64		10
20180320 18124617  % debug 						P3: Int64		335295190532097
20180320 18124617  % debug 						P4: DateTime	9999-12-31T00:00:00
20180320 18124617  % SQL   						ubDBSQLite3ThreadSafe.TubSQLite3Statement(172817D0) SELECT A01.ID,A01.desktopID,A01.parentID,A01.code,A01.isFolder,A01.caption,A01.cmdCode,A01.inWindow,A01.isCollapsed,A01.displayOrder,A01.iconCls,A01.mi_treePath,A01.mi_owner,A01.mi_createDate,A01.mi_createUser,A01.mi_modifyDate,A01.mi_modifyUser,A01.mi_deleteDate,A01.mi_deleteUser  FROM ubm_navshortcut A01  WHERE (( A01.mi_owner = ? ) OR               (1=1) OR                             exists (select 1 from ubm_navshortcut_adm admsubtable where admsubtable.instanceID = A01.ID and admsubtable.admSubjID in ... (truncated) length=626
20180320 18124617  %  -    					00.000.149
20180320 18124617  %  -    				00.000.195
20180320 18124617  % debug 				Query result for entity "ubm_navshortcut" into data name "": row count=1
20180320 18124617  %  -    			00.000.215
20180320 18124617  %  -    		00.000.433
20180320 18124617  %  +    		ubApp.TubDataStore(20DE6B78).Init
20180320 18124617  %  +    			ubApp.TubApp(02AB3EE0).DBExecute
20180320 18124617  %  +    				ubApp.TubApp(02AB3EE0).TubApp.InternalDBExecute
20180320 18124617  % debug 					P1: Int64		335295190532097
20180320 18124617  % SQL   					ubDBSQLite3ThreadSafe.TubSQLite3Statement(17281770) SELECT A01.ID  FROM ubm_navshortcut_adm A01  WHERE A01.instanceID=?
20180320 18124617  %  -    				00.000.054
20180320 18124617  %  -    			00.000.086
20180320 18124617  % debug 			Query result for entity "ubm_navshortcut" into data name "ubm_navshortcut_adm": row count=0
20180320 18124617  %  -    		00.000.092
20180320 18124617  %  -    	00.001.128
20180320 18124617  %  +    	ubMixinClasses.TubStorageMixin(02B042C0).MixinMethod
20180320 18124617  % debug 		ubm_navshortcut.delete(TubStorageMixin)
20180320 18124617  %  +    		ubApp.TubApp(02AB3EE0).DBExecute
20180320 18124617  %  +    			ubApp.TubApp(02AB3EE0).TubApp.InternalDBExecute
20180320 18124617  % debug 				P1: Int64		10
20180320 18124617  % debug 				P2: DateTime	2018-03-20T18:12:46
20180320 18124617  % debug 				P3: Int64		10
20180320 18124617  % debug 				P4: DateTime	2018-03-20T20:12:46
20180320 18124617  % debug 				P5: Int64		335295190532097
20180320 18124617  % DB    				StartTransaction for connection "main"
20180320 18124617  % SQL   				ubDBSQLite3ThreadSafe.TubSQLite3Statement(172818F0) UPDATE ubm_navshortcut SET mi_deleteUser=?,mi_modifyDate=?,mi_modifyUser=?,mi_deleteDate=? WHERE ID= ?
20180320 18124617  %  -    			00.000.163
20180320 18124617  %  -    		00.000.165
20180320 18124617  %  -    	00.000.244
20180320 18124617  %  +    	ubMixinClasses.TubAuditMixin(02B04F70).MixinMethod
20180320 18124617  % debug 		ubm_navshortcut.afterdelete(TubAuditMixin)
20180320 18124617  %  +    		ubApp.TubDataStore(20DEC6E0).TubDataStore.ExecuteInsertFromSQL
20180320 18124617  %  +    			ubApp.TubApp(02AB3EE0).DBExecute
20180320 18124617  %  +    				ubApp.TubApp(02AB3EE0).TubApp.InternalDBExecute
20180320 18124617  % debug 					P1: Int64		335498392829953
20180320 18124617  % debug 					P2: String(15)	ubm_navshortcut
20180320 18124617  % debug 					P3: Int64		335295190532097
20180320 18124617  % debug 					P4: String(6)	DELETE
20180320 18124617  % debug 					P5: Int64		10
20180320 18124617  % debug 					P6: DateTime	2018-03-20T18:12:46
20180320 18124617  % debug 					P7: String(9)	127.0.0.1
20180320 18124617  % debug 					P8: Int64		335295190532097
20180320 18124617  % debug 					P9: String(435..)	{"ID":335295190532097,"desktopID":335295183650817,"parentID":null,"code":"req_departments_folder","i...
20180320 18124617  % SQL   					ubDBSQLite3ThreadSafe.TubSQLite3Statement(17281830) INSERT INTO uba_auditTrail (ID,entity,entityinfo_id,actionType,actionUser,actionTime,remoteIP,parentEntityInfo_id,fromValue) VALUES (?,?,?,?,?,?,?,?,?)
20180320 18124617  %  -    				00.000.085
20180320 18124617  %  -    			00.000.087
20180320 18124617  %  -    		00.000.172
20180320 18124617  %  -    	00.000.204
20180320 18124617  %  +    	ubMixinClasses.TubStorageMixin(02B042C0).MixinMethod
20180320 18124617  % debug 		ubm_navshortcut.afterdelete(TubStorageMixin)
20180320 18124617  %  -    	00.000.001
20180320 18124617  % DB    	Commit connection "main" in 316us
20180320 18124617  % http  	127.0.0.1 <- 200
20180320 18124617  %  -    00.002.728
20180320 18124928  )  +    logout
20180320 18124928  ) http  	127.0.0.1 -> POST logout
20180320 18124928  ) http  	{}
20180320 18124928  ) auth  	admin/4605666
20180320 18124928  ) call  	endpoint logout
20180320 18124928  ) auth  	Session closed admin/4605666/127.0.0.1
20180320 18124928  ) http  	127.0.0.1 <- 200
20180320 18124928  )  -    00.000.332
20180320 18124928  $  +    adm
20180320 18124928  $ http  	127.0.0.1 -> GET adm
20180320 18124928  $ call  	endpoint adm
20180320 18124928  $ http  	127.0.0.1 <- 200
20180320 18124928  $  -    00.001.341
20180320 18124930  "  +    clientRequire/font-awesome/css/font-awesome.min.css
20180320 18124930  *  +    models/adminui-pub/ub-css-all.css?ver=d41d8cd98f00b204e9800998ecf8427e
20180320 18124930  ,  +    models/adminui-pub/themes/UBGrayTheme/ub.css?ver=d41d8cd98f00b204e9800998ecf8427e
20180320 18124930  * http  	127.0.0.1 -> GET models/adminui-pub/ub-css-all.css?ver=d41d8cd98f00b204e9800998ecf8427e
20180320 18124930  , http  	127.0.0.1 -> GET models/adminui-pub/themes/UBGrayTheme/ub.css?ver=d41d8cd98f00b204e9800998ecf8427e
20180320 18124930  " http  	127.0.0.1 -> GET clientRequire/font-awesome/css/font-awesome.min.css
20180320 18124930  /  +    clientRequire/es6-promise/dist/es6-promise.auto.min.js
20180320 18124930  / http  	127.0.0.1 -> GET clientRequire/es6-promise/dist/es6-promise.auto.min.js
20180320 18124930  -  +    clientRequire/systemjs/dist/system.js?ver=d41d8cd98f00b204e9800998ecf8427e
20180320 18124930  - http  	127.0.0.1 -> GET clientRequire/systemjs/dist/system.js?ver=d41d8cd98f00b204e9800998ecf8427e
20180320 18124930  , call  	endpoint models
20180320 18124930  - call  	endpoint clientRequire
20180320 18124930  / call  	endpoint clientRequire
20180320 18124930  * call  	endpoint models
20180320 18124930  " call  	endpoint clientRequire
20180320 18124930  / info  	Call clientRequire 
20180320 18124930  " info  	Call clientRequire 
20180320 18124930  , http  	127.0.0.1 <- 200
20180320 18124930  ,  -    00.000.505
20180320 18124930  / http  	127.0.0.1 <- 200
20180320 18124930  /  -    00.000.553
20180320 18124930  * http  	127.0.0.1 <- 200
20180320 18124930  *  -    00.000.648
20180320 18124930  - info  	Call clientRequire 
20180320 18124930  - http  	127.0.0.1 <- 200
20180320 18124930  -  -    00.000.888
20180320 18124930  " http  	127.0.0.1 <- 200
20180320 18124930  "  -    00.001.274
20180320 18124930  '  +    models/adminui-pub/themes/UBGrayTheme/UBGrayTheme-all.css?ver=d41d8cd98f00b204e9800998ecf8427e
20180320 18124930  ' http  	127.0.0.1 -> GET models/adminui-pub/themes/UBGrayTheme/UBGrayTheme-all.css?ver=d41d8cd98f00b204e9800998ecf8427e
20180320 18124930  ' call  	endpoint models
20180320 18124930  ' http  	127.0.0.1 <- 200
20180320 18124930  '  -    00.000.579
20180320 18124930  (  +    models/adminui-pub/dist/ext-all.min.js?ver=d41d8cd98f00b204e9800998ecf8427e
20180320 18124930  ( http  	127.0.0.1 -> GET models/adminui-pub/dist/ext-all.min.js?ver=d41d8cd98f00b204e9800998ecf8427e
20180320 18124930  ( call  	endpoint models
20180320 18124930  ( http  	127.0.0.1 <- 200
20180320 18124930  (  -    00.000.295
20180320 18124934  +  +    clientRequire/font-awesome/fonts/fontawesome-webfont.woff2?v=4.7.0
20180320 18124934  + http  	127.0.0.1 -> GET clientRequire/font-awesome/fonts/fontawesome-webfont.woff2?v=4.7.0
20180320 18124934  + call  	endpoint clientRequire
20180320 18124934  + info  	Call clientRequire 
20180320 18124934  + http  	127.0.0.1 <- 200
20180320 18124934  +  -    00.001.188
20180320 18124959  1  +    clientRequire/@unitybase/adminui-pub/package.json
20180320 18124959  1 http  	127.0.0.1 -> GET clientRequire/@unitybase/adminui-pub/package.json
20180320 18124959  1 call  	endpoint clientRequire
20180320 18124959  1 info  	Call clientRequire 
20180320 18124959  1 http  	127.0.0.1 <- 200
20180320 18124959  1  -    00.000.332
20180320 18124960  &  +    models/UB/img/UBLogo32.png
20180320 18124960  0  +    clientRequire/@unitybase/adminui-pub/dist/adminui.app.min.js
20180320 18124960  & http  	127.0.0.1 -> GET models/UB/img/UBLogo32.png
20180320 18124960  0 http  	127.0.0.1 -> GET clientRequire/@unitybase/adminui-pub/dist/adminui.app.min.js
20180320 18124960  & call  	endpoint models
20180320 18124960  0 call  	endpoint clientRequire
20180320 18124960  0 info  	Call clientRequire 
20180320 18124960  0 http  	127.0.0.1 <- 200
20180320 18124960  0  -    00.000.507
20180320 18124960  & http  	127.0.0.1 <- 200
20180320 18124960  &  -    00.000.722
20180320 18124961  #  +    models/UB/img/UBLogo48.png
20180320 18124961  # http  	127.0.0.1 -> GET models/UB/img/UBLogo48.png
20180320 18124961  # call  	endpoint models
20180320 18124961  # http  	127.0.0.1 <- 200
20180320 18124961  #  -    00.000.466
20180320 18125011  %  +    clientRequire/@unitybase/adminui-pub/themes/UBGrayTheme/UBGrayTheme.js
20180320 18125011  % http  	127.0.0.1 -> GET clientRequire/@unitybase/adminui-pub/themes/UBGrayTheme/UBGrayTheme.js
20180320 18125011  % call  	endpoint clientRequire
20180320 18125011  % info  	Call clientRequire 
20180320 18125011  % http  	127.0.0.1 <- 200
20180320 18125011  %  -    00.000.324
20180320 18125011  .  +    getAppInfo
20180320 18125011  . http  	127.0.0.1 -> GET getAppInfo
20180320 18125011  . call  	endpoint getAppInfo
20180320 18125011  . http  	127.0.0.1 <- 304
20180320 18125011  .  -    00.000.536
20180320 18125011  )  +    models/UB/img/UBLogo128.png
20180320 18125011  ) http  	127.0.0.1 -> GET models/UB/img/UBLogo128.png
20180320 18125011  ) call  	endpoint models
20180320 18125011  ) http  	127.0.0.1 <- 200
20180320 18125011  )  -    00.000.253
20180320 18125011  $  +    models/adminui-pub/locale/lang-en.js?ubver=3865914637ef7cd48187d30356b8b4b0
20180320 18125011  $ http  	127.0.0.1 -> GET models/adminui-pub/locale/lang-en.js?ubver=3865914637ef7cd48187d30356b8b4b0
20180320 18125011  $ call  	endpoint models
20180320 18125011  $ http  	127.0.0.1 <- 200
20180320 18125011  $  -    00.000.282
20180320 18125012  ,  +    models/UB/img/UBLogo16.ico
20180320 18125012  , http  	127.0.0.1 -> GET models/UB/img/UBLogo16.ico
20180320 18125012  , call  	endpoint models
20180320 18125012  , http  	127.0.0.1 <- 200
20180320 18125012  ,  -    00.000.827
20180320 18125014  /  +    models/adminui-pub/themes/UBGrayTheme/images/form/exclamation.png
20180320 18125014  / http  	127.0.0.1 -> GET models/adminui-pub/themes/UBGrayTheme/images/form/exclamation.png
20180320 18125014  / call  	endpoint models
20180320 18125014  / http  	127.0.0.1 <- 200
20180320 18125014  /  -    00.000.449
20180320 18125135  *  +    auth?AUTHTYPE=UB&userName=admin
20180320 18125135  * http  	127.0.0.1 -> POST auth?AUTHTYPE=UB&userName=admin
20180320 18125135  * call  	endpoint auth
20180320 18125135  * http  	127.0.0.1 <- 200
20180320 18125135  *  -    00.000.396
20180320 18125135  -  +    auth?AUTHTYPE=UB&clientNonce=e0be78a2ae778a8f0515fcb539a7428aa3848bd1686899fa7853ee3a6557cef9&password=9a4f63a0df6ef69e1ff28ea65b80f6d76f11d685c1762fb0e7d62f5fd40447b4&userName=admin
20180320 18125135  - http  	127.0.0.1 -> POST auth?AUTHTYPE=UB&clientNonce=e0be78a2ae778a8f0515fcb539a7428aa3848bd1686899fa7853ee3a6557cef9&password=9a4f63a0df6ef69e1ff28ea65b80f6d76f11d685c1762fb0e7d62f5fd40447b4&userName=admin
20180320 18125135  - call  	endpoint auth
20180320 18125135  -  +    	ubApp.TubDataStore(071CDE28).Init
20180320 18125135  -  +    		ubApp.TubApp(02AB3EE0).DBExecute
20180320 18125135  -  +    			ubApp.TubApp(02AB3EE0).TubApp.InternalDBExecute
20180320 18125135  - debug 				P1: String(5)	admin
20180320 18125135  - SQL   				ubDBSQLite3ThreadSafe.TubSQLite3Statement(1727FCD0) select id, name, uPasswordHashHexa, uData, isPending, trustedIP from UBA_USER where name=? and disabled=0
20180320 18125135  -  -    			00.000.077
20180320 18125135  -  -    		00.000.173
20180320 18125135  - debug 		Query result for entity "uba_user" into data name "": row count=1
20180320 18125135  -  -    	00.000.189
20180320 18125135  -  +    	ubApp.TubDataStore(071CDE28).Init
20180320 18125135  -  +    		ubApp.TubApp(02AB3EE0).DBExecute
20180320 18125135  -  +    			ubApp.TubApp(02AB3EE0).TubApp.InternalDBExecute
20180320 18125135  - debug 				P1: Int64		10
20180320 18125135  - SQL   				ubDBSQLite3ThreadSafe.TubSQLite3Statement(17281B30) SELECT lastPasswordChangeDate FROM uba_user WHERE id=?
20180320 18125135  -  -    			00.000.027
20180320 18125135  -  -    		00.000.053
20180320 18125135  - debug 		Query result for entity "uba_user" into data name "__expireDate": row count=1
20180320 18125135  -  -    	00.000.063
20180320 18125135  -  +    	ubApp.TubDataStore(20DEC0A0).Init
20180320 18125135  -  +    		ubApp.TubApp(02AB3EE0).DBExecute
20180320 18125135  -  +    			ubApp.TubApp(02AB3EE0).TubApp.InternalDBExecute
20180320 18125135  - debug 				P1: Int64		10
20180320 18125135  - SQL   				ubDBSQLite3ThreadSafe.TubSQLite3Statement(17281BF0) SELECT A01.roleID,A02.name,A02.description  FROM uba_userrole A01  INNER JOIN uba_role A02 ON A02.ID=A01.roleID  WHERE A01.userID=?
20180320 18125135  -  -    			00.000.053
20180320 18125135  -  -    		00.000.093
20180320 18125135  - debug 		Query result for entity "uba_userrole" into data name "": row count=1
20180320 18125135  -  -    	00.000.102
20180320 18125135  - auth  	New session admin/4605693 created at 127.0.0.1/-504403139475013546 using Mozilla/5.0 (Windows NT 6.3; Win64; x64) AppleWebKit/537.36 (KHTML, like Gecko) Chrome/64.0.3282.186 Safari/537.36 OPR/51.0.2830.55
20180320 18125135  -  +    	ubMixinClasses.TubStorageMixin(02B042C0).MixinMethod
20180320 18125135  - debug 		uba_user.select(TubStorageMixin)
20180320 18125135  -  +    		ubApp.TubDataStore(20DEC0A0).Init
20180320 18125135  -  +    			ubApp.TubApp(02AB3EE0).DBExecute
20180320 18125135  -  +    				ubApp.TubApp(02AB3EE0).TubApp.InternalDBExecute
20180320 18125135  - debug 					P1: Int64		10
20180320 18125135  - SQL   					ubDBSQLite3ThreadSafe.TubSQLite3Statement(17281D10) SELECT A01.name  FROM uba_user A01  WHERE A01.ID=?
20180320 18125135  -  -    				00.000.031
20180320 18125135  -  -    			00.000.057
20180320 18125135  - debug 			Query result for entity "uba_user" into data name "": row count=1
20180320 18125135  -  -    		00.000.065
20180320 18125135  -  -    	00.000.122
20180320 18125136  -  +    	ubMixinClasses.TubStorageMixin(02B042C0).MixinMethod
20180320 18125136  - debug 		uba_advSecurity.select(TubStorageMixin)
20180320 18125136  -  +    		ubApp.TubDataStore(20DEC0A0).Init
20180320 18125136  -  +    			ubApp.TubApp(02AB3EE0).DBExecute
20180320 18125136  -  +    				ubApp.TubApp(02AB3EE0).TubApp.InternalDBExecute
20180320 18125136  - debug 					P1: Int64		10
20180320 18125136  - SQL   					ubDBSQLite3ThreadSafe.TubSQLite3Statement(17281D70) SELECT A01.ID,A01.allowedIP,A01.refreshIP,A01.fp,A01.refreshFp,A01.keyMediaName,A01.refreshKeyMedia,A01.mi_modifyDate  FROM uba_advSecurity A01  WHERE A01.userID=?
20180320 18125136  -  -    				00.000.047
20180320 18125136  -  -    			00.000.077
20180320 18125136  - debug 			Query result for entity "uba_advSecurity" into data name "": row count=0
20180320 18125136  -  -    		00.000.086
20180320 18125136  -  -    	00.000.180
20180320 18125136  -  +    	ubMixinClasses.TubStorageMixin(02B042C0).MixinMethod
20180320 18125136  - debug 		uba_userrole.select(TubStorageMixin)
20180320 18125136  -  +    		ubApp.TubDataStore(20DEC0A0).Init
20180320 18125136  -  +    			ubApp.TubApp(02AB3EE0).DBExecute
20180320 18125136  -  +    				ubApp.TubApp(02AB3EE0).TubApp.InternalDBExecute
20180320 18125136  - debug 					P1: Int64		10
20180320 18125136  - SQL   					ubDBSQLite3ThreadSafe.TubSQLite3Statement(17281E30) SELECT A01.ID,A02.name,A01.roleID  FROM uba_userrole A01  INNER JOIN uba_role A02 ON A02.ID=A01.roleID  WHERE A01.userID=?
20180320 18125136  -  -    				00.000.051
20180320 18125136  -  -    			00.000.093
20180320 18125136  - debug 			Query result for entity "uba_userrole" into data name "": row count=1
20180320 18125136  -  -    		00.000.103
20180320 18125136  -  -    	00.000.175
20180320 18125136  -  +    	ubMixinClasses.TubStorageMixin(02B042C0).MixinMethod
20180320 18125136  - debug 		uba_audit.beforeinsert(TubStorageMixin)
20180320 18125136  -  -    	00.000.006
20180320 18125136  -  +    	ubMixinClasses.TubStorageMixin(02B042C0).MixinMethod
20180320 18125136  - debug 		uba_audit.insert(TubStorageMixin)
20180320 18125136  -  +    		ubApp.TubDataStore(1731BB40).TubDataStore.ExecuteInsertFromList
20180320 18125136  -  +    			ubApp.TubDataStore(1731BB40).TubDataStore.ExecuteInsertFromSQL
20180320 18125136  -  +    				ubApp.TubApp(02AB3EE0).DBExecute
20180320 18125136  -  +    					ubApp.TubApp(02AB3EE0).TubApp.InternalDBExecute
20180320 18125136  - debug 						P1: String(8)	uba_user
20180320 18125136  - debug 						P2: Int64		10
20180320 18125136  - debug 						P3: String(5)	LOGIN
20180320 18125136  - debug 						P4: Int64		10
20180320 18125136  - debug 						P5: DateTime	2018-03-20T18:12:51
20180320 18125136  - debug 						P6: String(9)	127.0.0.1
20180320 18125136  - debug 						P7: String(5)	admin
20180320 18125136  - debug 						P8: Int64		335498393485313
20180320 18125136  - debug 						P9: String(407..)	Connection: keep-alive  Content-Length: 0  Accept: application/json, text/plain, */*  Accept-Encodin...
20180320 18125136  - DB    						StartTransaction for connection "main"
20180320 18125136  - SQL   						ubDBSQLite3ThreadSafe.TubSQLite3Statement(17281EF0) INSERT INTO uba_audit (entity,entityinfo_id,actionType,actionUser,actionTime,remoteIP,targetUser,ID,fromValue) VALUES (?,?,?,?,?,?,?,?,?)
20180320 18125136  -  -    					00.000.095
20180320 18125136  -  -    				00.000.098
20180320 18125136  -  -    			00.000.186
20180320 18125136  -  -    		00.000.198
20180320 18125136  -  -    	00.000.203
20180320 18125136  -  +    	ubMixinClasses.TubStorageMixin(02B042C0).MixinMethod
20180320 18125136  - debug 		uba_audit.afterinsert(TubStorageMixin)
20180320 18125136  -  -    	00.000.004
20180320 18125136  - DB    	Commit connection "main"
20180320 18125136  - http  	127.0.0.1 <- 200
20180320 18125136  -  -    00.005.107
20180320 18125136  "  +    getDomainInfo?userName=admin&v=4
20180320 18125136  " http  	127.0.0.1 -> GET getDomainInfo?userName=admin&v=4
20180320 18125136  " auth  	admin/4605693
20180320 18125136  " call  	endpoint getDomainInfo
20180320 18125136  " http  	127.0.0.1 <- 304
20180320 18125136  "  -    00.002.181
20180320 18125137  '  +    models/UB/locale/lang-en.js?ubver=16b0a19c938f48c16b56a05da80f0dc2
20180320 18125137  +  +    models/UBA/locale/lang-en.js?ubver=77650b6a42c37186bfb44af18a505e71
20180320 18125137  ' http  	127.0.0.1 -> GET models/UB/locale/lang-en.js?ubver=16b0a19c938f48c16b56a05da80f0dc2
20180320 18125137  + http  	127.0.0.1 -> GET models/UBA/locale/lang-en.js?ubver=77650b6a42c37186bfb44af18a505e71
20180320 18125137  1  +    models/UBM/locale/lang-en.js?ubver=5d30adb331eaa71d9412558d2ace2271
20180320 18125137  1 http  	127.0.0.1 -> GET models/UBM/locale/lang-en.js?ubver=5d30adb331eaa71d9412558d2ace2271
20180320 18125137  (  +    models/UBS/locale/lang-en.js?ubver=16f6cb04f3b2b6a19844744bc20cc653
20180320 18125137  ( http  	127.0.0.1 -> GET models/UBS/locale/lang-en.js?ubver=16f6cb04f3b2b6a19844744bc20cc653
20180320 18125137  ' call  	endpoint models
20180320 18125137  ( call  	endpoint models
20180320 18125137  1 call  	endpoint models
20180320 18125137  + call  	endpoint models
20180320 18125137  + http  	127.0.0.1 <- 200
20180320 18125137  +  -    00.000.274
20180320 18125137  1 http  	127.0.0.1 <- 200
20180320 18125137  1  -    00.000.275
20180320 18125137  ( http  	127.0.0.1 <- 200
20180320 18125137  (  -    00.000.577
20180320 18125137  ' http  	127.0.0.1 <- 200
20180320 18125137  '  -    00.001.311
20180320 18125138  &  +    clientRequire/@unitybase/ubs/package.json
20180320 18125138  & http  	127.0.0.1 -> GET clientRequire/@unitybase/ubs/package.json
20180320 18125138  & call  	endpoint clientRequire
20180320 18125138  & info  	Call clientRequire 
20180320 18125138  & http  	127.0.0.1 <- 200
20180320 18125138  &  -    00.000.282
20180320 18125138  0  +    clientRequire/@unitybase/ubs/public/initModel.js
20180320 18125138  0 http  	127.0.0.1 -> GET clientRequire/@unitybase/ubs/public/initModel.js
20180320 18125138  0 call  	endpoint clientRequire
20180320 18125138  0 info  	Call clientRequire 
20180320 18125138  0 http  	127.0.0.1 <- 200
20180320 18125138  0  -    00.000.237
20180320 18125138  #  +    clientRequire/@unitybase/ubs/public/dist/ubs.main.min.js?ubver=2018-03-20T20:03:34
20180320 18125138  # http  	127.0.0.1 -> GET clientRequire/@unitybase/ubs/public/dist/ubs.main.min.js?ubver=2018-03-20T20:03:34
20180320 18125138  # call  	endpoint clientRequire
20180320 18125138  # info  	Call clientRequire 
20180320 18125138  # http  	127.0.0.1 <- 200
20180320 18125138  #  -    00.000.294
20180320 18125138  %  +    clientRequire/@unitybase/ubm/package.json
20180320 18125138  % http  	127.0.0.1 -> GET clientRequire/@unitybase/ubm/package.json
20180320 18125138  % call  	endpoint clientRequire
20180320 18125138  % info  	Call clientRequire 
20180320 18125138  % http  	127.0.0.1 <- 200
20180320 18125138  %  -    00.000.232
20180320 18125139  .  +    clientRequire/@unitybase/ubm/public/initModel.js
20180320 18125139  . http  	127.0.0.1 -> GET clientRequire/@unitybase/ubm/public/initModel.js
20180320 18125139  . call  	endpoint clientRequire
20180320 18125139  . info  	Call clientRequire 
20180320 18125139  . http  	127.0.0.1 <- 200
20180320 18125139  .  -    00.000.568
20180320 18125140  )  +    ubql
20180320 18125140  ) http  	127.0.0.1 -> POST ubql
20180320 18125140  ) http  	[{"entity":"ubs_settings","method":"select","fieldList":["ID","settingKey","name","description","type","settingValue","defaultValue"],"version":"1519981756"},{"entity":"ubm_desktop","method":"select","fieldList":["ID","caption","code","url","isDefault","mi_owner","mi_createDate","mi_createUser","mi_modifyDate","mi_modifyUser","mi_deleteDate","mi_deleteUser"],"version":"-1"},{"entity":"ubm_form","method":"select","fieldList":["ID","code","description","caption","formType","formDef","formCode","model","entity","isDefault","mi_owner","mi_createDate","mi_createUser","mi_modifyDate","mi_modifyUser"],"version":2613330792},{"entity":"ubm_enum","method":"select","fieldList":["ID","eGroup","code","shortName","name","sortOrder","mi_owner","mi_createDate","mi_createUser","mi_modifyDate","mi_modifyUser","mi_deleteDate","mi_deleteUser"],"version":"1519981756"}]
20180320 18125140  ) auth  	admin/4605693
20180320 18125140  ) call  	endpoint ubql
20180320 18125140  )  +    	ubMixinClasses.TubStorageMixin(02B042C0).MixinMethod
20180320 18125140  ) debug 		ubs_settings.select(TubStorageMixin)
20180320 18125140  )  +    		ubApp.TubDataStore(20DEC730).Init
20180320 18125140  )  +    			ubApp.TubApp(02AB3EE0).DBExecute
20180320 18125140  )  +    				ubApp.TubApp(02AB3EE0).TubApp.InternalDBExecute
20180320 18125140  ) SQL   					ubDBSQLite3ThreadSafe.TubSQLite3Statement(17282010) SELECT ( (SELECT COALESCE(strftime('%s',  MAX(mi_modifyDate)),1) FROM ubs_settings) ) AS dataVersion
20180320 18125140  )  -    				00.000.082
20180320 18125140  )  -    			00.000.174
20180320 18125140  ) debug 			Query result for entity "ubs_settings" into data name "": row count=1
20180320 18125140  )  -    		00.000.183
20180320 18125140  )  -    	00.000.291
20180320 18125140  )  +    	ubMixinClasses.TubRLSMixin(02B04E20).MixinMethod
20180320 18125140  ) debug 		ubm_desktop.select(TubRLSMixin)
20180320 18125140  ) debug 		Prepare RLS expression for ubm_desktop
20180320 18125140  )  -    	00.000.336
20180320 18125140  )  +    	ubMixinClasses.TubStorageMixin(02B042C0).MixinMethod
20180320 18125140  ) debug 		ubm_desktop.select(TubStorageMixin)
20180320 18125140  )  +    		ubApp.TubDataStore(20DE6DD0).Init
20180320 18125140  )  +    			ubApp.TubApp(02AB3EE0).DBExecute
20180320 18125140  )  +    				ubApp.TubApp(02AB3EE0).TubApp.InternalDBExecute
20180320 18125140  ) debug 					P1: Int64		10
20180320 18125140  ) debug 					P2: Int64		10
20180320 18125140  ) debug 					P3: DateTime	9999-12-31T00:00:00
20180320 18125140  ) SQL   					ubDBSQLite3ThreadSafe.TubSQLite3Statement(17281C50) SELECT A01.ID,A01.caption,A01.code,A01.url,A01.isDefault,A01.mi_owner,A01.mi_createDate,A01.mi_createUser,A01.mi_modifyDate,A01.mi_modifyUser,A01.mi_deleteDate,A01.mi_deleteUser  FROM ubm_desktop A01  WHERE (( A01.mi_owner = ? ) OR (1=1) OR exists (select 1 from ubm_desktop_adm admsubtable where admsubtable.instanceID = A01.ID and admsubtable.admSubjID in (select ur.RoleID from uba_userrole ur where ur.UserID = ? union select 10))) AND A01.mi_deleteDate=?
20180320 18125140  )  -    				00.000.119
20180320 18125140  )  -    			00.000.157
20180320 18125140  ) debug 			Query result for entity "ubm_desktop" into data name "": row count=2
20180320 18125140  )  -    		00.000.171
20180320 18125140  )  -    	00.000.325
20180320 18125142  )  +    	ubMixinClasses.TubStorageMixin(02B042C0).MixinMethod
20180320 18125142  ) debug 		ubm_enum.select(TubStorageMixin)
20180320 18125142  )  +    		ubApp.TubDataStore(20DEEE18).Init
20180320 18125142  )  +    			ubApp.TubApp(02AB3EE0).DBExecute
20180320 18125142  )  +    				ubApp.TubApp(02AB3EE0).TubApp.InternalDBExecute
20180320 18125142  ) SQL   					ubDBSQLite3ThreadSafe.TubSQLite3Statement(17282190) SELECT ( (SELECT COALESCE(strftime('%s',  MAX(mi_modifyDate)),1) FROM ubm_enum) ) AS dataVersion
20180320 18125142  )  -    				00.000.071
20180320 18125142  )  -    			00.000.135
20180320 18125142  ) debug 			Query result for entity "ubm_enum" into data name "": row count=1
20180320 18125142  )  -    		00.000.145
20180320 18125142  )  -    	00.000.285
20180320 18125142  ) http  	127.0.0.1 <- 200
20180320 18125142  )  -    00.024.738
20180320 18125146  $  +    ubql
20180320 18125146  $ http  	127.0.0.1 -> POST ubql
20180320 18125146  $ http  	[{"entity":"ubm_navshortcut","method":"select","fieldList":["ID","desktopID","parentID","code","isFolder","caption","inWindow","isCollapsed","displayOrder","iconCls","mi_modifyDate"],"orderList":{"0":{"expression":"desktopID","order":"asc"},"1":{"expression":"parentID","order":"asc"},"2":{"expression":"displayOrder","order":"asc"},"3":{"expression":"caption","order":"asc"}}}]
20180320 18125146  $ auth  	admin/4605693
20180320 18125146  $ call  	endpoint ubql
20180320 18125146  $  +    	ubMixinClasses.TubRLSMixin(02B04E20).MixinMethod
20180320 18125146  $ debug 		ubm_navshortcut.select(TubRLSMixin)
20180320 18125146  $ debug 		Prepare RLS expression for ubm_navshortcut
20180320 18125146  $  -    	00.000.212
20180320 18125146  $  +    	ubMixinClasses.TubStorageMixin(02B042C0).MixinMethod
20180320 18125146  $ debug 		ubm_navshortcut.select(TubStorageMixin)
20180320 18125146  $  +    		ubApp.TubDataStore(20DEE6C0).Init
20180320 18125146  $  +    			ubApp.TubApp(02AB3EE0).DBExecute
20180320 18125146  $  +    				ubApp.TubApp(02AB3EE0).TubApp.InternalDBExecute
20180320 18125146  $ debug 					P1: Int64		10
20180320 18125146  $ debug 					P2: Int64		10
20180320 18125146  $ debug 					P3: DateTime	9999-12-31T00:00:00
20180320 18125146  $ SQL   					ubDBSQLite3ThreadSafe.TubSQLite3Statement(02B6B9B0) SELECT A01.ID,A01.desktopID,A01.parentID,A01.code,A01.isFolder,A01.caption,A01.inWindow,A01.isCollapsed,A01.displayOrder,A01.iconCls,A01.mi_modifyDate  FROM ubm_navshortcut A01  WHERE (( A01.mi_owner = ? ) OR               (1=1) OR                             exists (select 1 from ubm_navshortcut_adm admsubtable where admsubtable.instanceID = A01.ID and admsubtable.admSubjID in (select ur.RoleID from uba_userrole ur where ur.UserID = ? union select 10))) AND A01.mi_deleteDate=? ORDER BY 2 ASC,3 ASC,9 ASC,6 ... (truncated) length=515
20180320 18125146  $  -    				00.000.032
20180320 18125146  $  -    			00.000.246
20180320 18125146  $ debug 			Query result for entity "ubm_navshortcut" into data name "": row count=29
20180320 18125146  $  -    		00.000.280
20180320 18125146  $  -    	00.000.457
20180320 18125146  $ http  	127.0.0.1 <- 200
20180320 18125146  $  -    00.001.030
20180320 18125151  ,  +    models/adminui-pub/themes/UBGrayTheme/images/toolbar/more.png
20180320 18125151  , http  	127.0.0.1 -> GET models/adminui-pub/themes/UBGrayTheme/images/toolbar/more.png
20180320 18125151  , call  	endpoint models
20180320 18125151  /  +    models/adminui-pub/themes/UBGrayTheme/images/grid/hd-pop.png
20180320 18125151  / http  	127.0.0.1 -> GET models/adminui-pub/themes/UBGrayTheme/images/grid/hd-pop.png
20180320 18125151  / call  	endpoint models
20180320 18125151  , http  	127.0.0.1 <- 200
20180320 18125151  ,  -    00.000.633
20180320 18125151  / http  	127.0.0.1 <- 200
20180320 18125151  /  -    00.000.282
20180320 18125151  *  +    models/adminui-pub/themes/UBGrayTheme/images/button/default-toolbar-small-arrow.png
20180320 18125151  * http  	127.0.0.1 -> GET models/adminui-pub/themes/UBGrayTheme/images/button/default-toolbar-small-arrow.png
20180320 18125151  * call  	endpoint models
20180320 18125151  * http  	127.0.0.1 <- 200
20180320 18125151  *  -    00.000.185
20180320 18125318  -  +    models/adminui-pub/themes/UBGrayTheme/images/menu/scroll-top.png
20180320 18125318  "  +    models/adminui-pub/themes/UBGrayTheme/images/menu/menu-parent.png
20180320 18125318  +  +    models/adminui-pub/themes/UBGrayTheme/images/menu/scroll-bottom.png
20180320 18125318  - http  	127.0.0.1 -> GET models/adminui-pub/themes/UBGrayTheme/images/menu/scroll-top.png
20180320 18125318  " http  	127.0.0.1 -> GET models/adminui-pub/themes/UBGrayTheme/images/menu/menu-parent.png
20180320 18125318  + http  	127.0.0.1 -> GET models/adminui-pub/themes/UBGrayTheme/images/menu/scroll-bottom.png
20180320 18125318  + call  	endpoint models
20180320 18125318  - call  	endpoint models
20180320 18125318  " call  	endpoint models
20180320 18125318  " http  	127.0.0.1 <- 200
20180320 18125318  "  -    00.000.275
20180320 18125318  + http  	127.0.0.1 <- 200
20180320 18125318  +  -    00.000.564
20180320 18125318  - http  	127.0.0.1 <- 200
20180320 18125318  -  -    00.002.212
20180320 18125443  1  +    ubql
20180320 18125443  1 http  	127.0.0.1 -> POST ubql
20180320 18125443  1 http  	[{"entity":"ubm_navshortcut","method":"select","fieldList":["ID","cmdCode"],"whereList":{"c1":{"expression":"[ID]","condition":"equal","values":{"c1":335295153176673}}}}]
20180320 18125443  1 auth  	admin/4605693
20180320 18125443  1 call  	endpoint ubql
20180320 18125443  1  +    	ubMixinClasses.TubRLSMixin(02B04E20).MixinMethod
20180320 18125443  1 debug 		ubm_navshortcut.select(TubRLSMixin)
20180320 18125443  1 debug 		Prepare RLS expression for ubm_navshortcut
20180320 18125443  1  -    	00.000.222
20180320 18125443  1  +    	ubMixinClasses.TubStorageMixin(02B042C0).MixinMethod
20180320 18125443  1 debug 		ubm_navshortcut.select(TubStorageMixin)
20180320 18125443  1  +    		ubApp.TubDataStore(20DE6D30).Init
20180320 18125443  1  +    			ubApp.TubApp(02AB3EE0).DBExecute
20180320 18125443  1  +    				ubApp.TubApp(02AB3EE0).TubApp.InternalDBExecute
20180320 18125443  1 debug 					P1: Int64		335295153176673
20180320 18125443  1 debug 					P2: Int64		10
20180320 18125443  1 debug 					P3: Int64		10
20180320 18125443  1 debug 					P4: DateTime	9999-12-31T00:00:00
20180320 18125443  1 SQL   					ubDBSQLite3ThreadSafe.TubSQLite3Statement(17280510) SELECT A01.ID,A01.cmdCode  FROM ubm_navshortcut A01  WHERE A01.ID=? AND (( A01.mi_owner = ? ) OR               (1=1) OR                             exists (select 1 from ubm_navshortcut_adm admsubtable where admsubtable.instanceID = A01.ID and admsubtable.admSubjID in (select ur.RoleID from uba_userrole ur where ur.UserID = ? union select 10))) AND A01.mi_deleteDate=?
20180320 18125443  1  -    				00.000.026
20180320 18125443  1  -    			00.000.126
20180320 18125443  1 debug 			Query result for entity "ubm_navshortcut" into data name "": row count=1
20180320 18125443  1  -    		00.000.142
20180320 18125443  1  -    	00.000.273
20180320 18125443  1 http  	127.0.0.1 <- 200
20180320 18125443  1  -    00.000.823
20180320 18125447  (  +    models/adminui-pub/themes/UBGrayTheme/images/tab/tab-default-close-dark.png
20180320 18125447  ( http  	127.0.0.1 -> GET models/adminui-pub/themes/UBGrayTheme/images/tab/tab-default-close-dark.png
20180320 18125447  ( call  	endpoint models
20180320 18125447  ( http  	127.0.0.1 <- 200
20180320 18125447  (  -    00.000.280
20180320 18125449  '  +    models/adminui-pub/themes/UBGrayTheme/images/loadmask/loading.gif
20180320 18125449  ' http  	127.0.0.1 -> GET models/adminui-pub/themes/UBGrayTheme/images/loadmask/loading.gif
20180320 18125449  ' call  	endpoint models
20180320 18125449  ' http  	127.0.0.1 <- 200
20180320 18125449  '  -    00.000.611
20180320 18125450  &  +    models/adminui-pub/themes/UBGrayTheme/images/form/trigger.png
20180320 18125450  & http  	127.0.0.1 -> GET models/adminui-pub/themes/UBGrayTheme/images/form/trigger.png
20180320 18125450  & call  	endpoint models
20180320 18125450  & http  	127.0.0.1 <- 200
20180320 18125450  &  -    00.000.289
20180320 18125451  #  +    models/adminui-pub/themes/UBGrayTheme/images/grid/page-next.png
20180320 18125451  0  +    models/adminui-pub/themes/UBGrayTheme/images/grid/page-prev.png
20180320 18125451  # http  	127.0.0.1 -> GET models/adminui-pub/themes/UBGrayTheme/images/grid/page-next.png
20180320 18125451  0 http  	127.0.0.1 -> GET models/adminui-pub/themes/UBGrayTheme/images/grid/page-prev.png
20180320 18125451  # call  	endpoint models
20180320 18125451  0 call  	endpoint models
20180320 18125451  %  +    models/adminui-pub/themes/UBGrayTheme/ubimages/sum.png
20180320 18125451  % http  	127.0.0.1 -> GET models/adminui-pub/themes/UBGrayTheme/ubimages/sum.png
20180320 18125451  % call  	endpoint models
20180320 18125451  # http  	127.0.0.1 <- 200
20180320 18125451  0 http  	127.0.0.1 <- 200
20180320 18125451  #  -    00.000.288
20180320 18125451  0  -    00.000.287
20180320 18125451  % http  	127.0.0.1 <- 200
20180320 18125451  %  -    00.000.570
20180320 18125454  .  +    ubql
20180320 18125454  . http  	127.0.0.1 -> POST ubql
20180320 18125454  . http  	[{"entity":"ubm_desktop","method":"select","fieldList":["caption","code","url","isDefault","ID","mi_modifyDate"],"version":"-1"}]
20180320 18125454  . auth  	admin/4605693
20180320 18125454  . call  	endpoint ubql
20180320 18125454  .  +    	ubMixinClasses.TubRLSMixin(02B04E20).MixinMethod
20180320 18125454  . debug 		ubm_desktop.select(TubRLSMixin)
20180320 18125454  . debug 		Prepare RLS expression for ubm_desktop
20180320 18125454  .  -    	00.000.331
20180320 18125454  .  +    	ubMixinClasses.TubStorageMixin(02B042C0).MixinMethod
20180320 18125454  . debug 		ubm_desktop.select(TubStorageMixin)
20180320 18125454  .  +    		ubApp.TubDataStore(20DEE6C0).Init
20180320 18125454  .  +    			ubApp.TubApp(02AB3EE0).DBExecute
20180320 18125454  .  +    				ubApp.TubApp(02AB3EE0).TubApp.InternalDBExecute
20180320 18125454  . debug 					P1: Int64		10
20180320 18125454  . debug 					P2: Int64		10
20180320 18125454  . debug 					P3: DateTime	9999-12-31T00:00:00
20180320 18125454  . SQL   					ubDBSQLite3ThreadSafe.TubSQLite3Statement(172821F0) SELECT A01.caption,A01.code,A01.url,A01.isDefault,A01.ID,A01.mi_modifyDate  FROM ubm_desktop A01  WHERE (( A01.mi_owner = ? ) OR (1=1) OR exists (select 1 from ubm_desktop_adm admsubtable where admsubtable.instanceID = A01.ID and admsubtable.admSubjID in (select ur.RoleID from uba_userrole ur where ur.UserID = ? union select 10))) AND A01.mi_deleteDate=?
20180320 18125454  .  -    				00.000.135
20180320 18125454  .  -    			00.000.220
20180320 18125454  . debug 			Query result for entity "ubm_desktop" into data name "": row count=2
20180320 18125454  .  -    		00.000.236
20180320 18125454  .  -    	00.000.381
20180320 18125454  . http  	127.0.0.1 <- 200
20180320 18125454  .  -    00.001.056
20180320 18125640  $  +    models/adminui-pub/themes/UBGrayTheme/images/shared/icon-question.png
20180320 18125640  )  +    models/adminui-pub/themes/UBGrayTheme/images/tools/tool-sprites.png
20180320 18125640  $ http  	127.0.0.1 -> GET models/adminui-pub/themes/UBGrayTheme/images/shared/icon-question.png
20180320 18125640  ) http  	127.0.0.1 -> GET models/adminui-pub/themes/UBGrayTheme/images/tools/tool-sprites.png
20180320 18125640  ) call  	endpoint models
20180320 18125640  $ call  	endpoint models
20180320 18125640  $ http  	127.0.0.1 <- 200
20180320 18125640  ) http  	127.0.0.1 <- 200
20180320 18125640  $  -    00.000.273
20180320 18125640  )  -    00.000.273
20180320 18125719  ,  +    ubql
20180320 18125719  , http  	127.0.0.1 -> POST ubql
20180320 18125719  , http  	[{"entity":"ubm_desktop","method":"delete","execParams":{"ID":335295183650817}}]
20180320 18125719  , auth  	admin/4605693
20180320 18125719  , call  	endpoint ubql
20180320 18125719  ,  +    	ubMixinClasses.TubStorageMixin(02B042C0).MixinMethod
20180320 18125719  , debug 		ubm_desktop.beforedelete(TubStorageMixin)
20180320 18125719  ,  +    		ubMixinClasses.TubRLSMixin(02B04E20).MixinMethod
20180320 18125719  , debug 			ubm_desktop.select(TubRLSMixin)
20180320 18125719  , debug 			Prepare RLS expression for ubm_desktop
20180320 18125719  ,  -    		00.000.356
20180320 18125719  ,  +    		ubMixinClasses.TubStorageMixin(02B042C0).MixinMethod
20180320 18125719  , debug 			ubm_desktop.select(TubStorageMixin)
20180320 18125719  ,  +    			ubApp.TubDataStore(20DEF188).Init
20180320 18125719  ,  +    				ubApp.TubApp(02AB3EE0).DBExecute
20180320 18125719  ,  +    					ubApp.TubApp(02AB3EE0).TubApp.InternalDBExecute
20180320 18125719  , debug 						P1: Int64		10
20180320 18125719  , debug 						P2: Int64		10
20180320 18125719  , debug 						P3: Int64		335295183650817
20180320 18125719  , debug 						P4: DateTime	9999-12-31T00:00:00
20180320 18125719  , SQL   						ubDBSQLite3ThreadSafe.TubSQLite3Statement(17281A10) SELECT A01.ID,A01.caption,A01.code,A01.url,A01.isDefault,A01.mi_owner,A01.mi_createDate,A01.mi_createUser,A01.mi_modifyDate,A01.mi_modifyUser,A01.mi_deleteDate,A01.mi_deleteUser  FROM ubm_desktop A01  WHERE (( A01.mi_owner = ? ) OR (1=1) OR exists (select 1 from ubm_desktop_adm admsubtable where admsubtable.instanceID = A01.ID and admsubtable.admSubjID in (select ur.RoleID from uba_userrole ur where ur.UserID = ? union select 10))) AND A01.ID=? AND A01.mi_deleteDate=?
20180320 18125719  ,  -    					00.000.156
20180320 18125719  ,  -    				00.000.255
20180320 18125719  , debug 				Query result for entity "ubm_desktop" into data name "": row count=1
20180320 18125719  ,  -    			00.000.272
20180320 18125719  ,  -    		00.000.466
20180320 18125719  ,  +    		ubApp.TubDataStore(20DEEE40).Init
20180320 18125719  ,  +    			ubApp.TubApp(02AB3EE0).DBExecute
20180320 18125719  ,  +    				ubApp.TubApp(02AB3EE0).TubApp.InternalDBExecute
20180320 18125719  , debug 					P1: Int64		335295183650817
20180320 18125719  , SQL   					ubDBSQLite3ThreadSafe.TubSQLite3Statement(17282310) SELECT A01.ID  FROM ubm_desktop_adm A01  WHERE A01.instanceID=?
20180320 18125719  ,  -    				00.000.032
20180320 18125719  ,  -    			00.000.064
20180320 18125719  , debug 			Query result for entity "ubm_desktop" into data name "ubm_desktop_adm": row count=0
20180320 18125719  ,  -    		00.000.070
20180320 18125719  ,  -    	00.001.044
20180320 18125719  ,  +    	ubMixinClasses.TubStorageMixin(02B042C0).MixinMethod
20180320 18125719  , debug 		ubm_desktop.delete(TubStorageMixin)
20180320 18125719  ,  +    		ubApp.TubApp(02AB3EE0).DBExecute
20180320 18125719  ,  +    			ubApp.TubApp(02AB3EE0).TubApp.InternalDBExecute
20180320 18125719  , debug 				P1: Int64		10
20180320 18125719  , debug 				P2: DateTime	2018-03-20T18:12:57
20180320 18125719  , debug 				P3: Int64		10
20180320 18125719  , debug 				P4: DateTime	2018-03-20T20:12:57
20180320 18125719  , debug 				P5: Int64		335295183650817
20180320 18125719  , DB    				StartTransaction for connection "main"
20180320 18125719  , SQL   				ubDBSQLite3ThreadSafe.TubSQLite3Statement(17282370) UPDATE ubm_desktop SET mi_deleteUser=?,mi_modifyDate=?,mi_modifyUser=?,mi_deleteDate=? WHERE ID= ?
20180320 18125719  ,  -    			00.000.138
20180320 18125719  ,  -    		00.000.140
20180320 18125719  ,  -    	00.000.219
20180320 18125719  ,  +    	ubMixinClasses.TubAuditMixin(02B04F70).MixinMethod
20180320 18125719  , debug 		ubm_desktop.afterdelete(TubAuditMixin)
20180320 18125719  ,  +    		ubApp.TubDataStore(20DEE580).TubDataStore.ExecuteInsertFromSQL
20180320 18125719  ,  +    			ubApp.TubApp(02AB3EE0).DBExecute
20180320 18125719  ,  +    				ubApp.TubApp(02AB3EE0).TubApp.InternalDBExecute
20180320 18125719  , debug 					P1: Int64		335498394238977
20180320 18125719  , debug 					P2: String(11)	ubm_desktop
20180320 18125719  , debug 					P3: Int64		335295183650817
20180320 18125719  , debug 					P4: String(6)	DELETE
20180320 18125719  , debug 					P5: Int64		10
20180320 18125719  , debug 					P6: DateTime	2018-03-20T18:12:57
20180320 18125719  , debug 					P7: String(9)	127.0.0.1
20180320 18125719  , debug 					P8: Int64		335295183650817
20180320 18125719  , debug 					P9: String(285..)	{"ID":335295183650817,"caption":"City Requests","code":"CityReq_desktop","url":null,"isDefault":0,"m...
20180320 18125719  , SQL   					ubDBSQLite3ThreadSafe.TubSQLite3Statement(17282070) INSERT INTO uba_auditTrail (ID,entity,entityinfo_id,actionType,actionUser,actionTime,remoteIP,parentEntityInfo_id,fromValue) VALUES (?,?,?,?,?,?,?,?,?)
20180320 18125719  ,  -    				00.000.087
20180320 18125719  ,  -    			00.000.089
20180320 18125719  ,  -    		00.000.176
20180320 18125719  ,  -    	00.000.207
20180320 18125719  ,  +    	ubMixinClasses.TubStorageMixin(02B042C0).MixinMethod
20180320 18125719  , debug 		ubm_desktop.afterdelete(TubStorageMixin)
20180320 18125719  ,  -    	00.000.002
20180320 18125719  , DB    	Commit connection "main" in 345us
20180320 18125719  , http  	127.0.0.1 <- 200
20180320 18125719  ,  -    00.002.267
20180320 18125850  /  +    logout
20180320 18125850  / http  	127.0.0.1 -> POST logout
20180320 18125850  / http  	{}
20180320 18125850  / auth  	admin/4605693
20180320 18125850  / call  	endpoint logout
20180320 18125850  / auth  	Session closed admin/4605693/127.0.0.1
20180320 18125850  / http  	127.0.0.1 <- 200
20180320 18125850  /  -    00.000.190
20180320 18125850  *  +    adm
20180320 18125850  * http  	127.0.0.1 -> GET adm
20180320 18125850  * call  	endpoint adm
20180320 18125850  * http  	127.0.0.1 <- 200
20180320 18125850  *  -    00.000.710
20180320 18125851  "  +    models/adminui-pub/themes/UBGrayTheme/UBGrayTheme-all.css?ver=d41d8cd98f00b204e9800998ecf8427e
20180320 18125851  +  +    models/adminui-pub/ub-css-all.css?ver=d41d8cd98f00b204e9800998ecf8427e
20180320 18125851  " http  	127.0.0.1 -> GET models/adminui-pub/themes/UBGrayTheme/UBGrayTheme-all.css?ver=d41d8cd98f00b204e9800998ecf8427e
20180320 18125851  -  +    clientRequire/font-awesome/css/font-awesome.min.css
20180320 18125851  + http  	127.0.0.1 -> GET models/adminui-pub/ub-css-all.css?ver=d41d8cd98f00b204e9800998ecf8427e
20180320 18125851  - http  	127.0.0.1 -> GET clientRequire/font-awesome/css/font-awesome.min.css
20180320 18125851  + call  	endpoint models
20180320 18125851  " call  	endpoint models
20180320 18125851  - call  	endpoint clientRequire
20180320 18125851  (  +    clientRequire/es6-promise/dist/es6-promise.auto.min.js
20180320 18125851  ( http  	127.0.0.1 -> GET clientRequire/es6-promise/dist/es6-promise.auto.min.js
20180320 18125851  1  +    models/adminui-pub/themes/UBGrayTheme/ub.css?ver=d41d8cd98f00b204e9800998ecf8427e
20180320 18125851  1 http  	127.0.0.1 -> GET models/adminui-pub/themes/UBGrayTheme/ub.css?ver=d41d8cd98f00b204e9800998ecf8427e
20180320 18125851  ( call  	endpoint clientRequire
20180320 18125851  1 call  	endpoint models
20180320 18125851  - info  	Call clientRequire 
20180320 18125851  + http  	127.0.0.1 <- 200
20180320 18125851  " http  	127.0.0.1 <- 200
20180320 18125851  +  -    00.000.360
20180320 18125851  "  -    00.000.366
20180320 18125851  1 http  	127.0.0.1 <- 200
20180320 18125851  - http  	127.0.0.1 <- 200
20180320 18125851  1  -    00.000.301
20180320 18125851  -  -    00.000.372
20180320 18125851  ( info  	Call clientRequire 
20180320 18125851  ( http  	127.0.0.1 <- 200
20180320 18125851  (  -    00.000.724
20180320 18125851  '  +    clientRequire/systemjs/dist/system.js?ver=d41d8cd98f00b204e9800998ecf8427e
20180320 18125851  ' http  	127.0.0.1 -> GET clientRequire/systemjs/dist/system.js?ver=d41d8cd98f00b204e9800998ecf8427e
20180320 18125851  ' call  	endpoint clientRequire
20180320 18125851  ' info  	Call clientRequire 
20180320 18125851  ' http  	127.0.0.1 <- 200
20180320 18125851  '  -    00.000.746
20180320 18125851  &  +    models/adminui-pub/dist/ext-all.min.js?ver=d41d8cd98f00b204e9800998ecf8427e
20180320 18125851  & http  	127.0.0.1 -> GET models/adminui-pub/dist/ext-all.min.js?ver=d41d8cd98f00b204e9800998ecf8427e
20180320 18125851  & call  	endpoint models
20180320 18125851  & http  	127.0.0.1 <- 200
20180320 18125851  &  -    00.000.345
20180320 18125854  #  +    clientRequire/font-awesome/fonts/fontawesome-webfont.woff2?v=4.7.0
20180320 18125854  # http  	127.0.0.1 -> GET clientRequire/font-awesome/fonts/fontawesome-webfont.woff2?v=4.7.0
20180320 18125854  # call  	endpoint clientRequire
20180320 18125854  # info  	Call clientRequire 
20180320 18125854  # http  	127.0.0.1 <- 200
20180320 18125854  #  -    00.000.390
20180320 18125914  0  +    clientRequire/@unitybase/adminui-pub/package.json
20180320 18125914  0 http  	127.0.0.1 -> GET clientRequire/@unitybase/adminui-pub/package.json
20180320 18125914  0 call  	endpoint clientRequire
20180320 18125914  0 info  	Call clientRequire 
20180320 18125914  0 http  	127.0.0.1 <- 200
20180320 18125914  0  -    00.000.482
20180320 18125915  .  +    models/UB/img/UBLogo32.png
20180320 18125915  %  +    clientRequire/@unitybase/adminui-pub/dist/adminui.app.min.js
20180320 18125915  . http  	127.0.0.1 -> GET models/UB/img/UBLogo32.png
20180320 18125915  % http  	127.0.0.1 -> GET clientRequire/@unitybase/adminui-pub/dist/adminui.app.min.js
20180320 18125915  % call  	endpoint clientRequire
20180320 18125915  . call  	endpoint models
20180320 18125915  % info  	Call clientRequire 
20180320 18125915  . http  	127.0.0.1 <- 200
20180320 18125915  .  -    00.000.266
20180320 18125915  % http  	127.0.0.1 <- 200
20180320 18125915  %  -    00.000.466
20180320 18125915  $  +    models/UB/img/UBLogo48.png
20180320 18125915  $ http  	127.0.0.1 -> GET models/UB/img/UBLogo48.png
20180320 18125915  $ call  	endpoint models
20180320 18125915  $ http  	127.0.0.1 <- 200
20180320 18125915  $  -    00.000.685
20180320 18125915  )  +    models/UB/img/UBLogo128.png
20180320 18125915  ) http  	127.0.0.1 -> GET models/UB/img/UBLogo128.png
20180320 18125915  ) call  	endpoint models
20180320 18125915  ) http  	127.0.0.1 <- 200
20180320 18125915  )  -    00.000.659
20180320 18125927  /  +    clientRequire/@unitybase/adminui-pub/themes/UBGrayTheme/UBGrayTheme.js
20180320 18125927  ,  +    getAppInfo
20180320 18125927  , http  	127.0.0.1 -> GET getAppInfo
20180320 18125927  / http  	127.0.0.1 -> GET clientRequire/@unitybase/adminui-pub/themes/UBGrayTheme/UBGrayTheme.js
20180320 18125927  / call  	endpoint clientRequire
20180320 18125927  , call  	endpoint getAppInfo
20180320 18125927  / info  	Call clientRequire 
20180320 18125927  / http  	127.0.0.1 <- 200
20180320 18125927  /  -    00.000.325
20180320 18125927  , http  	127.0.0.1 <- 304
20180320 18125927  ,  -    00.000.383
20180320 18125927  *  +    models/UB/img/UBLogo16.ico
20180320 18125927  * http  	127.0.0.1 -> GET models/UB/img/UBLogo16.ico
20180320 18125927  * call  	endpoint models
20180320 18125927  * http  	127.0.0.1 <- 200
20180320 18125927  *  -    00.000.271
20180320 18125927  -  +    models/adminui-pub/locale/lang-en.js?ubver=3865914637ef7cd48187d30356b8b4b0
20180320 18125927  - http  	127.0.0.1 -> GET models/adminui-pub/locale/lang-en.js?ubver=3865914637ef7cd48187d30356b8b4b0
20180320 18125927  - call  	endpoint models
20180320 18125927  - http  	127.0.0.1 <- 200
20180320 18125927  -  -    00.000.247
20180320 18125929  1  +    models/adminui-pub/themes/UBGrayTheme/images/form/exclamation.png
20180320 18125929  1 http  	127.0.0.1 -> GET models/adminui-pub/themes/UBGrayTheme/images/form/exclamation.png
20180320 18125929  1 call  	endpoint models
20180320 18125929  1 http  	127.0.0.1 <- 200
20180320 18125929  1  -    00.000.281
20180320 18130025  (  +    auth?AUTHTYPE=UB&userName=admin
20180320 18130025  ( http  	127.0.0.1 -> POST auth?AUTHTYPE=UB&userName=admin
20180320 18130025  ( call  	endpoint auth
20180320 18130025  ( http  	127.0.0.1 <- 200
20180320 18130025  (  -    00.000.174
20180320 18130025  +  +    auth?AUTHTYPE=UB&clientNonce=3c1f725ab64296734719d473e8b65c6c8428b40936f90c21224e003ced25a325&password=04aad595921ec28db894ea52cc44f4a859f761b188d1bde055397ca6aeba4920&userName=admin
20180320 18130025  + http  	127.0.0.1 -> POST auth?AUTHTYPE=UB&clientNonce=3c1f725ab64296734719d473e8b65c6c8428b40936f90c21224e003ced25a325&password=04aad595921ec28db894ea52cc44f4a859f761b188d1bde055397ca6aeba4920&userName=admin
20180320 18130025  + call  	endpoint auth
20180320 18130025  +  +    	ubApp.TubDataStore(071CE210).Init
20180320 18130025  +  +    		ubApp.TubApp(02AB3EE0).DBExecute
20180320 18130025  +  +    			ubApp.TubApp(02AB3EE0).TubApp.InternalDBExecute
20180320 18130025  + debug 				P1: String(5)	admin
20180320 18130025  + SQL   				ubDBSQLite3ThreadSafe.TubSQLite3Statement(1727F9D0) select id, name, uPasswordHashHexa, uData, isPending, trustedIP from UBA_USER where name=? and disabled=0
20180320 18130025  +  -    			00.000.022
20180320 18130025  +  -    		00.000.116
20180320 18130025  + debug 		Query result for entity "uba_user" into data name "": row count=1
20180320 18130025  +  -    	00.000.132
20180320 18130025  +  +    	ubApp.TubDataStore(071CE210).Init
20180320 18130025  +  +    		ubApp.TubApp(02AB3EE0).DBExecute
20180320 18130025  +  +    			ubApp.TubApp(02AB3EE0).TubApp.InternalDBExecute
20180320 18130025  + debug 				P1: Int64		10
20180320 18130025  + SQL   				ubDBSQLite3ThreadSafe.TubSQLite3Statement(1727E1D0) SELECT lastPasswordChangeDate FROM uba_user WHERE id=?
20180320 18130025  +  -    			00.000.009
20180320 18130025  +  -    		00.000.031
20180320 18130025  + debug 		Query result for entity "uba_user" into data name "__expireDate": row count=1
20180320 18130025  +  -    	00.000.039
20180320 18130025  +  +    	ubApp.TubDataStore(20DEEE18).Init
20180320 18130025  +  +    		ubApp.TubApp(02AB3EE0).DBExecute
20180320 18130025  +  +    			ubApp.TubApp(02AB3EE0).TubApp.InternalDBExecute
20180320 18130025  + debug 				P1: Int64		10
20180320 18130025  + SQL   				ubDBSQLite3ThreadSafe.TubSQLite3Statement(1727FDF0) SELECT A01.roleID,A02.name,A02.description  FROM uba_userrole A01  INNER JOIN uba_role A02 ON A02.ID=A01.roleID  WHERE A01.userID=?
20180320 18130025  +  -    			00.000.010
20180320 18130025  +  -    		00.000.043
20180320 18130025  + debug 		Query result for entity "uba_userrole" into data name "": row count=1
20180320 18130025  +  -    	00.000.052
20180320 18130025  + auth  	New session admin/4605692 created at 127.0.0.1/-504403139475013546 using Mozilla/5.0 (Windows NT 6.3; Win64; x64) AppleWebKit/537.36 (KHTML, like Gecko) Chrome/64.0.3282.186 Safari/537.36 OPR/51.0.2830.55
20180320 18130025  +  +    	ubMixinClasses.TubStorageMixin(02B042C0).MixinMethod
20180320 18130025  + debug 		uba_user.select(TubStorageMixin)
20180320 18130025  +  +    		ubApp.TubDataStore(20DEEE18).Init
20180320 18130025  +  +    			ubApp.TubApp(02AB3EE0).DBExecute
20180320 18130025  +  +    				ubApp.TubApp(02AB3EE0).TubApp.InternalDBExecute
20180320 18130025  + debug 					P1: Int64		10
20180320 18130025  + SQL   					ubDBSQLite3ThreadSafe.TubSQLite3Statement(1727FEB0) SELECT A01.name  FROM uba_user A01  WHERE A01.ID=?
20180320 18130025  +  -    				00.000.008
20180320 18130025  +  -    			00.000.031
20180320 18130025  + debug 			Query result for entity "uba_user" into data name "": row count=1
20180320 18130025  +  -    		00.000.038
20180320 18130025  +  -    	00.000.093
20180320 18130025  +  +    	ubMixinClasses.TubStorageMixin(02B042C0).MixinMethod
20180320 18130025  + debug 		uba_advSecurity.select(TubStorageMixin)
20180320 18130025  +  +    		ubApp.TubDataStore(20DEEE18).Init
20180320 18130025  +  +    			ubApp.TubApp(02AB3EE0).DBExecute
20180320 18130025  +  +    				ubApp.TubApp(02AB3EE0).TubApp.InternalDBExecute
20180320 18130025  + debug 					P1: Int64		10
20180320 18130025  + SQL   					ubDBSQLite3ThreadSafe.TubSQLite3Statement(1727FF70) SELECT A01.ID,A01.allowedIP,A01.refreshIP,A01.fp,A01.refreshFp,A01.keyMediaName,A01.refreshKeyMedia,A01.mi_modifyDate  FROM uba_advSecurity A01  WHERE A01.userID=?
20180320 18130025  +  -    				00.000.013
20180320 18130025  +  -    			00.000.044
20180320 18130025  + debug 			Query result for entity "uba_advSecurity" into data name "": row count=0
20180320 18130025  +  -    		00.000.053
20180320 18130025  +  -    	00.000.148
20180320 18130025  +  +    	ubMixinClasses.TubStorageMixin(02B042C0).MixinMethod
20180320 18130025  + debug 		uba_userrole.select(TubStorageMixin)
20180320 18130025  +  +    		ubApp.TubDataStore(20DEEE18).Init
20180320 18130025  +  +    			ubApp.TubApp(02AB3EE0).DBExecute
20180320 18130025  +  +    				ubApp.TubApp(02AB3EE0).TubApp.InternalDBExecute
20180320 18130025  + debug 					P1: Int64		10
20180320 18130025  + SQL   					ubDBSQLite3ThreadSafe.TubSQLite3Statement(1727FFD0) SELECT A01.ID,A02.name,A01.roleID  FROM uba_userrole A01  INNER JOIN uba_role A02 ON A02.ID=A01.roleID  WHERE A01.userID=?
20180320 18130025  +  -    				00.000.011
20180320 18130025  +  -    			00.000.051
20180320 18130025  + debug 			Query result for entity "uba_userrole" into data name "": row count=1
20180320 18130025  +  -    		00.000.060
20180320 18130025  +  -    	00.000.134
20180320 18130025  +  +    	ubMixinClasses.TubStorageMixin(02B042C0).MixinMethod
20180320 18130025  + debug 		uba_audit.beforeinsert(TubStorageMixin)
20180320 18130025  +  -    	00.000.006
20180320 18130025  +  +    	ubMixinClasses.TubStorageMixin(02B042C0).MixinMethod
20180320 18130025  + debug 		uba_audit.insert(TubStorageMixin)
20180320 18130025  +  +    		ubApp.TubDataStore(07229A10).TubDataStore.ExecuteInsertFromList
20180320 18130025  +  +    			ubApp.TubDataStore(07229A10).TubDataStore.ExecuteInsertFromSQL
20180320 18130025  +  +    				ubApp.TubApp(02AB3EE0).DBExecute
20180320 18130025  +  +    					ubApp.TubApp(02AB3EE0).TubApp.InternalDBExecute
20180320 18130025  + debug 						P1: String(8)	uba_user
20180320 18130025  + debug 						P2: Int64		10
20180320 18130025  + debug 						P3: String(5)	LOGIN
20180320 18130025  + debug 						P4: Int64		10
20180320 18130025  + debug 						P5: DateTime	2018-03-20T18:13:00
20180320 18130025  + debug 						P6: String(9)	127.0.0.1
20180320 18130025  + debug 						P7: String(5)	admin
20180320 18130025  + debug 						P8: Int64		335498394632193
20180320 18130025  + debug 						P9: String(407..)	Connection: keep-alive  Content-Length: 0  Accept: application/json, text/plain, */*  Accept-Encodin...
20180320 18130025  + DB    						StartTransaction for connection "main"
20180320 18130025  + SQL   						ubDBSQLite3ThreadSafe.TubSQLite3Statement(17280090) INSERT INTO uba_audit (entity,entityinfo_id,actionType,actionUser,actionTime,remoteIP,targetUser,ID,fromValue) VALUES (?,?,?,?,?,?,?,?,?)
20180320 18130025  +  -    					00.000.079
20180320 18130025  +  -    				00.000.081
20180320 18130025  +  -    			00.000.168
20180320 18130025  +  -    		00.000.180
20180320 18130025  +  -    	00.000.184
20180320 18130025  +  +    	ubMixinClasses.TubStorageMixin(02B042C0).MixinMethod
20180320 18130025  + debug 		uba_audit.afterinsert(TubStorageMixin)
20180320 18130025  +  -    	00.000.003
20180320 18130025  + DB    	Commit connection "main"
20180320 18130025  + http  	127.0.0.1 <- 200
20180320 18130025  +  -    00.003.124
20180320 18130026  '  +    getDomainInfo?userName=admin&v=4
20180320 18130026  ' http  	127.0.0.1 -> GET getDomainInfo?userName=admin&v=4
20180320 18130026  ' auth  	admin/4605692
20180320 18130026  ' call  	endpoint getDomainInfo
20180320 18130026  ' http  	127.0.0.1 <- 304
20180320 18130026  '  -    00.001.883
20180320 18130027  "  +    models/UB/locale/lang-en.js?ubver=16b0a19c938f48c16b56a05da80f0dc2
20180320 18130027  0  +    models/UBM/locale/lang-en.js?ubver=5d30adb331eaa71d9412558d2ace2271
20180320 18130027  #  +    models/UBA/locale/lang-en.js?ubver=77650b6a42c37186bfb44af18a505e71
20180320 18130027  &  +    models/UBS/locale/lang-en.js?ubver=16f6cb04f3b2b6a19844744bc20cc653
20180320 18130027  " http  	127.0.0.1 -> GET models/UB/locale/lang-en.js?ubver=16b0a19c938f48c16b56a05da80f0dc2
20180320 18130027  # http  	127.0.0.1 -> GET models/UBA/locale/lang-en.js?ubver=77650b6a42c37186bfb44af18a505e71
20180320 18130027  0 http  	127.0.0.1 -> GET models/UBM/locale/lang-en.js?ubver=5d30adb331eaa71d9412558d2ace2271
20180320 18130027  & http  	127.0.0.1 -> GET models/UBS/locale/lang-en.js?ubver=16f6cb04f3b2b6a19844744bc20cc653
20180320 18130027  # call  	endpoint models
20180320 18130027  " call  	endpoint models
20180320 18130027  & call  	endpoint models
20180320 18130027  0 call  	endpoint models
20180320 18130027  & http  	127.0.0.1 <- 200
20180320 18130027  " http  	127.0.0.1 <- 200
20180320 18130027  &  -    00.000.261
20180320 18130027  0 http  	127.0.0.1 <- 200
20180320 18130027  "  -    00.000.270
20180320 18130027  0  -    00.000.269
20180320 18130027  # http  	127.0.0.1 <- 200
20180320 18130027  #  -    00.000.275
20180320 18130027  .  +    clientRequire/@unitybase/ubs/package.json
20180320 18130027  . http  	127.0.0.1 -> GET clientRequire/@unitybase/ubs/package.json
20180320 18130027  . call  	endpoint clientRequire
20180320 18130027  . info  	Call clientRequire 
20180320 18130027  . http  	127.0.0.1 <- 200
20180320 18130027  .  -    00.000.281
20180320 18130027  $  +    clientRequire/@unitybase/ubs/public/initModel.js
20180320 18130027  $ http  	127.0.0.1 -> GET clientRequire/@unitybase/ubs/public/initModel.js
20180320 18130027  $ call  	endpoint clientRequire
20180320 18130027  $ info  	Call clientRequire 
20180320 18130027  $ http  	127.0.0.1 <- 200
20180320 18130027  $  -    00.000.270
20180320 18130028  %  +    clientRequire/@unitybase/ubs/public/dist/ubs.main.min.js?ubver=2018-03-20T20:03:34
20180320 18130028  % http  	127.0.0.1 -> GET clientRequire/@unitybase/ubs/public/dist/ubs.main.min.js?ubver=2018-03-20T20:03:34
20180320 18130028  % call  	endpoint clientRequire
20180320 18130028  % info  	Call clientRequire 
20180320 18130028  % http  	127.0.0.1 <- 200
20180320 18130028  %  -    00.000.263
20180320 18130028  )  +    clientRequire/@unitybase/ubm/package.json
20180320 18130028  ) http  	127.0.0.1 -> GET clientRequire/@unitybase/ubm/package.json
20180320 18130028  ) call  	endpoint clientRequire
20180320 18130028  ) info  	Call clientRequire 
20180320 18130028  ) http  	127.0.0.1 <- 200
20180320 18130028  )  -    00.000.207
20180320 18130028  ,  +    clientRequire/@unitybase/ubm/public/initModel.js
20180320 18130028  , http  	127.0.0.1 -> GET clientRequire/@unitybase/ubm/public/initModel.js
20180320 18130028  , call  	endpoint clientRequire
20180320 18130028  , info  	Call clientRequire 
20180320 18130028  , http  	127.0.0.1 <- 200
20180320 18130028  ,  -    00.000.316
20180320 18130030  /  +    ubql
20180320 18130030  / http  	127.0.0.1 -> POST ubql
20180320 18130030  / http  	[{"entity":"ubs_settings","method":"select","fieldList":["ID","settingKey","name","description","type","settingValue","defaultValue"],"version":"1519981756"},{"entity":"ubm_desktop","method":"select","fieldList":["ID","caption","code","url","isDefault","mi_owner","mi_createDate","mi_createUser","mi_modifyDate","mi_modifyUser","mi_deleteDate","mi_deleteUser"],"version":"-1"},{"entity":"ubm_form","method":"select","fieldList":["ID","code","description","caption","formType","formDef","formCode","model","entity","isDefault","mi_owner","mi_createDate","mi_createUser","mi_modifyDate","mi_modifyUser"],"version":2613330792},{"entity":"ubm_enum","method":"select","fieldList":["ID","eGroup","code","shortName","name","sortOrder","mi_owner","mi_createDate","mi_createUser","mi_modifyDate","mi_modifyUser","mi_deleteDate","mi_deleteUser"],"version":"1519981756"}]
20180320 18130030  / auth  	admin/4605692
20180320 18130030  / call  	endpoint ubql
20180320 18130030  /  +    	ubMixinClasses.TubStorageMixin(02B042C0).MixinMethod
20180320 18130030  / debug 		ubs_settings.select(TubStorageMixin)
20180320 18130030  /  +    		ubApp.TubDataStore(20DECB90).Init
20180320 18130030  /  +    			ubApp.TubApp(02AB3EE0).DBExecute
20180320 18130030  /  +    				ubApp.TubApp(02AB3EE0).TubApp.InternalDBExecute
20180320 18130030  / SQL   					ubDBSQLite3ThreadSafe.TubSQLite3Statement(1727F910) SELECT ( (SELECT COALESCE(strftime('%s',  MAX(mi_modifyDate)),1) FROM ubs_settings) ) AS dataVersion
20180320 18130030  /  -    				00.000.018
20180320 18130030  /  -    			00.000.110
20180320 18130030  / debug 			Query result for entity "ubs_settings" into data name "": row count=1
20180320 18130030  /  -    		00.000.120
20180320 18130030  /  -    	00.000.227
20180320 18130030  /  +    	ubMixinClasses.TubRLSMixin(02B04E20).MixinMethod
20180320 18130030  / debug 		ubm_desktop.select(TubRLSMixin)
20180320 18130030  / debug 		Prepare RLS expression for ubm_desktop
20180320 18130030  /  -    	00.000.222
20180320 18130030  /  +    	ubMixinClasses.TubStorageMixin(02B042C0).MixinMethod
20180320 18130030  / debug 		ubm_desktop.select(TubStorageMixin)
20180320 18130030  /  +    		ubApp.TubDataStore(20DE6D30).Init
20180320 18130030  /  +    			ubApp.TubApp(02AB3EE0).DBExecute
20180320 18130030  /  +    				ubApp.TubApp(02AB3EE0).TubApp.InternalDBExecute
20180320 18130030  / debug 					P1: Int64		10
20180320 18130030  / debug 					P2: Int64		10
20180320 18130030  / debug 					P3: DateTime	9999-12-31T00:00:00
20180320 18130030  / SQL   					ubDBSQLite3ThreadSafe.TubSQLite3Statement(1727F430) SELECT A01.ID,A01.caption,A01.code,A01.url,A01.isDefault,A01.mi_owner,A01.mi_createDate,A01.mi_createUser,A01.mi_modifyDate,A01.mi_modifyUser,A01.mi_deleteDate,A01.mi_deleteUser  FROM ubm_desktop A01  WHERE (( A01.mi_owner = ? ) OR (1=1) OR exists (select 1 from ubm_desktop_adm admsubtable where admsubtable.instanceID = A01.ID and admsubtable.admSubjID in (select ur.RoleID from uba_userrole ur where ur.UserID = ? union select 10))) AND A01.mi_deleteDate=?
20180320 18130030  /  -    				00.000.022
20180320 18130030  /  -    			00.000.064
20180320 18130030  / debug 			Query result for entity "ubm_desktop" into data name "": row count=1
20180320 18130030  /  -    		00.000.077
20180320 18130030  /  -    	00.000.224
20180320 18130030  /  +    	ubMixinClasses.TubStorageMixin(02B042C0).MixinMethod
20180320 18130030  / debug 		ubm_enum.select(TubStorageMixin)
20180320 18130030  /  +    		ubApp.TubDataStore(20DEEB98).Init
20180320 18130030  /  +    			ubApp.TubApp(02AB3EE0).DBExecute
20180320 18130030  /  +    				ubApp.TubApp(02AB3EE0).TubApp.InternalDBExecute
20180320 18130030  / SQL   					ubDBSQLite3ThreadSafe.TubSQLite3Statement(1727F970) SELECT ( (SELECT COALESCE(strftime('%s',  MAX(mi_modifyDate)),1) FROM ubm_enum) ) AS dataVersion
20180320 18130030  /  -    				00.000.007
20180320 18130030  /  -    			00.000.052
20180320 18130030  / debug 			Query result for entity "ubm_enum" into data name "": row count=1
20180320 18130030  /  -    		00.000.058
20180320 18130030  /  -    	00.000.165
20180320 18130030  / http  	127.0.0.1 <- 200
20180320 18130030  /  -    00.002.022
20180320 18130033  *  +    ubql
20180320 18130033  * http  	127.0.0.1 -> POST ubql
20180320 18130033  * http  	[{"entity":"ubm_navshortcut","method":"select","fieldList":["ID","desktopID","parentID","code","isFolder","caption","inWindow","isCollapsed","displayOrder","iconCls","mi_modifyDate"],"orderList":{"0":{"expression":"desktopID","order":"asc"},"1":{"expression":"parentID","order":"asc"},"2":{"expression":"displayOrder","order":"asc"},"3":{"expression":"caption","order":"asc"}}}]
20180320 18130033  * auth  	admin/4605692
20180320 18130033  * call  	endpoint ubql
20180320 18130033  *  +    	ubMixinClasses.TubRLSMixin(02B04E20).MixinMethod
20180320 18130033  * debug 		ubm_navshortcut.select(TubRLSMixin)
20180320 18130033  * debug 		Prepare RLS expression for ubm_navshortcut
20180320 18130033  *  -    	00.000.224
20180320 18130033  *  +    	ubMixinClasses.TubStorageMixin(02B042C0).MixinMethod
20180320 18130033  * debug 		ubm_navshortcut.select(TubStorageMixin)
20180320 18130033  *  +    		ubApp.TubDataStore(20DEE580).Init
20180320 18130033  *  +    			ubApp.TubApp(02AB3EE0).DBExecute
20180320 18130033  *  +    				ubApp.TubApp(02AB3EE0).TubApp.InternalDBExecute
20180320 18130033  * debug 					P1: Int64		10
20180320 18130033  * debug 					P2: Int64		10
20180320 18130033  * debug 					P3: DateTime	9999-12-31T00:00:00
20180320 18130033  * SQL   					ubDBSQLite3ThreadSafe.TubSQLite3Statement(17281CB0) SELECT A01.ID,A01.desktopID,A01.parentID,A01.code,A01.isFolder,A01.caption,A01.inWindow,A01.isCollapsed,A01.displayOrder,A01.iconCls,A01.mi_modifyDate  FROM ubm_navshortcut A01  WHERE (( A01.mi_owner = ? ) OR               (1=1) OR                             exists (select 1 from ubm_navshortcut_adm admsubtable where admsubtable.instanceID = A01.ID and admsubtable.admSubjID in (select ur.RoleID from uba_userrole ur where ur.UserID = ? union select 10))) AND A01.mi_deleteDate=? ORDER BY 2 ASC,3 ASC,9 ASC,6 ... (truncated) length=515
20180320 18130033  *  -    				00.000.162
20180320 18130033  *  -    			00.000.375
20180320 18130033  * debug 			Query result for entity "ubm_navshortcut" into data name "": row count=29
20180320 18130033  *  -    		00.000.406
20180320 18130033  *  -    	00.000.592
20180320 18130033  * http  	127.0.0.1 <- 200
20180320 18130033  *  -    00.001.152
20180320 18130038  -  +    models/adminui-pub/themes/UBGrayTheme/images/toolbar/more.png
20180320 18130038  - http  	127.0.0.1 -> GET models/adminui-pub/themes/UBGrayTheme/images/toolbar/more.png
20180320 18130038  - call  	endpoint models
20180320 18130038  - http  	127.0.0.1 <- 200
20180320 18130038  -  -    00.000.260
20180320 18130038  (  +    models/adminui-pub/themes/UBGrayTheme/images/button/default-toolbar-small-arrow.png
20180320 18130038  ( http  	127.0.0.1 -> GET models/adminui-pub/themes/UBGrayTheme/images/button/default-toolbar-small-arrow.png
20180320 18130038  1  +    models/adminui-pub/themes/UBGrayTheme/images/grid/hd-pop.png
20180320 18130038  1 http  	127.0.0.1 -> GET models/adminui-pub/themes/UBGrayTheme/images/grid/hd-pop.png
20180320 18130038  ( call  	endpoint models
20180320 18130038  1 call  	endpoint models
20180320 18130038  ( http  	127.0.0.1 <- 200
20180320 18130038  (  -    00.000.229
20180320 18130038  1 http  	127.0.0.1 <- 200
20180320 18130038  1  -    00.000.541
20180320 18221711  +  +    getAppInfo
20180320 18221711  + http  	127.0.0.1 -> GET getAppInfo
20180320 18221711  + call  	endpoint getAppInfo
20180320 18221711  + http  	127.0.0.1 <- 200
20180320 18221711  +  -    00.000.686
20180320 18221711  '  +    getAppInfo
20180320 18221711  ' http  	127.0.0.1 -> GET getAppInfo
20180320 18221711  ' call  	endpoint getAppInfo
20180320 18221711  ' http  	127.0.0.1 <- 200
20180320 18221711  '  -    00.000.250
20180320 18221713  #  +    auth?AUTHTYPE=UB&userName=admin
20180320 18221713  # http  	127.0.0.1 -> GET auth?AUTHTYPE=UB&userName=admin
20180320 18221713  # call  	endpoint auth
20180320 18221713  # http  	127.0.0.1 <- 200
20180320 18221713  #  -    00.000.203
20180320 18221713  &  +    auth?AUTHTYPE=UB&clientNonce=1b4fea4f23acecbaa2a30a0a171402cf75d408f2ce9270402e9c23fd4f3080c8&password=9aed17943c4b43373e0cfcddc2f2615b4377646caf594881a2269ebed2c3d830&userName=admin
20180320 18221713  & http  	127.0.0.1 -> GET auth?AUTHTYPE=UB&clientNonce=1b4fea4f23acecbaa2a30a0a171402cf75d408f2ce9270402e9c23fd4f3080c8&password=9aed17943c4b43373e0cfcddc2f2615b4377646caf594881a2269ebed2c3d830&userName=admin
20180320 18221713  & call  	endpoint auth
20180320 18221713  &  +    	ubApp.TubDataStore(04B9CBC0).Init
20180320 18221713  &  +    		ubApp.TubApp(02AB3EE0).DBExecute
20180320 18221713  &  +    			ubApp.TubApp(02AB3EE0).TubApp.InternalDBExecute
20180320 18221713  & debug 				P1: String(5)	admin
20180320 18221713  & SQL   				ubDBSQLite3ThreadSafe.TubSQLite3Statement(17282130) select id, name, uPasswordHashHexa, uData, isPending, trustedIP from UBA_USER where name=? and disabled=0
20180320 18221713  &  -    			00.000.095
20180320 18221713  &  -    		00.000.240
20180320 18221713  & debug 		Query result for entity "uba_user" into data name "": row count=1
20180320 18221713  &  -    	00.000.268
20180320 18221713  &  +    	ubApp.TubDataStore(04B9CBC0).Init
20180320 18221713  &  +    		ubApp.TubApp(02AB3EE0).DBExecute
20180320 18221713  &  +    			ubApp.TubApp(02AB3EE0).TubApp.InternalDBExecute
20180320 18221713  & debug 				P1: Int64		10
20180320 18221713  & SQL   				ubDBSQLite3ThreadSafe.TubSQLite3Statement(17280D50) SELECT lastPasswordChangeDate FROM uba_user WHERE id=?
20180320 18221713  &  -    			00.000.027
20180320 18221713  &  -    		00.000.056
20180320 18221713  & debug 		Query result for entity "uba_user" into data name "__expireDate": row count=1
20180320 18221713  &  -    	00.000.067
20180320 18221713  &  +    	ubApp.TubDataStore(173236D8).Init
20180320 18221713  &  +    		ubApp.TubApp(02AB3EE0).DBExecute
20180320 18221713  &  +    			ubApp.TubApp(02AB3EE0).TubApp.InternalDBExecute
20180320 18221713  & debug 				P1: Int64		10
20180320 18221713  & SQL   				ubDBSQLite3ThreadSafe.TubSQLite3Statement(17282610) SELECT A01.roleID,A02.name,A02.description  FROM uba_userrole A01  INNER JOIN uba_role A02 ON A02.ID=A01.roleID  WHERE A01.userID=?
20180320 18221713  &  -    			00.000.060
20180320 18221713  &  -    		00.000.126
20180320 18221713  & debug 		Query result for entity "uba_userrole" into data name "": row count=1
20180320 18221713  &  -    	00.000.139
20180320 18221713  & auth  	New session admin/4605695 created at 127.0.0.1/-360287938514255864 using Mozilla/5.0 (Windows; mORMot 1.18 TWinHTTP)
20180320 18221713  &  +    	ubMixinClasses.TubStorageMixin(02B042C0).MixinMethod
20180320 18221713  & debug 		uba_user.select(TubStorageMixin)
20180320 18221713  &  +    		ubApp.TubDataStore(173236D8).Init
20180320 18221713  &  +    			ubApp.TubApp(02AB3EE0).DBExecute
20180320 18221713  &  +    				ubApp.TubApp(02AB3EE0).TubApp.InternalDBExecute
20180320 18221713  & debug 					P1: Int64		10
20180320 18221713  & SQL   					ubDBSQLite3ThreadSafe.TubSQLite3Statement(17282490) SELECT A01.name  FROM uba_user A01  WHERE A01.ID=?
20180320 18221713  &  -    				00.000.042
20180320 18221713  &  -    			00.000.077
20180320 18221713  & debug 			Query result for entity "uba_user" into data name "": row count=1
20180320 18221713  &  -    		00.000.086
20180320 18221713  &  -    	00.000.160
20180320 18221713  &  +    	ubMixinClasses.TubStorageMixin(02B042C0).MixinMethod
20180320 18221713  & debug 		uba_advSecurity.select(TubStorageMixin)
20180320 18221713  &  +    		ubApp.TubDataStore(173236D8).Init
20180320 18221713  &  +    			ubApp.TubApp(02AB3EE0).DBExecute
20180320 18221713  &  +    				ubApp.TubApp(02AB3EE0).TubApp.InternalDBExecute
20180320 18221713  & debug 					P1: Int64		10
20180320 18221713  & SQL   					ubDBSQLite3ThreadSafe.TubSQLite3Statement(172823D0) SELECT A01.ID,A01.allowedIP,A01.refreshIP,A01.fp,A01.refreshFp,A01.keyMediaName,A01.refreshKeyMedia,A01.mi_modifyDate  FROM uba_advSecurity A01  WHERE A01.userID=?
20180320 18221713  &  -    				00.000.047
20180320 18221713  &  -    			00.000.085
20180320 18221713  & debug 			Query result for entity "uba_advSecurity" into data name "": row count=0
20180320 18221713  &  -    		00.000.094
20180320 18221713  &  -    	00.000.191
20180320 18221713  &  +    	ubMixinClasses.TubStorageMixin(02B042C0).MixinMethod
20180320 18221713  & debug 		uba_userrole.select(TubStorageMixin)
20180320 18221713  &  +    		ubApp.TubDataStore(173236D8).Init
20180320 18221713  &  +    			ubApp.TubApp(02AB3EE0).DBExecute
20180320 18221713  &  +    				ubApp.TubApp(02AB3EE0).TubApp.InternalDBExecute
20180320 18221713  & debug 					P1: Int64		10
20180320 18221713  & SQL   					ubDBSQLite3ThreadSafe.TubSQLite3Statement(17282730) SELECT A01.ID,A02.name,A01.roleID  FROM uba_userrole A01  INNER JOIN uba_role A02 ON A02.ID=A01.roleID  WHERE A01.userID=?
20180320 18221713  &  -    				00.000.054
20180320 18221713  &  -    			00.000.096
20180320 18221713  & debug 			Query result for entity "uba_userrole" into data name "": row count=1
20180320 18221713  &  -    		00.000.104
20180320 18221713  &  -    	00.000.177
20180320 18221713  &  +    	ubMixinClasses.TubStorageMixin(02B042C0).MixinMethod
20180320 18221713  & debug 		uba_audit.beforeinsert(TubStorageMixin)
20180320 18221713  &  -    	00.000.007
20180320 18221713  &  +    	ubMixinClasses.TubStorageMixin(02B042C0).MixinMethod
20180320 18221713  & debug 		uba_audit.insert(TubStorageMixin)
20180320 18221713  &  +    		ubApp.TubDataStore(0726A778).TubDataStore.ExecuteInsertFromList
20180320 18221713  &  +    			ubApp.TubDataStore(0726A778).TubDataStore.ExecuteInsertFromSQL
20180320 18221713  &  +    				ubApp.TubApp(02AB3EE0).DBExecute
20180320 18221713  &  +    					ubApp.TubApp(02AB3EE0).TubApp.InternalDBExecute
20180320 18221713  & debug 						P1: String(8)	uba_user
20180320 18221713  & debug 						P2: Int64		10
20180320 18221713  & debug 						P3: String(5)	LOGIN
20180320 18221713  & debug 						P4: Int64		10
20180320 18221713  & debug 						P5: DateTime	2018-03-20T18:22:17
20180320 18221713  & debug 						P6: String(9)	127.0.0.1
20180320 18221713  & debug 						P7: String(5)	admin
20180320 18221713  & debug 						P8: Int64		335498465902593
20180320 18221713  & debug 						P9: String(202..)	Cache-Control: no-cache  Connection: Keep-Alive  Pragma: no-cache  Accept: */*  Accept-Encoding: gzi...
20180320 18221713  & DB    						StartTransaction for connection "main"
20180320 18221713  & SQL   						ubDBSQLite3ThreadSafe.TubSQLite3Statement(172827F0) INSERT INTO uba_audit (entity,entityinfo_id,actionType,actionUser,actionTime,remoteIP,targetUser,ID,fromValue) VALUES (?,?,?,?,?,?,?,?,?)
20180320 18221713  &  -    					00.000.106
20180320 18221713  &  -    				00.000.108
20180320 18221713  &  -    			00.000.197
20180320 18221713  &  -    		00.000.210
20180320 18221713  &  -    	00.000.214
20180320 18221713  &  +    	ubMixinClasses.TubStorageMixin(02B042C0).MixinMethod
20180320 18221713  & debug 		uba_audit.afterinsert(TubStorageMixin)
20180320 18221713  &  -    	00.000.004
20180320 18221713  & DB    	Commit connection "main"
20180320 18221713  & http  	127.0.0.1 <- 200
20180320 18221713  &  -    00.005.930
20180320 18221715  0  +    ubql
20180320 18221715  0 http  	127.0.0.1 -> POST ubql
20180320 18221715  0 http  	[{"entity":"ubm_desktop","method":"select","fieldList":["ID"],"options":{"limit":1},"whereList":{"lookup":{"expression":"code","condition":"equal","values":{"code":"CityReq_desktop"}}}}]
20180320 18221715  0 auth  	admin/4605695
20180320 18221715  0 call  	endpoint ubql
20180320 18221715  0  +    	ubMixinClasses.TubRLSMixin(02B04E20).MixinMethod
20180320 18221715  0 debug 		ubm_desktop.select(TubRLSMixin)
20180320 18221715  0 debug 		Prepare RLS expression for ubm_desktop
20180320 18221715  0  -    	00.000.214
20180320 18221715  0  +    	ubMixinClasses.TubStorageMixin(02B042C0).MixinMethod
20180320 18221715  0 debug 		ubm_desktop.select(TubStorageMixin)
20180320 18221715  0  +    		ubApp.TubDataStore(20DE6B78).Init
20180320 18221715  0  +    			ubApp.TubApp(02AB3EE0).DBExecute
20180320 18221715  0  +    				ubApp.TubApp(02AB3EE0).TubApp.InternalDBExecute
20180320 18221715  0 debug 					P1: String(15)	CityReq_desktop
20180320 18221715  0 debug 					P2: Int64		10
20180320 18221715  0 debug 					P3: Int64		10
20180320 18221715  0 debug 					P4: DateTime	9999-12-31T00:00:00
20180320 18221715  0 SQL   					ubDBSQLite3ThreadSafe.TubSQLite3Statement(17282910) SELECT A01.ID  FROM ubm_desktop A01  WHERE code=? AND (( A01.mi_owner = ? ) OR (1=1) OR exists (select 1 from ubm_desktop_adm admsubtable where admsubtable.instanceID = A01.ID and admsubtable.admSubjID in (select ur.RoleID from uba_userrole ur where ur.UserID = ? union select 10))) AND A01.mi_deleteDate=? LIMIT 1 OFFSET 0 
20180320 18221715  0  -    				00.000.138
20180320 18221715  0  -    			00.000.219
20180320 18221715  0 debug 			Query result for entity "ubm_desktop" into data name "": row count=0
20180320 18221715  0  -    		00.000.235
20180320 18221715  0  -    	00.000.354
20180320 18221715  0 http  	127.0.0.1 <- 200
20180320 18221715  0  -    00.000.936
20180320 18221715  "  +    ubql
20180320 18221715  " http  	127.0.0.1 -> POST ubql
20180320 18221715  " http  	[{"entity":"ubm_desktop","fieldList":["ID"],"execParams":{"code":"CityReq_desktop","caption":"City Requests"},"method":"insert"}]
20180320 18221715  " auth  	admin/4605695
20180320 18221715  " call  	endpoint ubql
20180320 18221715  "  +    	ubMixinClasses.TubStorageMixin(02B042C0).MixinMethod
20180320 18221715  " debug 		ubm_desktop.beforeinsert(TubStorageMixin)
20180320 18221715  "  -    	00.000.005
20180320 18221715  "  +    	ubMixinClasses.TubStorageMixin(02B042C0).MixinMethod
20180320 18221715  " debug 		ubm_desktop.insert(TubStorageMixin)
20180320 18221715  "  +    		ubApp.TubDataStore(20DEC410).TubDataStore.ExecuteInsertFromList
20180320 18221715  "  +    			ubApp.TubDataStore(20DEC410).TubDataStore.ExecuteInsertFromSQL
20180320 18221715  "  +    				ubApp.TubApp(02AB3EE0).DBExecute
20180320 18221715  "  +    					ubApp.TubApp(02AB3EE0).TubApp.InternalDBExecute
20180320 18221715  " debug 						P1: String(15)	CityReq_desktop
20180320 18221715  " debug 						P2: String(13)	City Requests
20180320 18221715  " debug 						P3: Int64		335498465902594
20180320 18221715  " debug 						P4: Int64		10
20180320 18221715  " debug 						P5: DateTime	2018-03-20T18:22:17
20180320 18221715  " debug 						P6: Int64		10
20180320 18221715  " debug 						P7: DateTime	2018-03-20T18:22:17
20180320 18221715  " debug 						P8: Int64		10
20180320 18221715  " DB    						StartTransaction for connection "main"
20180320 18221715  " SQL   						ubDBSQLite3ThreadSafe.TubSQLite3Statement(172825B0) INSERT INTO ubm_desktop (code,caption,ID,mi_owner,mi_createDate,mi_createUser,mi_modifyDate,mi_modifyUser) VALUES (?,?,?,?,?,?,?,?)
20180320 18221715  "  -    					00.000.165
20180320 18221715  "  -    				00.000.167
20180320 18221715  "  -    			00.000.259
20180320 18221715  "  -    		00.000.273
20180320 18221715  "  -    	00.000.279
20180320 18221715  "  +    	ubMixinClasses.TubStorageMixin(02B042C0).MixinMethod
20180320 18221715  " debug 		ubm_desktop.afterinsert(TubStorageMixin)
20180320 18221715  "  +    		ubMixinClasses.TubRLSMixin(02B04E20).MixinMethod
20180320 18221715  " debug 			ubm_desktop.select(TubRLSMixin)
20180320 18221715  " debug 			Prepare RLS expression for ubm_desktop
20180320 18221715  "  -    		00.000.199
20180320 18221715  "  +    		ubMixinClasses.TubStorageMixin(02B042C0).MixinMethod
20180320 18221715  " debug 			ubm_desktop.select(TubStorageMixin)
20180320 18221715  "  +    			ubApp.TubDataStore(20DEC410).Init
20180320 18221715  "  +    				ubApp.TubApp(02AB3EE0).DBExecute
20180320 18221715  "  +    					ubApp.TubApp(02AB3EE0).TubApp.InternalDBExecute
20180320 18221715  " debug 						P1: Int64		10
20180320 18221715  " debug 						P2: Int64		10
20180320 18221715  " debug 						P3: Int64		335498465902594
20180320 18221715  " debug 						P4: DateTime	9999-12-31T00:00:00
20180320 18221715  " SQL   						ubDBSQLite3ThreadSafe.TubSQLite3Statement(172829D0) SELECT A01.ID  FROM ubm_desktop A01  WHERE (( A01.mi_owner = ? ) OR (1=1) OR exists (select 1 from ubm_desktop_adm admsubtable where admsubtable.instanceID = A01.ID and admsubtable.admSubjID in (select ur.RoleID from uba_userrole ur where ur.UserID = ? union select 10))) AND A01.ID=? AND A01.mi_deleteDate=?
20180320 18221715  "  -    					00.000.092
20180320 18221715  "  -    				00.000.105
20180320 18221715  " debug 				Query result for entity "ubm_desktop" into data name "selectAfterInsert": row count=1
20180320 18221715  "  -    			00.000.116
20180320 18221715  "  -    		00.000.211
20180320 18221715  "  -    	00.000.467
20180320 18221715  "  +    	ubMixinClasses.TubAuditMixin(02B04F70).MixinMethod
20180320 18221715  " debug 		ubm_desktop.afterinsert(TubAuditMixin)
20180320 18221715  "  +    		ubApp.TubDataStore(20DEF1D8).TubDataStore.ExecuteInsertFromSQL
20180320 18221715  "  +    			ubApp.TubApp(02AB3EE0).DBExecute
20180320 18221715  "  +    				ubApp.TubApp(02AB3EE0).TubApp.InternalDBExecute
20180320 18221715  " debug 					P1: Int64		335498465902595
20180320 18221715  " debug 					P2: String(11)	ubm_desktop
20180320 18221715  " debug 					P3: Int64		335498465902594
20180320 18221715  " debug 					P4: String(6)	INSERT
20180320 18221715  " debug 					P5: Int64		10
20180320 18221715  " debug 					P6: DateTime	2018-03-20T18:22:17
20180320 18221715  " debug 					P7: String(9)	127.0.0.1
20180320 18221715  " debug 					P8: Int64		335498465902594
20180320 18221715  " debug 					P9: String(203..)	{"code":"CityReq_desktop","caption":"City Requests","ID":335498465902594,"mi_owner":10,"mi_createDat...
20180320 18221715  " SQL   					ubDBSQLite3ThreadSafe.TubSQLite3Statement(17282BB0) INSERT INTO uba_auditTrail (ID,entity,entityinfo_id,actionType,actionUser,actionTime,remoteIP,parentEntityInfo_id,toValue) VALUES (?,?,?,?,?,?,?,?,?)
20180320 18221715  "  -    				00.000.078
20180320 18221715  "  -    			00.000.080
20180320 18221715  "  -    		00.000.168
20180320 18221715  "  -    	00.000.195
20180320 18221715  " DB    	Commit connection "main" in 138us
20180320 18221715  " http  	127.0.0.1 <- 200
20180320 18221715  "  -    00.001.470
20180320 18221715  .  +    ubql
20180320 18221715  . http  	127.0.0.1 -> POST ubql
20180320 18221715  . http  	[{"entity":"ubm_navshortcut","method":"select","fieldList":["ID"],"options":{"limit":1},"whereList":{"lookup":{"expression":"code","condition":"equal","values":{"code":"req_departments_folder"}}}}]
20180320 18221715  . auth  	admin/4605695
20180320 18221715  . call  	endpoint ubql
20180320 18221715  .  +    	ubMixinClasses.TubRLSMixin(02B04E20).MixinMethod
20180320 18221715  . debug 		ubm_navshortcut.select(TubRLSMixin)
20180320 18221715  . debug 		Prepare RLS expression for ubm_navshortcut
20180320 18221715  .  -    	00.000.191
20180320 18221715  .  +    	ubMixinClasses.TubStorageMixin(02B042C0).MixinMethod
20180320 18221715  . debug 		ubm_navshortcut.select(TubStorageMixin)
20180320 18221715  .  +    		ubApp.TubDataStore(20DEEF30).Init
20180320 18221715  .  +    			ubApp.TubApp(02AB3EE0).DBExecute
20180320 18221715  .  +    				ubApp.TubApp(02AB3EE0).TubApp.InternalDBExecute
20180320 18221715  . debug 					P1: String(22)	req_departments_folder
20180320 18221715  . debug 					P2: Int64		10
20180320 18221715  . debug 					P3: Int64		10
20180320 18221715  . debug 					P4: DateTime	9999-12-31T00:00:00
20180320 18221715  . SQL   					ubDBSQLite3ThreadSafe.TubSQLite3Statement(17282B50) SELECT A01.ID  FROM ubm_navshortcut A01  WHERE code=? AND (( A01.mi_owner = ? ) OR               (1=1) OR                             exists (select 1 from ubm_navshortcut_adm admsubtable where admsubtable.instanceID = A01.ID and admsubtable.admSubjID in (select ur.RoleID from uba_userrole ur where ur.UserID = ? union select 10))) AND A01.mi_deleteDate=? LIMIT 1 OFFSET 0 
20180320 18221715  .  -    				00.000.103
20180320 18221715  .  -    			00.000.153
20180320 18221715  . debug 			Query result for entity "ubm_navshortcut" into data name "": row count=0
20180320 18221715  .  -    		00.000.165
20180320 18221715  .  -    	00.000.263
20180320 18221715  . http  	127.0.0.1 <- 200
20180320 18221715  .  -    00.000.756
20180320 18221715  $  +    ubql
20180320 18221715  $ http  	127.0.0.1 -> POST ubql
20180320 18221715  $ http  	[{"entity":"ubm_navshortcut","fieldList":["ID"],"execParams":{"desktopID":335498465902594,"code":"req_departments_folder","caption":"Departments","isFolder":true,"isCollapsed":false,"displayOrder":10},"method":"insert"}]
20180320 18221715  $ auth  	admin/4605695
20180320 18221715  $ call  	endpoint ubql
20180320 18221715  $  +    	ubMixinClasses.TubStorageMixin(02B042C0).MixinMethod
20180320 18221715  $ debug 		ubm_navshortcut.beforeinsert(TubStorageMixin)
20180320 18221715  $  -    	00.000.005
20180320 18221715  $  +    	ubMixinClasses.TubTreeMixin(02B04DB0).MixinMethod
20180320 18221715  $ debug 		ubm_navshortcut.insert(TubTreeMixin)
20180320 18221715  $  -    	00.000.005
20180320 18221715  $  +    	ubMixinClasses.TubStorageMixin(02B042C0).MixinMethod
20180320 18221715  $ debug 		ubm_navshortcut.insert(TubStorageMixin)
20180320 18221715  $  +    		ubApp.TubDataStore(20DEC410).TubDataStore.ExecuteInsertFromList
20180320 18221715  $  +    			ubApp.TubDataStore(20DEC410).TubDataStore.ExecuteInsertFromSQL
20180320 18221715  $  +    				ubApp.TubApp(02AB3EE0).DBExecute
20180320 18221715  $  +    					ubApp.TubApp(02AB3EE0).TubApp.InternalDBExecute
20180320 18221715  $ debug 						P1: Int64		335498465902594
20180320 18221715  $ debug 						P2: String(22)	req_departments_folder
20180320 18221715  $ debug 						P3: String(11)	Departments
20180320 18221715  $ debug 						P4: Bool		1
20180320 18221715  $ debug 						P5: Bool		0
20180320 18221715  $ debug 						P6: Int64		10
20180320 18221715  $ debug 						P7: Int64		335498465902596
20180320 18221715  $ debug 						P8: String(17)	/335498465902596/
20180320 18221715  $ debug 						P9: Int64		10
20180320 18221715  $ debug 						P10: DateTime	2018-03-20T18:22:17
20180320 18221715  $ debug 						P11: Int64		10
20180320 18221715  $ debug 						P12: DateTime	2018-03-20T18:22:17
20180320 18221715  $ debug 						P13: Int64		10
20180320 18221715  $ DB    						StartTransaction for connection "main"
20180320 18221715  $ SQL   						ubDBSQLite3ThreadSafe.TubSQLite3Statement(17282A90) INSERT INTO ubm_navshortcut (desktopID,code,caption,isFolder,isCollapsed,displayOrder,ID,mi_treePath,mi_owner,mi_createDate,mi_createUser,mi_modifyDate,mi_modifyUser) VALUES (?,?,?,?,?,?,?,?,?,?,?,?,?)
20180320 18221715  $  -    					00.000.193
20180320 18221715  $  -    				00.000.195
20180320 18221715  $  -    			00.000.315
20180320 18221715  $  -    		00.000.332
20180320 18221715  $  -    	00.000.337
20180320 18221715  $  +    	ubMixinClasses.TubStorageMixin(02B042C0).MixinMethod
20180320 18221715  $ debug 		ubm_navshortcut.afterinsert(TubStorageMixin)
20180320 18221715  $  +    		ubMixinClasses.TubRLSMixin(02B04E20).MixinMethod
20180320 18221715  $ debug 			ubm_navshortcut.select(TubRLSMixin)
20180320 18221715  $ debug 			Prepare RLS expression for ubm_navshortcut
20180320 18221715  $  -    		00.000.193
20180320 18221715  $  +    		ubMixinClasses.TubStorageMixin(02B042C0).MixinMethod
20180320 18221715  $ debug 			ubm_navshortcut.select(TubStorageMixin)
20180320 18221715  $  +    			ubApp.TubDataStore(20DEC410).Init
20180320 18221715  $  +    				ubApp.TubApp(02AB3EE0).DBExecute
20180320 18221715  $  +    					ubApp.TubApp(02AB3EE0).TubApp.InternalDBExecute
20180320 18221715  $ debug 						P1: Int64		10
20180320 18221715  $ debug 						P2: Int64		10
20180320 18221715  $ debug 						P3: Int64		335498465902596
20180320 18221715  $ debug 						P4: DateTime	9999-12-31T00:00:00
20180320 18221715  $ SQL   						ubDBSQLite3ThreadSafe.TubSQLite3Statement(17282A30) SELECT A01.ID  FROM ubm_navshortcut A01  WHERE (( A01.mi_owner = ? ) OR               (1=1) OR                             exists (select 1 from ubm_navshortcut_adm admsubtable where admsubtable.instanceID = A01.ID and admsubtable.admSubjID in (select ur.RoleID from uba_userrole ur where ur.UserID = ? union select 10))) AND A01.ID=? AND A01.mi_deleteDate=?
20180320 18221715  $  -    					00.000.090
20180320 18221715  $  -    				00.000.103
20180320 18221715  $ debug 				Query result for entity "ubm_navshortcut" into data name "selectAfterInsert": row count=1
20180320 18221715  $  -    			00.000.114
20180320 18221715  $  -    		00.000.210
20180320 18221715  $  -    	00.000.463
20180320 18221715  $  +    	ubMixinClasses.TubAuditMixin(02B04F70).MixinMethod
20180320 18221715  $ debug 		ubm_navshortcut.afterinsert(TubAuditMixin)
20180320 18221715  $  +    		ubApp.TubDataStore(20DEEAD0).TubDataStore.ExecuteInsertFromSQL
20180320 18221715  $  +    			ubApp.TubApp(02AB3EE0).DBExecute
20180320 18221715  $  +    				ubApp.TubApp(02AB3EE0).TubApp.InternalDBExecute
20180320 18221715  $ debug 					P1: Int64		335498465902597
20180320 18221715  $ debug 					P2: String(15)	ubm_navshortcut
20180320 18221715  $ debug 					P3: Int64		335498465902596
20180320 18221715  $ debug 					P4: String(6)	INSERT
20180320 18221715  $ debug 					P5: Int64		10
20180320 18221715  $ debug 					P6: DateTime	2018-03-20T18:22:17
20180320 18221715  $ debug 					P7: String(9)	127.0.0.1
20180320 18221715  $ debug 					P8: Int64		335498465902596
20180320 18221715  $ debug 					P9: String(324..)	{"desktopID":335498465902594,"code":"req_departments_folder","caption":"Departments","isFolder":true...
20180320 18221715  $ SQL   					ubDBSQLite3ThreadSafe.TubSQLite3Statement(17282F10) INSERT INTO uba_auditTrail (ID,entity,entityinfo_id,actionType,actionUser,actionTime,remoteIP,parentEntityInfo_id,toValue) VALUES (?,?,?,?,?,?,?,?,?)
20180320 18221715  $  -    				00.000.081
20180320 18221715  $  -    			00.000.083
20180320 18221715  $  -    		00.000.165
20180320 18221715  $  -    	00.000.192
20180320 18221715  $ DB    	Commit connection "main" in 367us
20180320 18221715  $ http  	127.0.0.1 <- 200
20180320 18221715  $  -    00.001.908
20180320 18221715  %  +    ubql
20180320 18221715  % http  	127.0.0.1 -> POST ubql
20180320 18221715  % http  	[{"entity":"ubm_navshortcut","method":"select","fieldList":["ID"],"options":{"limit":1},"whereList":{"lookup":{"expression":"code","condition":"equal","values":{"code":"req_depart"}}}}]
20180320 18221715  % auth  	admin/4605695
20180320 18221715  % call  	endpoint ubql
20180320 18221715  %  +    	ubMixinClasses.TubRLSMixin(02B04E20).MixinMethod
20180320 18221715  % debug 		ubm_navshortcut.select(TubRLSMixin)
20180320 18221715  % debug 		Prepare RLS expression for ubm_navshortcut
20180320 18221715  %  -    	00.000.222
20180320 18221715  %  +    	ubMixinClasses.TubStorageMixin(02B042C0).MixinMethod
20180320 18221715  % debug 		ubm_navshortcut.select(TubStorageMixin)
20180320 18221715  %  +    		ubApp.TubDataStore(20DEC730).Init
20180320 18221715  %  +    			ubApp.TubApp(02AB3EE0).DBExecute
20180320 18221715  %  +    				ubApp.TubApp(02AB3EE0).TubApp.InternalDBExecute
20180320 18221715  % debug 					P1: String(10)	req_depart
20180320 18221715  % debug 					P2: Int64		10
20180320 18221715  % debug 					P3: Int64		10
20180320 18221715  % debug 					P4: DateTime	9999-12-31T00:00:00
20180320 18221715  % SQL   					ubDBSQLite3ThreadSafe.TubSQLite3Statement(17282E50) SELECT A01.ID  FROM ubm_navshortcut A01  WHERE code=? AND (( A01.mi_owner = ? ) OR               (1=1) OR                             exists (select 1 from ubm_navshortcut_adm admsubtable where admsubtable.instanceID = A01.ID and admsubtable.admSubjID in (select ur.RoleID from uba_userrole ur where ur.UserID = ? union select 10))) AND A01.mi_deleteDate=? LIMIT 1 OFFSET 0 
20180320 18221715  %  -    				00.000.130
20180320 18221715  %  -    			00.000.225
20180320 18221715  % debug 			Query result for entity "ubm_navshortcut" into data name "": row count=0
20180320 18221715  %  -    		00.000.239
20180320 18221715  %  -    	00.000.350
20180320 18221715  % http  	127.0.0.1 <- 200
20180320 18221715  %  -    00.000.896
20180320 18221715  )  +    ubql
20180320 18221715  ) http  	127.0.0.1 -> POST ubql
20180320 18221715  ) http  	[{"fieldList":["ID"],"entity":"ubm_navshortcut","execParams":{"desktopID":335498465902594,"parentID":335498465902596,"code":"req_depart","caption":"Departments","iconCls":"fa fa-building-o","displayOrder":10,"cmdCode":"{\n\t\"cmdType\": \"showList\",\n\t\"cmdData\": {\n\t\t\"params\": [\n\t\t\t{\n\t\t\t\t\"entity\": \"req_depart\",\n\t\t\t\t\"method\": \"select\",\n\t\t\t\t\"fieldList\": \"*\"\n\t\t\t}\n\t\t]\n\t}\n}"},"method":"insert"}]
20180320 18221715  ) auth  	admin/4605695
20180320 18221715  ) call  	endpoint ubql
20180320 18221715  )  +    	ubMixinClasses.TubStorageMixin(02B042C0).MixinMethod
20180320 18221715  ) debug 		ubm_navshortcut.beforeinsert(TubStorageMixin)
20180320 18221715  )  -    	00.000.011
20180320 18221715  )  +    	ubMixinClasses.TubTreeMixin(02B04DB0).MixinMethod
20180320 18221715  ) debug 		ubm_navshortcut.insert(TubTreeMixin)
20180320 18221715  )  +    		ubApp.TubDataStore(17320F78).Init
20180320 18221715  )  +    			ubApp.TubApp(02AB3EE0).DBExecute
20180320 18221715  )  +    				ubApp.TubApp(02AB3EE0).TubApp.InternalDBExecute
20180320 18221715  ) debug 					P1: Int64		335498465902596
20180320 18221715  ) SQL   					ubDBSQLite3ThreadSafe.TubSQLite3Statement(17282CD0) WITH RECURSIVE q AS(  SELECT id, parentID FROM ubm_navshortcut WHERE id = ?   UNION ALL   SELECT gm.id, gm.parentID FROM ubm_navshortcut gm JOIN q ON gm.id = q.parentID) SELECT id FROM q
20180320 18221715  )  -    				00.000.138
20180320 18221715  )  -    			00.000.301
20180320 18221715  ) debug 			Query result for entity "ubm_navshortcut" into data name "calcTreePath": row count=1
20180320 18221715  )  -    		00.000.315
20180320 18221715  )  -    	00.000.340
20180320 18221715  )  +    	ubMixinClasses.TubStorageMixin(02B042C0).MixinMethod
20180320 18221715  ) debug 		ubm_navshortcut.insert(TubStorageMixin)
20180320 18221715  )  +    		ubApp.TubDataStore(17320F78).TubDataStore.ExecuteInsertFromList
20180320 18221715  )  +    			ubApp.TubDataStore(17320F78).TubDataStore.ExecuteInsertFromSQL
20180320 18221715  )  +    				ubApp.TubApp(02AB3EE0).DBExecute
20180320 18221715  )  +    					ubApp.TubApp(02AB3EE0).TubApp.InternalDBExecute
20180320 18221715  ) debug 						P1: Int64		335498465902594
20180320 18221715  ) debug 						P2: Int64		335498465902596
20180320 18221715  ) debug 						P3: String(10)	req_depart
20180320 18221715  ) debug 						P4: String(11)	Departments
20180320 18221715  ) debug 						P5: String(16)	fa fa-building-o
20180320 18221715  ) debug 						P6: Int64		10
20180320 18221715  ) debug 						P7: Int64		335498465902598
20180320 18221715  ) debug 						P8: String(33)	/335498465902596/335498465902598/
20180320 18221715  ) debug 						P9: Int64		10
20180320 18221715  ) debug 						P10: DateTime	2018-03-20T18:22:17
20180320 18221715  ) debug 						P11: Int64		10
20180320 18221715  ) debug 						P12: DateTime	2018-03-20T18:22:17
20180320 18221715  ) debug 						P13: Int64		10
20180320 18221715  ) debug 						P14: String(145..)	{  "cmdType": "showList",  "cmdData": {   "params": [    {     "entity": "req_depart",     "method":...
20180320 18221715  ) DB    						StartTransaction for connection "main"
20180320 18221715  ) SQL   						ubDBSQLite3ThreadSafe.TubSQLite3Statement(17283090) INSERT INTO ubm_navshortcut (desktopID,parentID,code,caption,iconCls,displayOrder,ID,mi_treePath,mi_owner,mi_createDate,mi_createUser,mi_modifyDate,mi_modifyUser,cmdCode) VALUES (?,?,?,?,?,?,?,?,?,?,?,?,?,?)
20180320 18221715  )  -    					00.000.166
20180320 18221715  )  -    				00.000.168
20180320 18221715  )  -    			00.000.329
20180320 18221715  )  -    		00.000.349
20180320 18221715  )  -    	00.000.358
20180320 18221715  )  +    	ubMixinClasses.TubStorageMixin(02B042C0).MixinMethod
20180320 18221715  ) debug 		ubm_navshortcut.afterinsert(TubStorageMixin)
20180320 18221715  )  +    		ubMixinClasses.TubRLSMixin(02B04E20).MixinMethod
20180320 18221715  ) debug 			ubm_navshortcut.select(TubRLSMixin)
20180320 18221715  ) debug 			Prepare RLS expression for ubm_navshortcut
20180320 18221715  )  -    		00.000.239
20180320 18221715  )  +    		ubMixinClasses.TubStorageMixin(02B042C0).MixinMethod
20180320 18221715  ) debug 			ubm_navshortcut.select(TubStorageMixin)
20180320 18221715  )  +    			ubApp.TubDataStore(17320F78).Init
20180320 18221715  )  +    				ubApp.TubApp(02AB3EE0).DBExecute
20180320 18221715  )  +    					ubApp.TubApp(02AB3EE0).TubApp.InternalDBExecute
20180320 18221715  ) debug 						P1: Int64		10
20180320 18221715  ) debug 						P2: Int64		10
20180320 18221715  ) debug 						P3: Int64		335498465902598
20180320 18221715  ) debug 						P4: DateTime	9999-12-31T00:00:00
20180320 18221715  ) SQL   						ubDBSQLite3ThreadSafe.TubSQLite3Statement(17283150) SELECT A01.ID  FROM ubm_navshortcut A01  WHERE (( A01.mi_owner = ? ) OR               (1=1) OR                             exists (select 1 from ubm_navshortcut_adm admsubtable where admsubtable.instanceID = A01.ID and admsubtable.admSubjID in (select ur.RoleID from uba_userrole ur where ur.UserID = ? union select 10))) AND A01.ID=? AND A01.mi_deleteDate=?
20180320 18221715  )  -    					00.000.087
20180320 18221715  )  -    				00.000.100
20180320 18221715  ) debug 				Query result for entity "ubm_navshortcut" into data name "selectAfterInsert": row count=1
20180320 18221715  )  -    			00.000.111
20180320 18221715  )  -    		00.000.212
20180320 18221715  )  -    	00.000.511
20180320 18221715  )  +    	ubMixinClasses.TubAuditMixin(02B04F70).MixinMethod
20180320 18221715  ) debug 		ubm_navshortcut.afterinsert(TubAuditMixin)
20180320 18221715  )  +    		ubApp.TubDataStore(20DEEF30).TubDataStore.ExecuteInsertFromSQL
20180320 18221715  )  +    			ubApp.TubApp(02AB3EE0).DBExecute
20180320 18221715  )  +    				ubApp.TubApp(02AB3EE0).TubApp.InternalDBExecute
20180320 18221715  ) debug 					P1: Int64		335498465902599
20180320 18221715  ) debug 					P2: String(15)	ubm_navshortcut
20180320 18221715  ) debug 					P3: Int64		335498465902598
20180320 18221715  ) debug 					P4: String(6)	INSERT
20180320 18221715  ) debug 					P5: Int64		10
20180320 18221715  ) debug 					P6: DateTime	2018-03-20T18:22:17
20180320 18221715  ) debug 					P7: String(9)	127.0.0.1
20180320 18221715  ) debug 					P8: Int64		335498465902598
20180320 18221715  ) debug 					P9: String(562..)	{"desktopID":335498465902594,"parentID":335498465902596,"code":"req_depart","caption":"Departments",...
20180320 18221715  ) SQL   					ubDBSQLite3ThreadSafe.TubSQLite3Statement(17283330) INSERT INTO uba_auditTrail (ID,entity,entityinfo_id,actionType,actionUser,actionTime,remoteIP,parentEntityInfo_id,toValue) VALUES (?,?,?,?,?,?,?,?,?)
20180320 18221715  )  -    				00.000.082
20180320 18221715  )  -    			00.000.085
20180320 18221715  )  -    		00.000.168
20180320 18221715  )  -    	00.000.197
20180320 18221715  ) DB    	Commit connection "main" in 328us
20180320 18221715  ) http  	127.0.0.1 <- 200
20180320 18221715  )  -    00.002.352
20180320 18221715  ,  +    ubql
20180320 18221715  , http  	127.0.0.1 -> POST ubql
20180320 18221715  , http  	[{"entity":"ubm_navshortcut","method":"select","fieldList":["ID"],"options":{"limit":1},"whereList":{"lookup":{"expression":"code","condition":"equal","values":{"code":"req_Subdepart"}}}}]
20180320 18221715  , auth  	admin/4605695
20180320 18221715  , call  	endpoint ubql
20180320 18221715  ,  +    	ubMixinClasses.TubRLSMixin(02B04E20).MixinMethod
20180320 18221715  , debug 		ubm_navshortcut.select(TubRLSMixin)
20180320 18221715  , debug 		Prepare RLS expression for ubm_navshortcut
20180320 18221715  ,  -    	00.000.211
20180320 18221715  ,  +    	ubMixinClasses.TubStorageMixin(02B042C0).MixinMethod
20180320 18221715  , debug 		ubm_navshortcut.select(TubStorageMixin)
20180320 18221715  ,  +    		ubApp.TubDataStore(20DEF700).Init
20180320 18221715  ,  +    			ubApp.TubApp(02AB3EE0).DBExecute
20180320 18221715  ,  +    				ubApp.TubApp(02AB3EE0).TubApp.InternalDBExecute
20180320 18221715  , debug 					P1: String(13)	req_Subdepart
20180320 18221715  , debug 					P2: Int64		10
20180320 18221715  , debug 					P3: Int64		10
20180320 18221715  , debug 					P4: DateTime	9999-12-31T00:00:00
20180320 18221715  , SQL   					ubDBSQLite3ThreadSafe.TubSQLite3Statement(17283270) SELECT A01.ID  FROM ubm_navshortcut A01  WHERE code=? AND (( A01.mi_owner = ? ) OR               (1=1) OR                             exists (select 1 from ubm_navshortcut_adm admsubtable where admsubtable.instanceID = A01.ID and admsubtable.admSubjID in (select ur.RoleID from uba_userrole ur where ur.UserID = ? union select 10))) AND A01.mi_deleteDate=? LIMIT 1 OFFSET 0 
20180320 18221715  ,  -    				00.000.116
20180320 18221715  ,  -    			00.000.190
20180320 18221715  , debug 			Query result for entity "ubm_navshortcut" into data name "": row count=0
20180320 18221715  ,  -    		00.000.203
20180320 18221715  ,  -    	00.000.312
20180320 18221715  , http  	127.0.0.1 <- 200
20180320 18221715  ,  -    00.000.862
20180320 18221715  /  +    ubql
20180320 18221715  / http  	127.0.0.1 -> POST ubql
20180320 18221715  / http  	[{"fieldList":["ID"],"entity":"ubm_navshortcut","execParams":{"desktopID":335498465902594,"parentID":335498465902596,"code":"req_Subdepart","caption":"SubDepartments","iconCls":"fa fa-user-circle-o","displayOrder":20,"cmdCode":"{\n\t\"cmdType\": \"showList\",\n\t\"cmdData\": {\n\t\t\"params\": [\n\t\t\t{\n\t\t\t\t\"entity\": \"req_subDepart\",\n\t\t\t\t\"method\": \"select\",\n\t\t\t\t\"fieldList\": \"*\"\n\t\t\t}\n\t\t]\n\t}\n}"},"method":"insert"}]
20180320 18221715  / auth  	admin/4605695
20180320 18221715  / call  	endpoint ubql
20180320 18221715  /  +    	ubMixinClasses.TubStorageMixin(02B042C0).MixinMethod
20180320 18221715  / debug 		ubm_navshortcut.beforeinsert(TubStorageMixin)
20180320 18221715  /  -    	00.000.007
20180320 18221715  /  +    	ubMixinClasses.TubTreeMixin(02B04DB0).MixinMethod
20180320 18221715  / debug 		ubm_navshortcut.insert(TubTreeMixin)
20180320 18221715  /  +    		ubApp.TubDataStore(1731BCD0).Init
20180320 18221715  /  +    			ubApp.TubApp(02AB3EE0).DBExecute
20180320 18221715  /  +    				ubApp.TubApp(02AB3EE0).TubApp.InternalDBExecute
20180320 18221715  / debug 					P1: Int64		335498465902596
20180320 18221715  / SQL   					ubDBSQLite3ThreadSafe.TubSQLite3Statement(17282DF0) WITH RECURSIVE q AS(  SELECT id, parentID FROM ubm_navshortcut WHERE id = ?   UNION ALL   SELECT gm.id, gm.parentID FROM ubm_navshortcut gm JOIN q ON gm.id = q.parentID) SELECT id FROM q
20180320 18221715  /  -    				00.000.078
20180320 18221715  /  -    			00.000.163
20180320 18221715  / debug 			Query result for entity "ubm_navshortcut" into data name "calcTreePath": row count=1
20180320 18221715  /  -    		00.000.172
20180320 18221715  /  -    	00.000.191
20180320 18221715  /  +    	ubMixinClasses.TubStorageMixin(02B042C0).MixinMethod
20180320 18221715  / debug 		ubm_navshortcut.insert(TubStorageMixin)
20180320 18221715  /  +    		ubApp.TubDataStore(1731BCD0).TubDataStore.ExecuteInsertFromList
20180320 18221715  /  +    			ubApp.TubDataStore(1731BCD0).TubDataStore.ExecuteInsertFromSQL
20180320 18221715  /  +    				ubApp.TubApp(02AB3EE0).DBExecute
20180320 18221715  /  +    					ubApp.TubApp(02AB3EE0).TubApp.InternalDBExecute
20180320 18221715  / debug 						P1: Int64		335498465902594
20180320 18221715  / debug 						P2: Int64		335498465902596
20180320 18221715  / debug 						P3: String(13)	req_Subdepart
20180320 18221715  / debug 						P4: String(14)	SubDepartments
20180320 18221715  / debug 						P5: String(19)	fa fa-user-circle-o
20180320 18221715  / debug 						P6: Int64		20
20180320 18221715  / debug 						P7: Int64		335498465902600
20180320 18221715  / debug 						P8: String(33)	/335498465902596/335498465902600/
20180320 18221715  / debug 						P9: Int64		10
20180320 18221715  / debug 						P10: DateTime	2018-03-20T18:22:17
20180320 18221715  / debug 						P11: Int64		10
20180320 18221715  / debug 						P12: DateTime	2018-03-20T18:22:17
20180320 18221715  / debug 						P13: Int64		10
20180320 18221715  / debug 						P14: String(148..)	{  "cmdType": "showList",  "cmdData": {   "params": [    {     "entity": "req_subDepart",     "metho...
20180320 18221715  / DB    						StartTransaction for connection "main"
20180320 18221715  / SQL   						ubDBSQLite3ThreadSafe.TubSQLite3Statement(172831B0) INSERT INTO ubm_navshortcut (desktopID,parentID,code,caption,iconCls,displayOrder,ID,mi_treePath,mi_owner,mi_createDate,mi_createUser,mi_modifyDate,mi_modifyUser,cmdCode) VALUES (?,?,?,?,?,?,?,?,?,?,?,?,?,?)
20180320 18221715  /  -    					00.000.161
20180320 18221715  /  -    				00.000.163
20180320 18221715  /  -    			00.000.297
20180320 18221715  /  -    		00.000.315
20180320 18221715  /  -    	00.000.321
20180320 18221715  /  +    	ubMixinClasses.TubStorageMixin(02B042C0).MixinMethod
20180320 18221715  / debug 		ubm_navshortcut.afterinsert(TubStorageMixin)
20180320 18221715  /  +    		ubMixinClasses.TubRLSMixin(02B04E20).MixinMethod
20180320 18221715  / debug 			ubm_navshortcut.select(TubRLSMixin)
20180320 18221715  / debug 			Prepare RLS expression for ubm_navshortcut
20180320 18221715  /  -    		00.000.195
20180320 18221715  /  +    		ubMixinClasses.TubStorageMixin(02B042C0).MixinMethod
20180320 18221715  / debug 			ubm_navshortcut.select(TubStorageMixin)
20180320 18221715  /  +    			ubApp.TubDataStore(1731BCD0).Init
20180320 18221715  /  +    				ubApp.TubApp(02AB3EE0).DBExecute
20180320 18221715  /  +    					ubApp.TubApp(02AB3EE0).TubApp.InternalDBExecute
20180320 18221715  / debug 						P1: Int64		10
20180320 18221715  / debug 						P2: Int64		10
20180320 18221715  / debug 						P3: Int64		335498465902600
20180320 18221715  / debug 						P4: DateTime	9999-12-31T00:00:00
20180320 18221715  / SQL   						ubDBSQLite3ThreadSafe.TubSQLite3Statement(17283510) SELECT A01.ID  FROM ubm_navshortcut A01  WHERE (( A01.mi_owner = ? ) OR               (1=1) OR                             exists (select 1 from ubm_navshortcut_adm admsubtable where admsubtable.instanceID = A01.ID and admsubtable.admSubjID in (select ur.RoleID from uba_userrole ur where ur.UserID = ? union select 10))) AND A01.ID=? AND A01.mi_deleteDate=?
20180320 18221715  /  -    					00.000.090
20180320 18221715  /  -    				00.000.103
20180320 18221715  / debug 				Query result for entity "ubm_navshortcut" into data name "selectAfterInsert": row count=1
20180320 18221715  /  -    			00.000.114
20180320 18221715  /  -    		00.000.213
20180320 18221715  /  -    	00.000.466
20180320 18221715  /  +    	ubMixinClasses.TubAuditMixin(02B04F70).MixinMethod
20180320 18221715  / debug 		ubm_navshortcut.afterinsert(TubAuditMixin)
20180320 18221715  /  +    		ubApp.TubDataStore(20DEF228).TubDataStore.ExecuteInsertFromSQL
20180320 18221715  /  +    			ubApp.TubApp(02AB3EE0).DBExecute
20180320 18221715  /  +    				ubApp.TubApp(02AB3EE0).TubApp.InternalDBExecute
20180320 18221715  / debug 					P1: Int64		335498465902601
20180320 18221715  / debug 					P2: String(15)	ubm_navshortcut
20180320 18221715  / debug 					P3: Int64		335498465902600
20180320 18221715  / debug 					P4: String(6)	INSERT
20180320 18221715  / debug 					P5: Int64		10
20180320 18221715  / debug 					P6: DateTime	2018-03-20T18:22:17
20180320 18221715  / debug 					P7: String(9)	127.0.0.1
20180320 18221715  / debug 					P8: Int64		335498465902600
20180320 18221715  / debug 					P9: String(574..)	{"desktopID":335498465902594,"parentID":335498465902596,"code":"req_Subdepart","caption":"SubDepartm...
20180320 18221715  / SQL   					ubDBSQLite3ThreadSafe.TubSQLite3Statement(17283750) INSERT INTO uba_auditTrail (ID,entity,entityinfo_id,actionType,actionUser,actionTime,remoteIP,parentEntityInfo_id,toValue) VALUES (?,?,?,?,?,?,?,?,?)
20180320 18221715  /  -    				00.000.086
20180320 18221715  /  -    			00.000.088
20180320 18221715  /  -    		00.000.171
20180320 18221715  /  -    	00.000.201
20180320 18221715  / DB    	Commit connection "main" in 273us
20180320 18221715  / http  	127.0.0.1 <- 200
20180320 18221715  /  -    00.001.869
20180320 18221715  *  +    ubql
20180320 18221715  * http  	127.0.0.1 -> POST ubql
20180320 18221715  * http  	[{"entity":"ubm_navshortcut","method":"select","fieldList":["ID"],"options":{"limit":1},"whereList":{"lookup":{"expression":"code","condition":"equal","values":{"code":"req_reqList"}}}}]
20180320 18221715  * auth  	admin/4605695
20180320 18221715  * call  	endpoint ubql
20180320 18221715  *  +    	ubMixinClasses.TubRLSMixin(02B04E20).MixinMethod
20180320 18221715  * debug 		ubm_navshortcut.select(TubRLSMixin)
20180320 18221715  * debug 		Prepare RLS expression for ubm_navshortcut
20180320 18221715  *  -    	00.000.239
20180320 18221715  *  +    	ubMixinClasses.TubStorageMixin(02B042C0).MixinMethod
20180320 18221715  * debug 		ubm_navshortcut.select(TubStorageMixin)
20180320 18221715  *  +    		ubApp.TubDataStore(20DEE580).Init
20180320 18221715  *  +    			ubApp.TubApp(02AB3EE0).DBExecute
20180320 18221715  *  +    				ubApp.TubApp(02AB3EE0).TubApp.InternalDBExecute
20180320 18221715  * debug 					P1: String(11)	req_reqList
20180320 18221715  * debug 					P2: Int64		10
20180320 18221715  * debug 					P3: Int64		10
20180320 18221715  * debug 					P4: DateTime	9999-12-31T00:00:00
20180320 18221715  * SQL   					ubDBSQLite3ThreadSafe.TubSQLite3Statement(172836F0) SELECT A01.ID  FROM ubm_navshortcut A01  WHERE code=? AND (( A01.mi_owner = ? ) OR               (1=1) OR                             exists (select 1 from ubm_navshortcut_adm admsubtable where admsubtable.instanceID = A01.ID and admsubtable.admSubjID in (select ur.RoleID from uba_userrole ur where ur.UserID = ? union select 10))) AND A01.mi_deleteDate=? LIMIT 1 OFFSET 0 
20180320 18221715  *  -    				00.000.155
20180320 18221715  *  -    			00.000.268
20180320 18221715  * debug 			Query result for entity "ubm_navshortcut" into data name "": row count=0
20180320 18221715  *  -    		00.000.285
20180320 18221715  *  -    	00.000.410
20180320 18221715  * http  	127.0.0.1 <- 200
20180320 18221716  *  -    00.001.030
20180320 18221716  -  +    ubql
20180320 18221716  - http  	127.0.0.1 -> POST ubql
20180320 18221716  - http  	[{"fieldList":["ID"],"entity":"ubm_navshortcut","execParams":{"desktopID":335498465902594,"code":"req_reqList","caption":"Request list","iconCls":"fa fa-clone","displayOrder":20,"cmdCode":"{\n\t\"cmdType\": \"showList\",\n\t\"cmdData\": {\n\t\t\"params\": [\n\t\t\t{\n\t\t\t\t\"entity\": \"req_reqList\",\n\t\t\t\t\"method\": \"select\",\n\t\t\t\t\"fieldList\": \"*\"\n\t\t\t}\n\t\t]\n\t}\n}"},"method":"insert"}]
20180320 18221716  - auth  	admin/4605695
20180320 18221716  - call  	endpoint ubql
20180320 18221716  -  +    	ubMixinClasses.TubStorageMixin(02B042C0).MixinMethod
20180320 18221716  - debug 		ubm_navshortcut.beforeinsert(TubStorageMixin)
20180320 18221716  -  -    	00.000.006
20180320 18221716  -  +    	ubMixinClasses.TubTreeMixin(02B04DB0).MixinMethod
20180320 18221716  - debug 		ubm_navshortcut.insert(TubTreeMixin)
20180320 18221716  -  -    	00.000.005
20180320 18221716  -  +    	ubMixinClasses.TubStorageMixin(02B042C0).MixinMethod
20180320 18221716  - debug 		ubm_navshortcut.insert(TubStorageMixin)
20180320 18221716  -  +    		ubApp.TubDataStore(17320FC8).TubDataStore.ExecuteInsertFromList
20180320 18221716  -  +    			ubApp.TubDataStore(17320FC8).TubDataStore.ExecuteInsertFromSQL
20180320 18221716  -  +    				ubApp.TubApp(02AB3EE0).DBExecute
20180320 18221716  -  +    					ubApp.TubApp(02AB3EE0).TubApp.InternalDBExecute
20180320 18221716  - debug 						P1: Int64		335498465902594
20180320 18221716  - debug 						P2: String(11)	req_reqList
20180320 18221716  - debug 						P3: String(12)	Request list
20180320 18221716  - debug 						P4: String(11)	fa fa-clone
20180320 18221716  - debug 						P5: Int64		20
20180320 18221716  - debug 						P6: Int64		335498465902602
20180320 18221716  - debug 						P7: String(17)	/335498465902602/
20180320 18221716  - debug 						P8: Int64		10
20180320 18221716  - debug 						P9: DateTime	2018-03-20T18:22:17
20180320 18221716  - debug 						P10: Int64		10
20180320 18221716  - debug 						P11: DateTime	2018-03-20T18:22:17
20180320 18221716  - debug 						P12: Int64		10
20180320 18221716  - debug 						P13: String(146..)	{  "cmdType": "showList",  "cmdData": {   "params": [    {     "entity": "req_reqList",     "method"...
20180320 18221716  - DB    						StartTransaction for connection "main"
20180320 18221716  - SQL   						ubDBSQLite3ThreadSafe.TubSQLite3Statement(17283450) INSERT INTO ubm_navshortcut (desktopID,code,caption,iconCls,displayOrder,ID,mi_treePath,mi_owner,mi_createDate,mi_createUser,mi_modifyDate,mi_modifyUser,cmdCode) VALUES (?,?,?,?,?,?,?,?,?,?,?,?,?)
20180320 18221716  -  -    					00.000.219
20180320 18221716  -  -    				00.000.221
20180320 18221716  -  -    			00.000.353
20180320 18221716  -  -    		00.000.374
20180320 18221716  -  -    	00.000.380
20180320 18221716  -  +    	ubMixinClasses.TubStorageMixin(02B042C0).MixinMethod
20180320 18221716  - debug 		ubm_navshortcut.afterinsert(TubStorageMixin)
20180320 18221716  -  +    		ubMixinClasses.TubRLSMixin(02B04E20).MixinMethod
20180320 18221716  - debug 			ubm_navshortcut.select(TubRLSMixin)
20180320 18221716  - debug 			Prepare RLS expression for ubm_navshortcut
20180320 18221716  -  -    		00.000.205
20180320 18221716  -  +    		ubMixinClasses.TubStorageMixin(02B042C0).MixinMethod
20180320 18221716  - debug 			ubm_navshortcut.select(TubStorageMixin)
20180320 18221716  -  +    			ubApp.TubDataStore(17320FC8).Init
20180320 18221716  -  +    				ubApp.TubApp(02AB3EE0).DBExecute
20180320 18221716  -  +    					ubApp.TubApp(02AB3EE0).TubApp.InternalDBExecute
20180320 18221716  - debug 						P1: Int64		10
20180320 18221716  - debug 						P2: Int64		10
20180320 18221716  - debug 						P3: Int64		335498465902602
20180320 18221716  - debug 						P4: DateTime	9999-12-31T00:00:00
20180320 18221716  - SQL   						ubDBSQLite3ThreadSafe.TubSQLite3Statement(172835D0) SELECT A01.ID  FROM ubm_navshortcut A01  WHERE (( A01.mi_owner = ? ) OR               (1=1) OR                             exists (select 1 from ubm_navshortcut_adm admsubtable where admsubtable.instanceID = A01.ID and admsubtable.admSubjID in (select ur.RoleID from uba_userrole ur where ur.UserID = ? union select 10))) AND A01.ID=? AND A01.mi_deleteDate=?
20180320 18221716  -  -    					00.000.096
20180320 18221716  -  -    				00.000.109
20180320 18221716  - debug 				Query result for entity "ubm_navshortcut" into data name "selectAfterInsert": row count=1
20180320 18221716  -  -    			00.000.121
20180320 18221716  -  -    		00.000.220
20180320 18221716  -  -    	00.000.489
20180320 18221716  -  +    	ubMixinClasses.TubAuditMixin(02B04F70).MixinMethod
20180320 18221716  - debug 		ubm_navshortcut.afterinsert(TubAuditMixin)
20180320 18221716  -  +    		ubApp.TubDataStore(20DEF700).TubDataStore.ExecuteInsertFromSQL
20180320 18221716  -  +    			ubApp.TubApp(02AB3EE0).DBExecute
20180320 18221716  -  +    				ubApp.TubApp(02AB3EE0).TubApp.InternalDBExecute
20180320 18221716  - debug 					P1: Int64		335498465902603
20180320 18221716  - debug 					P2: String(15)	ubm_navshortcut
20180320 18221716  - debug 					P3: Int64		335498465902602
20180320 18221716  - debug 					P4: String(6)	INSERT
20180320 18221716  - debug 					P5: Int64		10
20180320 18221716  - debug 					P6: DateTime	2018-03-20T18:22:17
20180320 18221716  - debug 					P7: String(9)	127.0.0.1
20180320 18221716  - debug 					P8: Int64		335498465902602
20180320 18221716  - debug 					P9: String(517..)	{"desktopID":335498465902594,"code":"req_reqList","caption":"Request list","iconCls":"fa fa-clone","...
20180320 18221716  - SQL   					ubDBSQLite3ThreadSafe.TubSQLite3Statement(17283AB0) INSERT INTO uba_auditTrail (ID,entity,entityinfo_id,actionType,actionUser,actionTime,remoteIP,parentEntityInfo_id,toValue) VALUES (?,?,?,?,?,?,?,?,?)
20180320 18221716  -  -    				00.000.085
20180320 18221716  -  -    			00.000.087
20180320 18221716  -  -    		00.000.170
20180320 18221716  -  -    	00.000.199
20180320 18221716  - DB    	Commit connection "main" in 269us
20180320 18221716  - http  	127.0.0.1 <- 200
20180320 18221716  -  -    00.001.756
20180320 18221716  (  +    ubql
20180320 18221716  ( http  	127.0.0.1 -> POST ubql
20180320 18221716  ( http  	[{"entity":"ubm_navshortcut","method":"select","fieldList":["ID"],"options":{"limit":1},"whereList":{"lookup":{"expression":"code","condition":"equal","values":{"code":"req_cityRegion"}}}}]
20180320 18221716  ( auth  	admin/4605695
20180320 18221716  ( call  	endpoint ubql
20180320 18221716  (  +    	ubMixinClasses.TubRLSMixin(02B04E20).MixinMethod
20180320 18221716  ( debug 		ubm_navshortcut.select(TubRLSMixin)
20180320 18221716  ( debug 		Prepare RLS expression for ubm_navshortcut
20180320 18221716  (  -    	00.000.311
20180320 18221716  (  +    	ubMixinClasses.TubStorageMixin(02B042C0).MixinMethod
20180320 18221716  ( debug 		ubm_navshortcut.select(TubStorageMixin)
20180320 18221716  (  +    		ubApp.TubDataStore(20DEE580).Init
20180320 18221716  (  +    			ubApp.TubApp(02AB3EE0).DBExecute
20180320 18221716  (  +    				ubApp.TubApp(02AB3EE0).TubApp.InternalDBExecute
20180320 18221716  ( debug 					P1: String(14)	req_cityRegion
20180320 18221716  ( debug 					P2: Int64		10
20180320 18221716  ( debug 					P3: Int64		10
20180320 18221716  ( debug 					P4: DateTime	9999-12-31T00:00:00
20180320 18221716  ( SQL   					ubDBSQLite3ThreadSafe.TubSQLite3Statement(17283A50) SELECT A01.ID  FROM ubm_navshortcut A01  WHERE code=? AND (( A01.mi_owner = ? ) OR               (1=1) OR                             exists (select 1 from ubm_navshortcut_adm admsubtable where admsubtable.instanceID = A01.ID and admsubtable.admSubjID in (select ur.RoleID from uba_userrole ur where ur.UserID = ? union select 10))) AND A01.mi_deleteDate=? LIMIT 1 OFFSET 0 
20180320 18221716  (  -    				00.000.108
20180320 18221716  (  -    			00.000.162
20180320 18221716  ( debug 			Query result for entity "ubm_navshortcut" into data name "": row count=0
20180320 18221716  (  -    		00.000.175
20180320 18221716  (  -    	00.000.301
20180320 18221716  ( http  	127.0.0.1 <- 200
20180320 18221716  (  -    00.000.921
20180320 18221716  1  +    ubql
20180320 18221716  1 http  	127.0.0.1 -> POST ubql
20180320 18221716  1 http  	[{"fieldList":["ID"],"entity":"ubm_navshortcut","execParams":{"desktopID":335498465902594,"code":"req_cityRegion","caption":"City region","iconCls":"fa fa-braille","displayOrder":20,"cmdCode":"{\n\t\"cmdType\": \"showList\",\n\t\"cmdData\": {\n\t\t\"params\": [\n\t\t\t{\n\t\t\t\t\"entity\": \"req_cityRegion\",\n\t\t\t\t\"method\": \"select\",\n\t\t\t\t\"fieldList\": \"*\"\n\t\t\t}\n\t\t]\n\t}\n}"},"method":"insert"}]
20180320 18221716  1 auth  	admin/4605695
20180320 18221716  1 call  	endpoint ubql
20180320 18221716  1  +    	ubMixinClasses.TubStorageMixin(02B042C0).MixinMethod
20180320 18221716  1 debug 		ubm_navshortcut.beforeinsert(TubStorageMixin)
20180320 18221716  1  -    	00.000.006
20180320 18221716  1  +    	ubMixinClasses.TubTreeMixin(02B04DB0).MixinMethod
20180320 18221716  1 debug 		ubm_navshortcut.insert(TubTreeMixin)
20180320 18221716  1  -    	00.000.005
20180320 18221716  1  +    	ubMixinClasses.TubStorageMixin(02B042C0).MixinMethod
20180320 18221716  1 debug 		ubm_navshortcut.insert(TubStorageMixin)
20180320 18221716  1  +    		ubApp.TubDataStore(071CC578).TubDataStore.ExecuteInsertFromList
20180320 18221716  1  +    			ubApp.TubDataStore(071CC578).TubDataStore.ExecuteInsertFromSQL
20180320 18221716  1  +    				ubApp.TubApp(02AB3EE0).DBExecute
20180320 18221716  1  +    					ubApp.TubApp(02AB3EE0).TubApp.InternalDBExecute
20180320 18221716  1 debug 						P1: Int64		335498465902594
20180320 18221716  1 debug 						P2: String(14)	req_cityRegion
20180320 18221716  1 debug 						P3: String(11)	City region
20180320 18221716  1 debug 						P4: String(13)	fa fa-braille
20180320 18221716  1 debug 						P5: Int64		20
20180320 18221716  1 debug 						P6: Int64		335498465902604
20180320 18221716  1 debug 						P7: String(17)	/335498465902604/
20180320 18221716  1 debug 						P8: Int64		10
20180320 18221716  1 debug 						P9: DateTime	2018-03-20T18:22:17
20180320 18221716  1 debug 						P10: Int64		10
20180320 18221716  1 debug 						P11: DateTime	2018-03-20T18:22:17
20180320 18221716  1 debug 						P12: Int64		10
20180320 18221716  1 debug 						P13: String(149..)	{  "cmdType": "showList",  "cmdData": {   "params": [    {     "entity": "req_cityRegion",     "meth...
20180320 18221716  1 DB    						StartTransaction for connection "main"
20180320 18221716  1 SQL   						ubDBSQLite3ThreadSafe.TubSQLite3Statement(172838D0) INSERT INTO ubm_navshortcut (desktopID,code,caption,iconCls,displayOrder,ID,mi_treePath,mi_owner,mi_createDate,mi_createUser,mi_modifyDate,mi_modifyUser,cmdCode) VALUES (?,?,?,?,?,?,?,?,?,?,?,?,?)
20180320 18221716  1  -    					00.000.214
20180320 18221716  1  -    				00.000.216
20180320 18221716  1  -    			00.000.353
20180320 18221716  1  -    		00.000.373
20180320 18221716  1  -    	00.000.380
20180320 18221716  1  +    	ubMixinClasses.TubStorageMixin(02B042C0).MixinMethod
20180320 18221716  1 debug 		ubm_navshortcut.afterinsert(TubStorageMixin)
20180320 18221716  1  +    		ubMixinClasses.TubRLSMixin(02B04E20).MixinMethod
20180320 18221716  1 debug 			ubm_navshortcut.select(TubRLSMixin)
20180320 18221716  1 debug 			Prepare RLS expression for ubm_navshortcut
20180320 18221716  1  -    		00.000.367
20180320 18221716  1  +    		ubMixinClasses.TubStorageMixin(02B042C0).MixinMethod
20180320 18221716  1 debug 			ubm_navshortcut.select(TubStorageMixin)
20180320 18221716  1  +    			ubApp.TubDataStore(071CC578).Init
20180320 18221716  1  +    				ubApp.TubApp(02AB3EE0).DBExecute
20180320 18221716  1  +    					ubApp.TubApp(02AB3EE0).TubApp.InternalDBExecute
20180320 18221716  1 debug 						P1: Int64		10
20180320 18221716  1 debug 						P2: Int64		10
20180320 18221716  1 debug 						P3: Int64		335498465902604
20180320 18221716  1 debug 						P4: DateTime	9999-12-31T00:00:00
20180320 18221716  1 SQL   						ubDBSQLite3ThreadSafe.TubSQLite3Statement(172839F0) SELECT A01.ID  FROM ubm_navshortcut A01  WHERE (( A01.mi_owner = ? ) OR               (1=1) OR                             exists (select 1 from ubm_navshortcut_adm admsubtable where admsubtable.instanceID = A01.ID and admsubtable.admSubjID in (select ur.RoleID from uba_userrole ur where ur.UserID = ? union select 10))) AND A01.ID=? AND A01.mi_deleteDate=?
20180320 18221716  1  -    					00.000.198
20180320 18221716  1  -    				00.000.241
20180320 18221716  1 debug 				Query result for entity "ubm_navshortcut" into data name "selectAfterInsert": row count=1
20180320 18221716  1  -    			00.000.266
20180320 18221716  1  -    		00.000.408
20180320 18221716  1  -    	00.000.862
20180320 18221716  1  +    	ubMixinClasses.TubAuditMixin(02B04F70).MixinMethod
20180320 18221716  1 debug 		ubm_navshortcut.afterinsert(TubAuditMixin)
20180320 18221716  1  +    		ubApp.TubDataStore(20DEF200).TubDataStore.ExecuteInsertFromSQL
20180320 18221716  1  +    			ubApp.TubApp(02AB3EE0).DBExecute
20180320 18221716  1  +    				ubApp.TubApp(02AB3EE0).TubApp.InternalDBExecute
20180320 18221716  1 debug 					P1: Int64		335498465902605
20180320 18221716  1 debug 					P2: String(15)	ubm_navshortcut
20180320 18221716  1 debug 					P3: Int64		335498465902604
20180320 18221716  1 debug 					P4: String(6)	INSERT
20180320 18221716  1 debug 					P5: Int64		10
20180320 18221716  1 debug 					P6: DateTime	2018-03-20T18:22:17
20180320 18221716  1 debug 					P7: String(9)	127.0.0.1
20180320 18221716  1 debug 					P8: Int64		335498465902604
20180320 18221716  1 debug 					P9: String(524..)	{"desktopID":335498465902594,"code":"req_cityRegion","caption":"City region","iconCls":"fa fa-braill...
20180320 18221716  1 SQL   					ubDBSQLite3ThreadSafe.TubSQLite3Statement(17283DB0) INSERT INTO uba_auditTrail (ID,entity,entityinfo_id,actionType,actionUser,actionTime,remoteIP,parentEntityInfo_id,toValue) VALUES (?,?,?,?,?,?,?,?,?)
20180320 18221716  1  -    				00.000.320
20180320 18221716  1  -    			00.000.325
20180320 18221716  1  -    		00.000.474
20180320 18221716  1  -    	00.000.536
20180320 18221716  1 DB    	Commit connection "main" in 690us
20180320 18221716  1 http  	127.0.0.1 <- 200
20180320 18221716  1  -    00.003.022
20180320 18221716  +  +    logout
20180320 18221716  + http  	127.0.0.1 -> POST logout
20180320 18221716  + auth  	admin/4605695
20180320 18221716  + call  	endpoint logout
20180320 18221716  + auth  	Session closed admin/4605695/127.0.0.1
20180320 18221716  + http  	127.0.0.1 <- 200
20180320 18221716  +  -    00.000.238
20180320 18224414  '  +    logout
20180320 18224414  ' http  	127.0.0.1 -> POST logout
20180320 18224414  ' http  	{}
20180320 18224414  ' auth  	admin/4605692
20180320 18224414  ' call  	endpoint logout
20180320 18224414  ' auth  	Session closed admin/4605692/127.0.0.1
20180320 18224414  ' http  	127.0.0.1 <- 200
20180320 18224414  '  -    00.000.314
20180320 18224414  #  +    adm
20180320 18224414  # http  	127.0.0.1 -> GET adm
20180320 18224414  # call  	endpoint adm
20180320 18224414  # http  	127.0.0.1 <- 200
20180320 18224414  #  -    00.000.867
20180320 18224415  &  +    models/adminui-pub/themes/UBGrayTheme/UBGrayTheme-all.css?ver=d41d8cd98f00b204e9800998ecf8427e
20180320 18224415  0  +    models/adminui-pub/ub-css-all.css?ver=d41d8cd98f00b204e9800998ecf8427e
20180320 18224415  "  +    clientRequire/font-awesome/css/font-awesome.min.css
20180320 18224415  0 http  	127.0.0.1 -> GET models/adminui-pub/ub-css-all.css?ver=d41d8cd98f00b204e9800998ecf8427e
20180320 18224415  & http  	127.0.0.1 -> GET models/adminui-pub/themes/UBGrayTheme/UBGrayTheme-all.css?ver=d41d8cd98f00b204e9800998ecf8427e
20180320 18224415  " http  	127.0.0.1 -> GET clientRequire/font-awesome/css/font-awesome.min.css
20180320 18224415  .  +    models/adminui-pub/themes/UBGrayTheme/ub.css?ver=d41d8cd98f00b204e9800998ecf8427e
20180320 18224415  . http  	127.0.0.1 -> GET models/adminui-pub/themes/UBGrayTheme/ub.css?ver=d41d8cd98f00b204e9800998ecf8427e
20180320 18224415  $  +    clientRequire/es6-promise/dist/es6-promise.auto.min.js
20180320 18224415  %  +    clientRequire/systemjs/dist/system.js?ver=d41d8cd98f00b204e9800998ecf8427e
20180320 18224415  $ http  	127.0.0.1 -> GET clientRequire/es6-promise/dist/es6-promise.auto.min.js
20180320 18224415  % http  	127.0.0.1 -> GET clientRequire/systemjs/dist/system.js?ver=d41d8cd98f00b204e9800998ecf8427e
20180320 18224415  . call  	endpoint models
20180320 18224415  " call  	endpoint clientRequire
20180320 18224415  0 call  	endpoint models
20180320 18224415  & call  	endpoint models
20180320 18224415  % call  	endpoint clientRequire
20180320 18224415  $ call  	endpoint clientRequire
20180320 18224415  % info  	Call clientRequire 
20180320 18224415  " info  	Call clientRequire 
20180320 18224415  & http  	127.0.0.1 <- 200
20180320 18224415  % http  	127.0.0.1 <- 200
20180320 18224415  &  -    00.000.454
20180320 18224415  %  -    00.000.400
20180320 18224415  " http  	127.0.0.1 <- 200
20180320 18224415  "  -    00.000.520
20180320 18224415  $ info  	Call clientRequire 
20180320 18224415  $ http  	127.0.0.1 <- 200
20180320 18224415  $  -    00.000.783
20180320 18224415  . http  	127.0.0.1 <- 200
20180320 18224415  .  -    00.001.048
20180320 18224415  0 http  	127.0.0.1 <- 200
20180320 18224415  0  -    00.001.243
20180320 18224415  )  +    models/adminui-pub/dist/ext-all.min.js?ver=d41d8cd98f00b204e9800998ecf8427e
20180320 18224415  ) http  	127.0.0.1 -> GET models/adminui-pub/dist/ext-all.min.js?ver=d41d8cd98f00b204e9800998ecf8427e
20180320 18224415  ) call  	endpoint models
20180320 18224415  ) http  	127.0.0.1 <- 200
20180320 18224415  )  -    00.000.302
20180320 18224419  ,  +    clientRequire/font-awesome/fonts/fontawesome-webfont.woff2?v=4.7.0
20180320 18224419  , http  	127.0.0.1 -> GET clientRequire/font-awesome/fonts/fontawesome-webfont.woff2?v=4.7.0
20180320 18224419  , call  	endpoint clientRequire
20180320 18224419  , info  	Call clientRequire 
20180320 18224419  , http  	127.0.0.1 <- 200
20180320 18224419  ,  -    00.000.464
20180320 18224443  /  +    clientRequire/@unitybase/adminui-pub/package.json
20180320 18224443  / http  	127.0.0.1 -> GET clientRequire/@unitybase/adminui-pub/package.json
20180320 18224443  / call  	endpoint clientRequire
20180320 18224443  / info  	Call clientRequire 
20180320 18224443  / http  	127.0.0.1 <- 200
20180320 18224443  /  -    00.000.329
20180320 18224443  *  +    clientRequire/@unitybase/adminui-pub/dist/adminui.app.min.js
20180320 18224443  -  +    models/UB/img/UBLogo32.png
20180320 18224443  * http  	127.0.0.1 -> GET clientRequire/@unitybase/adminui-pub/dist/adminui.app.min.js
20180320 18224443  - http  	127.0.0.1 -> GET models/UB/img/UBLogo32.png
20180320 18224443  - call  	endpoint models
20180320 18224443  * call  	endpoint clientRequire
20180320 18224443  - http  	127.0.0.1 <- 200
20180320 18224443  -  -    00.000.285
20180320 18224443  * info  	Call clientRequire 
20180320 18224443  * http  	127.0.0.1 <- 200
20180320 18224443  *  -    00.000.509
20180320 18224445  (  +    models/UB/img/UBLogo48.png
20180320 18224445  ( http  	127.0.0.1 -> GET models/UB/img/UBLogo48.png
20180320 18224445  ( call  	endpoint models
20180320 18224445  ( http  	127.0.0.1 <- 200
20180320 18224445  (  -    00.000.450
20180320 18224459  +  +    clientRequire/@unitybase/adminui-pub/themes/UBGrayTheme/UBGrayTheme.js
20180320 18224459  1  +    getAppInfo
20180320 18224459  '  +    models/UB/img/UBLogo128.png
20180320 18224459  + http  	127.0.0.1 -> GET clientRequire/@unitybase/adminui-pub/themes/UBGrayTheme/UBGrayTheme.js
20180320 18224459  1 http  	127.0.0.1 -> GET getAppInfo
20180320 18224459  ' http  	127.0.0.1 -> GET models/UB/img/UBLogo128.png
20180320 18224459  + call  	endpoint clientRequire
20180320 18224459  ' call  	endpoint models
20180320 18224459  1 call  	endpoint getAppInfo
20180320 18224459  + info  	Call clientRequire 
20180320 18224459  + http  	127.0.0.1 <- 200
20180320 18224459  ' http  	127.0.0.1 <- 200
20180320 18224459  +  -    00.000.323
20180320 18224459  '  -    00.000.320
20180320 18224459  1 http  	127.0.0.1 <- 304
20180320 18224459  1  -    00.000.433
20180320 18224459  #  +    models/adminui-pub/locale/lang-en.js?ubver=3865914637ef7cd48187d30356b8b4b0
20180320 18224459  # http  	127.0.0.1 -> GET models/adminui-pub/locale/lang-en.js?ubver=3865914637ef7cd48187d30356b8b4b0
20180320 18224459  # call  	endpoint models
20180320 18224459  # http  	127.0.0.1 <- 200
20180320 18224459  #  -    00.000.601
20180320 18224459  $  +    models/UB/img/UBLogo16.ico
20180320 18224459  $ http  	127.0.0.1 -> GET models/UB/img/UBLogo16.ico
20180320 18224459  $ call  	endpoint models
20180320 18224459  $ http  	127.0.0.1 <- 200
20180320 18224459  $  -    00.000.300
20180320 18224461  0  +    models/adminui-pub/themes/UBGrayTheme/images/form/exclamation.png
20180320 18224461  0 http  	127.0.0.1 -> GET models/adminui-pub/themes/UBGrayTheme/images/form/exclamation.png
20180320 18224461  0 call  	endpoint models
20180320 18224461  0 http  	127.0.0.1 <- 200
20180320 18224461  0  -    00.000.279
20180320 18224610  "  +    auth?AUTHTYPE=UB&userName=admin
20180320 18224610  " http  	127.0.0.1 -> POST auth?AUTHTYPE=UB&userName=admin
20180320 18224610  " call  	endpoint auth
20180320 18224610  " http  	127.0.0.1 <- 200
20180320 18224610  "  -    00.000.158
20180320 18224610  .  +    auth?AUTHTYPE=UB&clientNonce=1b4fea4f23acecbaa2a30a0a171402cf75d408f2ce9270402e9c23fd4f3080c8&password=9aed17943c4b43373e0cfcddc2f2615b4377646caf594881a2269ebed2c3d830&userName=admin
20180320 18224610  . http  	127.0.0.1 -> POST auth?AUTHTYPE=UB&clientNonce=1b4fea4f23acecbaa2a30a0a171402cf75d408f2ce9270402e9c23fd4f3080c8&password=9aed17943c4b43373e0cfcddc2f2615b4377646caf594881a2269ebed2c3d830&userName=admin
20180320 18224610  . call  	endpoint auth
20180320 18224610  .  +    	ubApp.TubDataStore(17320FA0).Init
20180320 18224610  .  +    		ubApp.TubApp(02AB3EE0).DBExecute
20180320 18224610  .  +    			ubApp.TubApp(02AB3EE0).TubApp.InternalDBExecute
20180320 18224610  . debug 				P1: String(5)	admin
20180320 18224610  . SQL   				ubDBSQLite3ThreadSafe.TubSQLite3Statement(17282670) select id, name, uPasswordHashHexa, uData, isPending, trustedIP from UBA_USER where name=? and disabled=0
20180320 18224610  .  -    			00.000.094
20180320 18224610  .  -    		00.000.199
20180320 18224610  . debug 		Query result for entity "uba_user" into data name "": row count=1
20180320 18224610  .  -    	00.000.220
20180320 18224610  .  +    	ubApp.TubDataStore(17320FA0).Init
20180320 18224610  .  +    		ubApp.TubApp(02AB3EE0).DBExecute
20180320 18224610  .  +    			ubApp.TubApp(02AB3EE0).TubApp.InternalDBExecute
20180320 18224610  . debug 				P1: Int64		10
20180320 18224610  . SQL   				ubDBSQLite3ThreadSafe.TubSQLite3Statement(17283BD0) SELECT lastPasswordChangeDate FROM uba_user WHERE id=?
20180320 18224610  .  -    			00.000.026
20180320 18224610  .  -    		00.000.053
20180320 18224610  . debug 		Query result for entity "uba_user" into data name "__expireDate": row count=1
20180320 18224610  .  -    	00.000.065
20180320 18224610  .  +    	ubApp.TubDataStore(20DEFB60).Init
20180320 18224610  .  +    		ubApp.TubApp(02AB3EE0).DBExecute
20180320 18224610  .  +    			ubApp.TubApp(02AB3EE0).TubApp.InternalDBExecute
20180320 18224610  . debug 				P1: Int64		10
20180320 18224610  . SQL   				ubDBSQLite3ThreadSafe.TubSQLite3Statement(17283E70) SELECT A01.roleID,A02.name,A02.description  FROM uba_userrole A01  INNER JOIN uba_role A02 ON A02.ID=A01.roleID  WHERE A01.userID=?
20180320 18224610  .  -    			00.000.054
20180320 18224610  .  -    		00.000.095
20180320 18224610  . debug 		Query result for entity "uba_userrole" into data name "": row count=1
20180320 18224610  .  -    	00.000.103
20180320 18224610  . auth  	New session admin/4605694 created at 127.0.0.1/-432345545437085629 using Mozilla/5.0 (Windows NT 6.3; Win64; x64) AppleWebKit/537.36 (KHTML, like Gecko) Chrome/64.0.3282.186 Safari/537.36 OPR/51.0.2830.55
20180320 18224610  .  +    	ubMixinClasses.TubStorageMixin(02B042C0).MixinMethod
20180320 18224610  . debug 		uba_user.select(TubStorageMixin)
20180320 18224610  .  +    		ubApp.TubDataStore(20DEFB60).Init
20180320 18224610  .  +    			ubApp.TubApp(02AB3EE0).DBExecute
20180320 18224610  .  +    				ubApp.TubApp(02AB3EE0).TubApp.InternalDBExecute
20180320 18224610  . debug 					P1: Int64		10
20180320 18224610  . SQL   					ubDBSQLite3ThreadSafe.TubSQLite3Statement(17283F90) SELECT A01.name  FROM uba_user A01  WHERE A01.ID=?
20180320 18224610  .  -    				00.000.058
20180320 18224610  .  -    			00.000.107
20180320 18224610  . debug 			Query result for entity "uba_user" into data name "": row count=1
20180320 18224610  .  -    		00.000.118
20180320 18224610  .  -    	00.000.202
20180320 18224610  .  +    	ubMixinClasses.TubStorageMixin(02B042C0).MixinMethod
20180320 18224610  . debug 		uba_advSecurity.select(TubStorageMixin)
20180320 18224610  .  +    		ubApp.TubDataStore(20DEFB60).Init
20180320 18224610  .  +    			ubApp.TubApp(02AB3EE0).DBExecute
20180320 18224610  .  +    				ubApp.TubApp(02AB3EE0).TubApp.InternalDBExecute
20180320 18224610  . debug 					P1: Int64		10
20180320 18224610  . SQL   					ubDBSQLite3ThreadSafe.TubSQLite3Statement(17283FF0) SELECT A01.ID,A01.allowedIP,A01.refreshIP,A01.fp,A01.refreshFp,A01.keyMediaName,A01.refreshKeyMedia,A01.mi_modifyDate  FROM uba_advSecurity A01  WHERE A01.userID=?
20180320 18224610  .  -    				00.000.062
20180320 18224610  .  -    			00.000.115
20180320 18224610  . debug 			Query result for entity "uba_advSecurity" into data name "": row count=0
20180320 18224610  .  -    		00.000.127
20180320 18224610  .  -    	00.000.238
20180320 18224610  .  +    	ubMixinClasses.TubStorageMixin(02B042C0).MixinMethod
20180320 18224610  . debug 		uba_userrole.select(TubStorageMixin)
20180320 18224610  .  +    		ubApp.TubDataStore(20DEFB60).Init
20180320 18224610  .  +    			ubApp.TubApp(02AB3EE0).DBExecute
20180320 18224610  .  +    				ubApp.TubApp(02AB3EE0).TubApp.InternalDBExecute
20180320 18224610  . debug 					P1: Int64		10
20180320 18224610  . SQL   					ubDBSQLite3ThreadSafe.TubSQLite3Statement(172840B0) SELECT A01.ID,A02.name,A01.roleID  FROM uba_userrole A01  INNER JOIN uba_role A02 ON A02.ID=A01.roleID  WHERE A01.userID=?
20180320 18224610  .  -    				00.000.055
20180320 18224610  .  -    			00.000.099
20180320 18224610  . debug 			Query result for entity "uba_userrole" into data name "": row count=1
20180320 18224610  .  -    		00.000.108
20180320 18224610  .  -    	00.000.184
20180320 18224610  .  +    	ubMixinClasses.TubStorageMixin(02B042C0).MixinMethod
20180320 18224610  . debug 		uba_audit.beforeinsert(TubStorageMixin)
20180320 18224610  .  -    	00.000.007
20180320 18224610  .  +    	ubMixinClasses.TubStorageMixin(02B042C0).MixinMethod
20180320 18224610  . debug 		uba_audit.insert(TubStorageMixin)
20180320 18224610  .  +    		ubApp.TubDataStore(17320B40).TubDataStore.ExecuteInsertFromList
20180320 18224610  .  +    			ubApp.TubDataStore(17320B40).TubDataStore.ExecuteInsertFromSQL
20180320 18224610  .  +    				ubApp.TubApp(02AB3EE0).DBExecute
20180320 18224610  .  +    					ubApp.TubApp(02AB3EE0).TubApp.InternalDBExecute
20180320 18224610  . debug 						P1: String(8)	uba_user
20180320 18224610  . debug 						P2: Int64		10
20180320 18224610  . debug 						P3: String(5)	LOGIN
20180320 18224610  . debug 						P4: Int64		10
20180320 18224610  . debug 						P5: DateTime	2018-03-20T18:22:46
20180320 18224610  . debug 						P6: String(9)	127.0.0.1
20180320 18224610  . debug 						P7: String(5)	admin
20180320 18224610  . debug 						P8: Int64		335498469605377
20180320 18224610  . debug 						P9: String(407..)	Connection: keep-alive  Content-Length: 0  Accept: application/json, text/plain, */*  Accept-Encodin...
20180320 18224610  . DB    						StartTransaction for connection "main"
20180320 18224610  . SQL   						ubDBSQLite3ThreadSafe.TubSQLite3Statement(17284170) INSERT INTO uba_audit (entity,entityinfo_id,actionType,actionUser,actionTime,remoteIP,targetUser,ID,fromValue) VALUES (?,?,?,?,?,?,?,?,?)
20180320 18224610  .  -    					00.000.110
20180320 18224610  .  -    				00.000.112
20180320 18224610  .  -    			00.000.200
20180320 18224610  .  -    		00.000.213
20180320 18224610  .  -    	00.000.217
20180320 18224610  .  +    	ubMixinClasses.TubStorageMixin(02B042C0).MixinMethod
20180320 18224610  . debug 		uba_audit.afterinsert(TubStorageMixin)
20180320 18224610  .  -    	00.000.004
20180320 18224610  . DB    	Commit connection "main"
20180320 18224610  . http  	127.0.0.1 <- 200
20180320 18224610  .  -    00.005.911
20180320 18224610  %  +    getDomainInfo?userName=admin&v=4
20180320 18224610  % http  	127.0.0.1 -> GET getDomainInfo?userName=admin&v=4
20180320 18224610  % auth  	admin/4605694
20180320 18224610  % call  	endpoint getDomainInfo
20180320 18224610  % http  	127.0.0.1 <- 304
20180320 18224610  %  -    00.002.366
20180320 18224612  &  +    models/UB/locale/lang-en.js?ubver=16b0a19c938f48c16b56a05da80f0dc2
20180320 18224612  ,  +    models/UBA/locale/lang-en.js?ubver=77650b6a42c37186bfb44af18a505e71
20180320 18224612  )  +    models/UBS/locale/lang-en.js?ubver=16f6cb04f3b2b6a19844744bc20cc653
20180320 18224612  /  +    models/UBM/locale/lang-en.js?ubver=5d30adb331eaa71d9412558d2ace2271
20180320 18224612  , http  	127.0.0.1 -> GET models/UBA/locale/lang-en.js?ubver=77650b6a42c37186bfb44af18a505e71
20180320 18224612  ) http  	127.0.0.1 -> GET models/UBS/locale/lang-en.js?ubver=16f6cb04f3b2b6a19844744bc20cc653
20180320 18224612  & http  	127.0.0.1 -> GET models/UB/locale/lang-en.js?ubver=16b0a19c938f48c16b56a05da80f0dc2
20180320 18224612  / http  	127.0.0.1 -> GET models/UBM/locale/lang-en.js?ubver=5d30adb331eaa71d9412558d2ace2271
20180320 18224612  & call  	endpoint models
20180320 18224612  / call  	endpoint models
20180320 18224612  ) call  	endpoint models
20180320 18224612  , call  	endpoint models
20180320 18224612  / http  	127.0.0.1 <- 200
20180320 18224612  , http  	127.0.0.1 <- 200
20180320 18224612  ) http  	127.0.0.1 <- 200
20180320 18224612  /  -    00.000.283
20180320 18224612  ,  -    00.000.287
20180320 18224612  )  -    00.000.286
20180320 18224612  & http  	127.0.0.1 <- 200
20180320 18224612  &  -    00.001.538
20180320 18224612  -  +    clientRequire/@unitybase/ubs/package.json
20180320 18224612  - http  	127.0.0.1 -> GET clientRequire/@unitybase/ubs/package.json
20180320 18224612  - call  	endpoint clientRequire
20180320 18224612  - info  	Call clientRequire 
20180320 18224612  - http  	127.0.0.1 <- 200
20180320 18224612  -  -    00.000.276
20180320 18224612  (  +    clientRequire/@unitybase/ubs/public/initModel.js
20180320 18224612  ( http  	127.0.0.1 -> GET clientRequire/@unitybase/ubs/public/initModel.js
20180320 18224612  ( call  	endpoint clientRequire
20180320 18224612  ( info  	Call clientRequire 
20180320 18224612  ( http  	127.0.0.1 <- 200
20180320 18224612  (  -    00.000.314
20180320 18224612  *  +    clientRequire/@unitybase/ubs/public/dist/ubs.main.min.js?ubver=2018-03-20T20:03:34
20180320 18224612  * http  	127.0.0.1 -> GET clientRequire/@unitybase/ubs/public/dist/ubs.main.min.js?ubver=2018-03-20T20:03:34
20180320 18224612  * call  	endpoint clientRequire
20180320 18224612  * info  	Call clientRequire 
20180320 18224612  * http  	127.0.0.1 <- 200
20180320 18224612  *  -    00.000.257
20180320 18224612  1  +    clientRequire/@unitybase/ubm/package.json
20180320 18224612  1 http  	127.0.0.1 -> GET clientRequire/@unitybase/ubm/package.json
20180320 18224612  1 call  	endpoint clientRequire
20180320 18224612  1 info  	Call clientRequire 
20180320 18224612  1 http  	127.0.0.1 <- 200
20180320 18224612  1  -    00.000.211
20180320 18224614  '  +    clientRequire/@unitybase/ubm/public/initModel.js
20180320 18224614  ' http  	127.0.0.1 -> GET clientRequire/@unitybase/ubm/public/initModel.js
20180320 18224614  ' call  	endpoint clientRequire
20180320 18224614  ' info  	Call clientRequire 
20180320 18224614  ' http  	127.0.0.1 <- 200
20180320 18224614  '  -    00.000.325
20180320 18224615  +  +    ubql
20180320 18224615  + http  	127.0.0.1 -> POST ubql
20180320 18224615  + http  	[{"entity":"ubs_settings","method":"select","fieldList":["ID","settingKey","name","description","type","settingValue","defaultValue"],"version":"1519981756"},{"entity":"ubm_desktop","method":"select","fieldList":["ID","caption","code","url","isDefault","mi_owner","mi_createDate","mi_createUser","mi_modifyDate","mi_modifyUser","mi_deleteDate","mi_deleteUser"],"version":"-1"},{"entity":"ubm_form","method":"select","fieldList":["ID","code","description","caption","formType","formDef","formCode","model","entity","isDefault","mi_owner","mi_createDate","mi_createUser","mi_modifyDate","mi_modifyUser"],"version":2613330792},{"entity":"ubm_enum","method":"select","fieldList":["ID","eGroup","code","shortName","name","sortOrder","mi_owner","mi_createDate","mi_createUser","mi_modifyDate","mi_modifyUser","mi_deleteDate","mi_deleteUser"],"version":"1519981756"}]
20180320 18224615  + auth  	admin/4605694
20180320 18224615  + call  	endpoint ubql
20180320 18224615  +  +    	ubMixinClasses.TubStorageMixin(02B042C0).MixinMethod
20180320 18224615  + debug 		ubs_settings.select(TubStorageMixin)
20180320 18224615  +  +    		ubApp.TubDataStore(20DEC898).Init
20180320 18224615  +  +    			ubApp.TubApp(02AB3EE0).DBExecute
20180320 18224615  +  +    				ubApp.TubApp(02AB3EE0).TubApp.InternalDBExecute
20180320 18224615  + SQL   					ubDBSQLite3ThreadSafe.TubSQLite3Statement(17283ED0) SELECT ( (SELECT COALESCE(strftime('%s',  MAX(mi_modifyDate)),1) FROM ubs_settings) ) AS dataVersion
20180320 18224615  +  -    				00.000.088
20180320 18224615  +  -    			00.000.182
20180320 18224615  + debug 			Query result for entity "ubs_settings" into data name "": row count=1
20180320 18224615  +  -    		00.000.191
20180320 18224615  +  -    	00.000.294
20180320 18224615  +  +    	ubMixinClasses.TubRLSMixin(02B04E20).MixinMethod
20180320 18224615  + debug 		ubm_desktop.select(TubRLSMixin)
20180320 18224615  + debug 		Prepare RLS expression for ubm_desktop
20180320 18224615  +  -    	00.000.334
20180320 18224615  +  +    	ubMixinClasses.TubStorageMixin(02B042C0).MixinMethod
20180320 18224615  + debug 		ubm_desktop.select(TubStorageMixin)
20180320 18224615  +  +    		ubApp.TubDataStore(20DEE580).Init
20180320 18224615  +  +    			ubApp.TubApp(02AB3EE0).DBExecute
20180320 18224615  +  +    				ubApp.TubApp(02AB3EE0).TubApp.InternalDBExecute
20180320 18224615  + debug 					P1: Int64		10
20180320 18224615  + debug 					P2: Int64		10
20180320 18224615  + debug 					P3: DateTime	9999-12-31T00:00:00
20180320 18224615  + SQL   					ubDBSQLite3ThreadSafe.TubSQLite3Statement(17282550) SELECT A01.ID,A01.caption,A01.code,A01.url,A01.isDefault,A01.mi_owner,A01.mi_createDate,A01.mi_createUser,A01.mi_modifyDate,A01.mi_modifyUser,A01.mi_deleteDate,A01.mi_deleteUser  FROM ubm_desktop A01  WHERE (( A01.mi_owner = ? ) OR (1=1) OR exists (select 1 from ubm_desktop_adm admsubtable where admsubtable.instanceID = A01.ID and admsubtable.admSubjID in (select ur.RoleID from uba_userrole ur where ur.UserID = ? union select 10))) AND A01.mi_deleteDate=?
20180320 18224615  +  -    				00.000.118
20180320 18224615  +  -    			00.000.163
20180320 18224615  + debug 			Query result for entity "ubm_desktop" into data name "": row count=2
20180320 18224615  +  -    		00.000.178
20180320 18224615  +  -    	00.000.329
20180320 18224617  +  +    	ubMixinClasses.TubStorageMixin(02B042C0).MixinMethod
20180320 18224617  + debug 		ubm_enum.select(TubStorageMixin)
20180320 18224617  +  +    		ubApp.TubDataStore(20E99790).Init
20180320 18224617  +  +    			ubApp.TubApp(02AB3EE0).DBExecute
20180320 18224617  +  +    				ubApp.TubApp(02AB3EE0).TubApp.InternalDBExecute
20180320 18224617  + SQL   					ubDBSQLite3ThreadSafe.TubSQLite3Statement(17284230) SELECT ( (SELECT COALESCE(strftime('%s',  MAX(mi_modifyDate)),1) FROM ubm_enum) ) AS dataVersion
20180320 18224617  +  -    				00.000.069
20180320 18224617  +  -    			00.000.138
20180320 18224617  + debug 			Query result for entity "ubm_enum" into data name "": row count=1
20180320 18224617  +  -    		00.000.148
20180320 18224617  +  -    	00.000.285
20180320 18224617  + http  	127.0.0.1 <- 200
20180320 18224617  +  -    00.026.762
20180320 18224621  #  +    ubql
20180320 18224621  # http  	127.0.0.1 -> POST ubql
20180320 18224621  # http  	[{"entity":"ubm_navshortcut","method":"select","fieldList":["ID","desktopID","parentID","code","isFolder","caption","inWindow","isCollapsed","displayOrder","iconCls","mi_modifyDate"],"orderList":{"0":{"expression":"desktopID","order":"asc"},"1":{"expression":"parentID","order":"asc"},"2":{"expression":"displayOrder","order":"asc"},"3":{"expression":"caption","order":"asc"}}}]
20180320 18224621  # auth  	admin/4605694
20180320 18224621  # call  	endpoint ubql
20180320 18224621  #  +    	ubMixinClasses.TubRLSMixin(02B04E20).MixinMethod
20180320 18224621  # debug 		ubm_navshortcut.select(TubRLSMixin)
20180320 18224621  # debug 		Prepare RLS expression for ubm_navshortcut
20180320 18224621  #  -    	00.000.346
20180320 18224621  #  +    	ubMixinClasses.TubStorageMixin(02B042C0).MixinMethod
20180320 18224621  # debug 		ubm_navshortcut.select(TubStorageMixin)
20180320 18224621  #  +    		ubApp.TubDataStore(20DEF688).Init
20180320 18224621  #  +    			ubApp.TubApp(02AB3EE0).DBExecute
20180320 18224621  #  +    				ubApp.TubApp(02AB3EE0).TubApp.InternalDBExecute
20180320 18224621  # debug 					P1: Int64		10
20180320 18224621  # debug 					P2: Int64		10
20180320 18224621  # debug 					P3: DateTime	9999-12-31T00:00:00
20180320 18224621  # SQL   					ubDBSQLite3ThreadSafe.TubSQLite3Statement(17283F30) SELECT A01.ID,A01.desktopID,A01.parentID,A01.code,A01.isFolder,A01.caption,A01.inWindow,A01.isCollapsed,A01.displayOrder,A01.iconCls,A01.mi_modifyDate  FROM ubm_navshortcut A01  WHERE (( A01.mi_owner = ? ) OR               (1=1) OR                             exists (select 1 from ubm_navshortcut_adm admsubtable where admsubtable.instanceID = A01.ID and admsubtable.admSubjID in (select ur.RoleID from uba_userrole ur where ur.UserID = ? union select 10))) AND A01.mi_deleteDate=? ORDER BY 2 ASC,3 ASC,9 ASC,6 ... (truncated) length=515
20180320 18224621  #  -    				00.000.161
20180320 18224621  #  -    			00.000.403
20180320 18224621  # debug 			Query result for entity "ubm_navshortcut" into data name "": row count=34
20180320 18224621  #  -    		00.000.436
20180320 18224621  #  -    	00.000.613
20180320 18224621  # http  	127.0.0.1 <- 200
20180320 18224621  #  -    00.001.433
20180320 18224626  $  +    models/adminui-pub/themes/UBGrayTheme/images/toolbar/more.png
20180320 18224626  $ http  	127.0.0.1 -> GET models/adminui-pub/themes/UBGrayTheme/images/toolbar/more.png
20180320 18224626  $ call  	endpoint models
20180320 18224626  $ http  	127.0.0.1 <- 200
20180320 18224626  $  -    00.000.265
20180320 18224626  "  +    models/adminui-pub/themes/UBGrayTheme/images/button/default-toolbar-small-arrow.png
20180320 18224626  " http  	127.0.0.1 -> GET models/adminui-pub/themes/UBGrayTheme/images/button/default-toolbar-small-arrow.png
20180320 18224626  0  +    models/adminui-pub/themes/UBGrayTheme/images/grid/hd-pop.png
20180320 18224626  0 http  	127.0.0.1 -> GET models/adminui-pub/themes/UBGrayTheme/images/grid/hd-pop.png
20180320 18224626  " call  	endpoint models
20180320 18224626  0 call  	endpoint models
20180320 18224626  0 http  	127.0.0.1 <- 200
20180320 18224626  0  -    00.000.223
20180320 18224626  " http  	127.0.0.1 <- 200
20180320 18224626  "  -    00.000.238
20180320 18224758  ,  +    models/adminui-pub/themes/UBGrayTheme/images/menu/scroll-bottom.png
20180320 18224758  .  +    models/adminui-pub/themes/UBGrayTheme/images/menu/scroll-top.png
20180320 18224758  , http  	127.0.0.1 -> GET models/adminui-pub/themes/UBGrayTheme/images/menu/scroll-bottom.png
20180320 18224758  . http  	127.0.0.1 -> GET models/adminui-pub/themes/UBGrayTheme/images/menu/scroll-top.png
20180320 18224758  %  +    models/adminui-pub/themes/UBGrayTheme/images/menu/menu-parent.png
20180320 18224758  % http  	127.0.0.1 -> GET models/adminui-pub/themes/UBGrayTheme/images/menu/menu-parent.png
20180320 18224758  . call  	endpoint models
20180320 18224758  , call  	endpoint models
20180320 18224758  % call  	endpoint models
20180320 18224758  , http  	127.0.0.1 <- 200
20180320 18224758  . http  	127.0.0.1 <- 200
20180320 18224758  % http  	127.0.0.1 <- 200
20180320 18224758  ,  -    00.000.272
20180320 18224758  .  -    00.000.271
20180320 18224758  %  -    00.000.265
20180320 18250907  )  +    getAppInfo
20180320 18250907  ) http  	127.0.0.1 -> GET getAppInfo
20180320 18250907  ) call  	endpoint getAppInfo
20180320 18250907  ) http  	127.0.0.1 <- 200
20180320 18250907  )  -    00.000.605
20180320 18250907  /  +    getAppInfo
20180320 18250907  / http  	127.0.0.1 -> GET getAppInfo
20180320 18250907  / call  	endpoint getAppInfo
20180320 18250907  / http  	127.0.0.1 <- 200
20180320 18250907  /  -    00.000.568
20180320 18250908  &  +    auth?AUTHTYPE=UB&userName=admin
20180320 18250908  & http  	127.0.0.1 -> GET auth?AUTHTYPE=UB&userName=admin
20180320 18250908  & call  	endpoint auth
20180320 18250908  & http  	127.0.0.1 <- 200
20180320 18250908  &  -    00.000.207
20180320 18250908  -  +    auth?AUTHTYPE=UB&clientNonce=5d9758c88ad108d24cd1b01512e324c511f847cfc6cc68023acc07e97758c782&password=2f938451625643df4c2af08857e9f5b1b8b8109ad4259084bc6c76b222730591&userName=admin
20180320 18250908  - http  	127.0.0.1 -> GET auth?AUTHTYPE=UB&clientNonce=5d9758c88ad108d24cd1b01512e324c511f847cfc6cc68023acc07e97758c782&password=2f938451625643df4c2af08857e9f5b1b8b8109ad4259084bc6c76b222730591&userName=admin
20180320 18250908  - call  	endpoint auth
20180320 18250908  -  +    	ubApp.TubDataStore(17320FC8).Init
20180320 18250908  -  +    		ubApp.TubApp(02AB3EE0).DBExecute
20180320 18250908  -  +    			ubApp.TubApp(02AB3EE0).TubApp.InternalDBExecute
20180320 18250908  - debug 				P1: String(5)	admin
20180320 18250908  - SQL   				ubDBSQLite3ThreadSafe.TubSQLite3Statement(1727FCD0) select id, name, uPasswordHashHexa, uData, isPending, trustedIP from UBA_USER where name=? and disabled=0
20180320 18250908  -  -    			00.000.035
20180320 18250908  -  -    		00.000.152
20180320 18250908  - debug 		Query result for entity "uba_user" into data name "": row count=1
20180320 18250908  -  -    	00.000.175
20180320 18250908  -  +    	ubApp.TubDataStore(17320FC8).Init
20180320 18250908  -  +    		ubApp.TubApp(02AB3EE0).DBExecute
20180320 18250908  -  +    			ubApp.TubApp(02AB3EE0).TubApp.InternalDBExecute
20180320 18250908  - debug 				P1: Int64		10
20180320 18250908  - SQL   				ubDBSQLite3ThreadSafe.TubSQLite3Statement(17281B30) SELECT lastPasswordChangeDate FROM uba_user WHERE id=?
20180320 18250908  -  -    			00.000.009
20180320 18250908  -  -    		00.000.032
20180320 18250908  - debug 		Query result for entity "uba_user" into data name "__expireDate": row count=1
20180320 18250908  -  -    	00.000.040
20180320 18250908  -  +    	ubApp.TubDataStore(1731BCD0).Init
20180320 18250908  -  +    		ubApp.TubApp(02AB3EE0).DBExecute
20180320 18250908  -  +    			ubApp.TubApp(02AB3EE0).TubApp.InternalDBExecute
20180320 18250908  - debug 				P1: Int64		10
20180320 18250908  - SQL   				ubDBSQLite3ThreadSafe.TubSQLite3Statement(17281BF0) SELECT A01.roleID,A02.name,A02.description  FROM uba_userrole A01  INNER JOIN uba_role A02 ON A02.ID=A01.roleID  WHERE A01.userID=?
20180320 18250908  -  -    			00.000.010
20180320 18250908  -  -    		00.000.045
20180320 18250908  - debug 		Query result for entity "uba_userrole" into data name "": row count=1
20180320 18250908  -  -    	00.000.054
20180320 18250908  - auth  	New session admin/4605689 created at 127.0.0.1/-648518336140804061 using Mozilla/5.0 (Windows; mORMot 1.18 TWinHTTP)
20180320 18250908  -  +    	ubMixinClasses.TubStorageMixin(02B042C0).MixinMethod
20180320 18250908  - debug 		uba_user.select(TubStorageMixin)
20180320 18250908  -  +    		ubApp.TubDataStore(1731BCD0).Init
20180320 18250908  -  +    			ubApp.TubApp(02AB3EE0).DBExecute
20180320 18250908  -  +    				ubApp.TubApp(02AB3EE0).TubApp.InternalDBExecute
20180320 18250908  - debug 					P1: Int64		10
20180320 18250908  - SQL   					ubDBSQLite3ThreadSafe.TubSQLite3Statement(17281D10) SELECT A01.name  FROM uba_user A01  WHERE A01.ID=?
20180320 18250908  -  -    				00.000.007
20180320 18250908  -  -    			00.000.030
20180320 18250908  - debug 			Query result for entity "uba_user" into data name "": row count=1
20180320 18250908  -  -    		00.000.039
20180320 18250908  -  -    	00.000.098
20180320 18250908  -  +    	ubMixinClasses.TubStorageMixin(02B042C0).MixinMethod
20180320 18250908  - debug 		uba_advSecurity.select(TubStorageMixin)
20180320 18250908  -  +    		ubApp.TubDataStore(1731BCD0).Init
20180320 18250908  -  +    			ubApp.TubApp(02AB3EE0).DBExecute
20180320 18250908  -  +    				ubApp.TubApp(02AB3EE0).TubApp.InternalDBExecute
20180320 18250908  - debug 					P1: Int64		10
20180320 18250908  - SQL   					ubDBSQLite3ThreadSafe.TubSQLite3Statement(17281D70) SELECT A01.ID,A01.allowedIP,A01.refreshIP,A01.fp,A01.refreshFp,A01.keyMediaName,A01.refreshKeyMedia,A01.mi_modifyDate  FROM uba_advSecurity A01  WHERE A01.userID=?
20180320 18250908  -  -    				00.000.013
20180320 18250908  -  -    			00.000.043
20180320 18250908  - debug 			Query result for entity "uba_advSecurity" into data name "": row count=0
20180320 18250908  -  -    		00.000.051
20180320 18250908  -  -    	00.000.144
20180320 18250908  -  +    	ubMixinClasses.TubStorageMixin(02B042C0).MixinMethod
20180320 18250908  - debug 		uba_userrole.select(TubStorageMixin)
20180320 18250908  -  +    		ubApp.TubDataStore(1731BCD0).Init
20180320 18250908  -  +    			ubApp.TubApp(02AB3EE0).DBExecute
20180320 18250908  -  +    				ubApp.TubApp(02AB3EE0).TubApp.InternalDBExecute
20180320 18250908  - debug 					P1: Int64		10
20180320 18250908  - SQL   					ubDBSQLite3ThreadSafe.TubSQLite3Statement(17281E30) SELECT A01.ID,A02.name,A01.roleID  FROM uba_userrole A01  INNER JOIN uba_role A02 ON A02.ID=A01.roleID  WHERE A01.userID=?
20180320 18250908  -  -    				00.000.011
20180320 18250908  -  -    			00.000.049
20180320 18250908  - debug 			Query result for entity "uba_userrole" into data name "": row count=1
20180320 18250908  -  -    		00.000.058
20180320 18250908  -  -    	00.000.128
20180320 18250908  -  +    	ubMixinClasses.TubStorageMixin(02B042C0).MixinMethod
20180320 18250908  - debug 		uba_audit.beforeinsert(TubStorageMixin)
20180320 18250908  -  -    	00.000.006
20180320 18250908  -  +    	ubMixinClasses.TubStorageMixin(02B042C0).MixinMethod
20180320 18250908  - debug 		uba_audit.insert(TubStorageMixin)
20180320 18250908  -  +    		ubApp.TubDataStore(1731BB40).TubDataStore.ExecuteInsertFromList
20180320 18250908  -  +    			ubApp.TubDataStore(1731BB40).TubDataStore.ExecuteInsertFromSQL
20180320 18250908  -  +    				ubApp.TubApp(02AB3EE0).DBExecute
20180320 18250908  -  +    					ubApp.TubApp(02AB3EE0).TubApp.InternalDBExecute
20180320 18250908  - debug 						P1: String(8)	uba_user
20180320 18250908  - debug 						P2: Int64		10
20180320 18250908  - debug 						P3: String(5)	LOGIN
20180320 18250908  - debug 						P4: Int64		10
20180320 18250908  - debug 						P5: DateTime	2018-03-20T18:25:09
20180320 18250908  - debug 						P6: String(9)	127.0.0.1
20180320 18250908  - debug 						P7: String(5)	admin
20180320 18250908  - debug 						P8: Int64		335498487922689
20180320 18250908  - debug 						P9: String(202..)	Cache-Control: no-cache  Connection: Keep-Alive  Pragma: no-cache  Accept: */*  Accept-Encoding: gzi...
20180320 18250908  - DB    						StartTransaction for connection "main"
20180320 18250908  - SQL   						ubDBSQLite3ThreadSafe.TubSQLite3Statement(17281EF0) INSERT INTO uba_audit (entity,entityinfo_id,actionType,actionUser,actionTime,remoteIP,targetUser,ID,fromValue) VALUES (?,?,?,?,?,?,?,?,?)
20180320 18250908  -  -    					00.000.086
20180320 18250908  -  -    				00.000.088
20180320 18250908  -  -    			00.000.175
20180320 18250908  -  -    		00.000.188
20180320 18250908  -  -    	00.000.192
20180320 18250908  -  +    	ubMixinClasses.TubStorageMixin(02B042C0).MixinMethod
20180320 18250908  - debug 		uba_audit.afterinsert(TubStorageMixin)
20180320 18250908  -  -    	00.000.003
20180320 18250908  - DB    	Commit connection "main"
20180320 18250908  - http  	127.0.0.1 <- 200
20180320 18250908  -  -    00.003.425
20180320 18250908  (  +    ubql
20180320 18250908  ( http  	127.0.0.1 -> POST ubql
20180320 18250908  ( http  	[{"entity":"ubm_desktop","method":"select","fieldList":["ID"],"options":{"limit":1},"whereList":{"lookup":{"expression":"code","condition":"equal","values":{"code":"CityReq_desktop"}}}}]
20180320 18250908  ( auth  	admin/4605689
20180320 18250908  ( call  	endpoint ubql
20180320 18250908  (  +    	ubMixinClasses.TubRLSMixin(02B04E20).MixinMethod
20180320 18250908  ( debug 		ubm_desktop.select(TubRLSMixin)
20180320 18250908  ( debug 		Prepare RLS expression for ubm_desktop
20180320 18250908  (  -    	00.000.253
20180320 18250908  (  +    	ubMixinClasses.TubStorageMixin(02B042C0).MixinMethod
20180320 18250908  ( debug 		ubm_desktop.select(TubStorageMixin)
20180320 18250908  (  +    		ubApp.TubDataStore(20DEC6E0).Init
20180320 18250908  (  +    			ubApp.TubApp(02AB3EE0).DBExecute
20180320 18250908  (  +    				ubApp.TubApp(02AB3EE0).TubApp.InternalDBExecute
20180320 18250908  ( debug 					P1: String(15)	CityReq_desktop
20180320 18250908  ( debug 					P2: Int64		10
20180320 18250908  ( debug 					P3: Int64		10
20180320 18250908  ( debug 					P4: DateTime	9999-12-31T00:00:00
20180320 18250908  ( SQL   					ubDBSQLite3ThreadSafe.TubSQLite3Statement(172844D0) SELECT A01.ID  FROM ubm_desktop A01  WHERE code=? AND (( A01.mi_owner = ? ) OR (1=1) OR exists (select 1 from ubm_desktop_adm admsubtable where admsubtable.instanceID = A01.ID and admsubtable.admSubjID in (select ur.RoleID from uba_userrole ur where ur.UserID = ? union select 10))) AND A01.mi_deleteDate=? LIMIT 1 OFFSET 0 
20180320 18250908  (  -    				00.000.154
20180320 18250908  (  -    			00.000.246
20180320 18250908  ( debug 			Query result for entity "ubm_desktop" into data name "": row count=1
20180320 18250908  (  -    		00.000.262
20180320 18250908  (  -    	00.000.394
20180320 18250908  ( http  	127.0.0.1 <- 200
20180320 18250908  (  -    00.001.020
20180320 18250908  *  +    ubql
20180320 18250908  * http  	127.0.0.1 -> POST ubql
20180320 18250908  * http  	[{"entity":"ubm_navshortcut","method":"select","fieldList":["ID"],"options":{"limit":1},"whereList":{"lookup":{"expression":"code","condition":"equal","values":{"code":"req_departments_folder"}}}}]
20180320 18250908  * auth  	admin/4605689
20180320 18250908  * call  	endpoint ubql
20180320 18250908  *  +    	ubMixinClasses.TubRLSMixin(02B04E20).MixinMethod
20180320 18250908  * debug 		ubm_navshortcut.select(TubRLSMixin)
20180320 18250908  * debug 		Prepare RLS expression for ubm_navshortcut
20180320 18250908  *  -    	00.000.666
20180320 18250908  *  +    	ubMixinClasses.TubStorageMixin(02B042C0).MixinMethod
20180320 18250908  * debug 		ubm_navshortcut.select(TubStorageMixin)
20180320 18250908  *  +    		ubApp.TubDataStore(20DEEE90).Init
20180320 18250908  *  +    			ubApp.TubApp(02AB3EE0).DBExecute
20180320 18250908  *  +    				ubApp.TubApp(02AB3EE0).TubApp.InternalDBExecute
20180320 18250908  * debug 					P1: String(22)	req_departments_folder
20180320 18250908  * debug 					P2: Int64		10
20180320 18250908  * debug 					P3: Int64		10
20180320 18250908  * debug 					P4: DateTime	9999-12-31T00:00:00
20180320 18250908  * SQL   					ubDBSQLite3ThreadSafe.TubSQLite3Statement(172836F0) SELECT A01.ID  FROM ubm_navshortcut A01  WHERE code=? AND (( A01.mi_owner = ? ) OR               (1=1) OR                             exists (select 1 from ubm_navshortcut_adm admsubtable where admsubtable.instanceID = A01.ID and admsubtable.admSubjID in (select ur.RoleID from uba_userrole ur where ur.UserID = ? union select 10))) AND A01.mi_deleteDate=? LIMIT 1 OFFSET 0 
20180320 18250908  *  -    				00.000.027
20180320 18250908  *  -    			00.000.126
20180320 18250908  * debug 			Query result for entity "ubm_navshortcut" into data name "": row count=1
20180320 18250908  *  -    		00.000.141
20180320 18250908  *  -    	00.000.303
20180320 18250908  * http  	127.0.0.1 <- 200
20180320 18250908  *  -    00.001.689
20180320 18250908  1  +    ubql
20180320 18250908  1 http  	127.0.0.1 -> POST ubql
20180320 18250908  1 http  	[{"entity":"ubm_navshortcut","method":"select","fieldList":["ID"],"options":{"limit":1},"whereList":{"lookup":{"expression":"code","condition":"equal","values":{"code":"req_depart"}}}}]
20180320 18250908  1 auth  	admin/4605689
20180320 18250908  1 call  	endpoint ubql
20180320 18250908  1  +    	ubMixinClasses.TubRLSMixin(02B04E20).MixinMethod
20180320 18250908  1 debug 		ubm_navshortcut.select(TubRLSMixin)
20180320 18250908  1 debug 		Prepare RLS expression for ubm_navshortcut
20180320 18250908  1  -    	00.000.224
20180320 18250908  1  +    	ubMixinClasses.TubStorageMixin(02B042C0).MixinMethod
20180320 18250908  1 debug 		ubm_navshortcut.select(TubStorageMixin)
20180320 18250908  1  +    		ubApp.TubDataStore(20DEF660).Init
20180320 18250908  1  +    			ubApp.TubApp(02AB3EE0).DBExecute
20180320 18250908  1  +    				ubApp.TubApp(02AB3EE0).TubApp.InternalDBExecute
20180320 18250908  1 debug 					P1: String(10)	req_depart
20180320 18250908  1 debug 					P2: Int64		10
20180320 18250908  1 debug 					P3: Int64		10
20180320 18250908  1 debug 					P4: DateTime	9999-12-31T00:00:00
20180320 18250908  1 SQL   					ubDBSQLite3ThreadSafe.TubSQLite3Statement(172845F0) SELECT A01.ID  FROM ubm_navshortcut A01  WHERE code=? AND (( A01.mi_owner = ? ) OR               (1=1) OR                             exists (select 1 from ubm_navshortcut_adm admsubtable where admsubtable.instanceID = A01.ID and admsubtable.admSubjID in (select ur.RoleID from uba_userrole ur where ur.UserID = ? union select 10))) AND A01.mi_deleteDate=? LIMIT 1 OFFSET 0 
20180320 18250908  1  -    				00.000.129
20180320 18250908  1  -    			00.000.214
20180320 18250908  1 debug 			Query result for entity "ubm_navshortcut" into data name "": row count=1
20180320 18250908  1  -    		00.000.229
20180320 18250908  1  -    	00.000.340
20180320 18250908  1 http  	127.0.0.1 <- 200
20180320 18250908  1  -    00.001.001
20180320 18250908  '  +    ubql
20180320 18250908  ' http  	127.0.0.1 -> POST ubql
20180320 18250908  ' http  	[{"entity":"ubm_navshortcut","method":"select","fieldList":["ID"],"options":{"limit":1},"whereList":{"lookup":{"expression":"code","condition":"equal","values":{"code":"req_Subdepart"}}}}]
20180320 18250908  ' auth  	admin/4605689
20180320 18250908  ' call  	endpoint ubql
20180320 18250908  '  +    	ubMixinClasses.TubRLSMixin(02B04E20).MixinMethod
20180320 18250908  ' debug 		ubm_navshortcut.select(TubRLSMixin)
20180320 18250908  ' debug 		Prepare RLS expression for ubm_navshortcut
20180320 18250908  '  +    		ubApp.TubDataStore(20E997E0).Init
20180320 18250908  '  +    			ubApp.TubApp(02AB3EE0).DBExecute
20180320 18250908  '  +    				ubApp.TubApp(02AB3EE0).TubApp.InternalDBExecute
20180320 18250908  ' SQL   					ubDBSQLite3ThreadSafe.TubSQLite3Statement(172820D0) select ID, name FROM uba_role
20180320 18250908  '  -    				00.000.053
20180320 18250908  '  -    			00.000.136
20180320 18250908  ' debug 			Query result for entity "uba_role" into data name "": row count=7
20180320 18250908  '  -    		00.000.146
20180320 18250908  '  -    	00.001.190
20180320 18250908  '  +    	ubMixinClasses.TubStorageMixin(02B042C0).MixinMethod
20180320 18250908  ' debug 		ubm_navshortcut.select(TubStorageMixin)
20180320 18250908  '  +    		ubApp.TubDataStore(20DEF930).Init
20180320 18250908  '  +    			ubApp.TubApp(02AB3EE0).DBExecute
20180320 18250908  '  +    				ubApp.TubApp(02AB3EE0).TubApp.InternalDBExecute
20180320 18250908  ' debug 					P1: String(13)	req_Subdepart
20180320 18250908  ' debug 					P2: Int64		10
20180320 18250908  ' debug 					P3: Int64		10
20180320 18250908  ' debug 					P4: DateTime	9999-12-31T00:00:00
20180320 18250908  ' SQL   					ubDBSQLite3ThreadSafe.TubSQLite3Statement(172842F0) SELECT A01.ID  FROM ubm_navshortcut A01  WHERE code=? AND (( A01.mi_owner = ? ) OR               (1=1) OR                             exists (select 1 from ubm_navshortcut_adm admsubtable where admsubtable.instanceID = A01.ID and admsubtable.admSubjID in (select ur.RoleID from uba_userrole ur where ur.UserID = ? union select 10))) AND A01.mi_deleteDate=? LIMIT 1 OFFSET 0 
20180320 18250908  '  -    				00.000.112
20180320 18250908  '  -    			00.000.179
20180320 18250908  ' debug 			Query result for entity "ubm_navshortcut" into data name "": row count=1
20180320 18250908  '  -    		00.000.192
20180320 18250908  '  -    	00.000.316
20180320 18250908  ' http  	127.0.0.1 <- 200
20180320 18250908  '  -    00.001.864
20180320 18250908  +  +    ubql
20180320 18250908  + http  	127.0.0.1 -> POST ubql
20180320 18250908  + http  	[{"entity":"ubm_navshortcut","method":"select","fieldList":["ID"],"options":{"limit":1},"whereList":{"lookup":{"expression":"code","condition":"equal","values":{"code":"req_reqList"}}}}]
20180320 18250908  + auth  	admin/4605689
20180320 18250908  + call  	endpoint ubql
20180320 18250908  +  +    	ubMixinClasses.TubRLSMixin(02B04E20).MixinMethod
20180320 18250908  + debug 		ubm_navshortcut.select(TubRLSMixin)
20180320 18250908  + debug 		Prepare RLS expression for ubm_navshortcut
20180320 18250908  +  -    	00.000.219
20180320 18250908  +  +    	ubMixinClasses.TubStorageMixin(02B042C0).MixinMethod
20180320 18250908  + debug 		ubm_navshortcut.select(TubStorageMixin)
20180320 18250908  +  +    		ubApp.TubDataStore(20DEF6D8).Init
20180320 18250908  +  +    			ubApp.TubApp(02AB3EE0).DBExecute
20180320 18250908  +  +    				ubApp.TubApp(02AB3EE0).TubApp.InternalDBExecute
20180320 18250908  + debug 					P1: String(11)	req_reqList
20180320 18250908  + debug 					P2: Int64		10
20180320 18250908  + debug 					P3: Int64		10
20180320 18250908  + debug 					P4: DateTime	9999-12-31T00:00:00
20180320 18250908  + SQL   					ubDBSQLite3ThreadSafe.TubSQLite3Statement(172847D0) SELECT A01.ID  FROM ubm_navshortcut A01  WHERE code=? AND (( A01.mi_owner = ? ) OR               (1=1) OR                             exists (select 1 from ubm_navshortcut_adm admsubtable where admsubtable.instanceID = A01.ID and admsubtable.admSubjID in (select ur.RoleID from uba_userrole ur where ur.UserID = ? union select 10))) AND A01.mi_deleteDate=? LIMIT 1 OFFSET 0 
20180320 18250908  +  -    				00.000.121
20180320 18250908  +  -    			00.000.200
20180320 18250908  + debug 			Query result for entity "ubm_navshortcut" into data name "": row count=1
20180320 18250908  +  -    		00.000.213
20180320 18250908  +  -    	00.000.325
20180320 18250908  + http  	127.0.0.1 <- 200
20180320 18250908  +  -    00.000.942
20180320 18250908  #  +    ubql
20180320 18250908  # http  	127.0.0.1 -> POST ubql
20180320 18250908  # http  	[{"entity":"ubm_navshortcut","method":"select","fieldList":["ID"],"options":{"limit":1},"whereList":{"lookup":{"expression":"code","condition":"equal","values":{"code":"req_cityRegion"}}}}]
20180320 18250908  # auth  	admin/4605689
20180320 18250908  # call  	endpoint ubql
20180320 18250908  #  +    	ubMixinClasses.TubRLSMixin(02B04E20).MixinMethod
20180320 18250908  # debug 		ubm_navshortcut.select(TubRLSMixin)
20180320 18250908  # debug 		Prepare RLS expression for ubm_navshortcut
20180320 18250908  #  -    	00.000.201
20180320 18250908  #  +    	ubMixinClasses.TubStorageMixin(02B042C0).MixinMethod
20180320 18250908  # debug 		ubm_navshortcut.select(TubStorageMixin)
20180320 18250908  #  +    		ubApp.TubDataStore(20DEC960).Init
20180320 18250908  #  +    			ubApp.TubApp(02AB3EE0).DBExecute
20180320 18250908  #  +    				ubApp.TubApp(02AB3EE0).TubApp.InternalDBExecute
20180320 18250908  # debug 					P1: String(14)	req_cityRegion
20180320 18250908  # debug 					P2: Int64		10
20180320 18250908  # debug 					P3: Int64		10
20180320 18250908  # debug 					P4: DateTime	9999-12-31T00:00:00
20180320 18250908  # SQL   					ubDBSQLite3ThreadSafe.TubSQLite3Statement(17284890) SELECT A01.ID  FROM ubm_navshortcut A01  WHERE code=? AND (( A01.mi_owner = ? ) OR               (1=1) OR                             exists (select 1 from ubm_navshortcut_adm admsubtable where admsubtable.instanceID = A01.ID and admsubtable.admSubjID in (select ur.RoleID from uba_userrole ur where ur.UserID = ? union select 10))) AND A01.mi_deleteDate=? LIMIT 1 OFFSET 0 
20180320 18250908  #  -    				00.000.098
20180320 18250908  #  -    			00.000.155
20180320 18250908  # debug 			Query result for entity "ubm_navshortcut" into data name "": row count=1
20180320 18250908  #  -    		00.000.167
20180320 18250908  #  -    	00.000.260
20180320 18250908  # http  	127.0.0.1 <- 200
20180320 18250908  #  -    00.000.751
20180320 18250913  $  +    ubql
20180320 18250913  $ http  	127.0.0.1 -> POST ubql
20180320 18250913  $ http  	[{"entity":"req_depart","method":"select","fieldList":["ID"],"options":{"limit":1},"whereList":{"c1":{"expression":"[name]","condition":"equal","values":{"c1":"Departments of health"}}}}]
20180320 18250913  $ auth  	admin/4605689
20180320 18250913  $ call  	endpoint ubql
20180320 18250913  $  +    	ubMixinClasses.TubStorageMixin(02B042C0).MixinMethod
20180320 18250913  $ debug 		req_depart.select(TubStorageMixin)
20180320 18250913  $  +    		ubApp.TubDataStore(20DEF688).Init
20180320 18250913  $  +    			ubApp.TubApp(02AB3EE0).DBExecute
20180320 18250913  $  +    				ubApp.TubApp(02AB3EE0).TubApp.InternalDBExecute
20180320 18250913  $ debug 					P1: String(21)	Departments of health
20180320 18250913  $ SQL   					ubDBSQLite3ThreadSafe.TubSQLite3Statement(17284350) SELECT A01.ID  FROM req_depart A01  WHERE A01.name=? LIMIT 1 OFFSET 0 
20180320 18250913  $  -    				00.000.061
20180320 18250913  $  -    			00.000.142
20180320 18250913  $ debug 			Query result for entity "req_depart" into data name "": row count=0
20180320 18250913  $  -    		00.000.153
20180320 18250913  $  -    	00.000.237
20180320 18250913  $ http  	127.0.0.1 <- 200
20180320 18250913  $  -    00.000.568
20180320 18250913  "  +    ubql
20180320 18250913  " http  	127.0.0.1 -> POST ubql
20180320 18250913  " http  	[{"entity":"req_depart","method":"select","fieldList":["ID"],"options":{"limit":1},"whereList":{"c1":{"expression":"[name]","condition":"equal","values":{"c1":"Departments of education"}}}}]
20180320 18250913  " auth  	admin/4605689
20180320 18250913  " call  	endpoint ubql
20180320 18250913  "  +    	ubMixinClasses.TubStorageMixin(02B042C0).MixinMethod
20180320 18250913  " debug 		req_depart.select(TubStorageMixin)
20180320 18250913  "  +    		ubApp.TubDataStore(20DEEE90).Init
20180320 18250913  "  +    			ubApp.TubApp(02AB3EE0).DBExecute
20180320 18250913  "  +    				ubApp.TubApp(02AB3EE0).TubApp.InternalDBExecute
20180320 18250913  " debug 					P1: String(24)	Departments of education
20180320 18250913  " SQL   					ubDBSQLite3ThreadSafe.TubSQLite3Statement(17284950) SELECT A01.ID  FROM req_depart A01  WHERE A01.name=? LIMIT 1 OFFSET 0 
20180320 18250913  "  -    				00.000.035
20180320 18250913  "  -    			00.000.093
20180320 18250913  " debug 			Query result for entity "req_depart" into data name "": row count=0
20180320 18250913  "  -    		00.000.102
20180320 18250913  "  -    	00.000.155
20180320 18250913  " http  	127.0.0.1 <- 200
20180320 18250913  "  -    00.000.420
20180320 18250913  0  +    ubql
20180320 18250913  0 http  	127.0.0.1 -> POST ubql
20180320 18250913  0 http  	[{"entity":"req_depart","method":"addnew","fieldList":["ID"],"__nativeDatasetFormat":true}]
20180320 18250913  0 auth  	admin/4605689
20180320 18250913  0 call  	endpoint ubql
20180320 18250913  0  +    	ubMixinClasses.TubStorageMixin(02B042C0).MixinMethod
20180320 18250913  0 debug 		req_depart.addnew(TubStorageMixin)
20180320 18250913  0  -    	00.000.016
20180320 18250913  0 http  	127.0.0.1 <- 200
20180320 18250913  0  -    00.000.451
20180320 18250913  ,  +    ubql
20180320 18250913  , http  	127.0.0.1 -> POST ubql
20180320 18250913  , http  	[{"entity":"req_depart","method":"insert","execParams":{"ID":335498487922690,"name":"Departments of health","postAddr":"addr1","phoneNum":"phone1"}}]
20180320 18250913  , auth  	admin/4605689
20180320 18250913  , call  	endpoint ubql
20180320 18250913  ,  +    	ubMixinClasses.TubStorageMixin(02B042C0).MixinMethod
20180320 18250913  , debug 		req_depart.beforeinsert(TubStorageMixin)
20180320 18250913  ,  -    	00.000.003
20180320 18250913  ,  +    	ubMixinClasses.TubStorageMixin(02B042C0).MixinMethod
20180320 18250913  , debug 		req_depart.insert(TubStorageMixin)
20180320 18250913  ,  +    		ubApp.TubDataStore(071CDE28).TubDataStore.ExecuteInsertFromList
20180320 18250913  ,  +    			ubApp.TubDataStore(071CDE28).TubDataStore.ExecuteInsertFromSQL
20180320 18250913  ,  +    				ubApp.TubApp(02AB3EE0).DBExecute
20180320 18250913  ,  +    					ubApp.TubApp(02AB3EE0).TubApp.InternalDBExecute
20180320 18250913  , debug 						P1: Int64		335498487922690
20180320 18250913  , debug 						P2: String(21)	Departments of health
20180320 18250913  , debug 						P3: String(5)	addr1
20180320 18250913  , debug 						P4: String(6)	phone1
20180320 18250913  , DB    						StartTransaction for connection "main"
20180320 18250913  , SQL   						ubDBSQLite3ThreadSafe.TubSQLite3Statement(17284290) INSERT INTO req_depart (ID,name,postAddr,phoneNum) VALUES (?,?,?,?)
20180320 18250913  ,  -    					00.000.124
20180320 18250913  ,  -    				00.000.126
20180320 18250913  ,  -    			00.000.191
20180320 18250913  ,  -    		00.000.202
20180320 18250913  ,  -    	00.000.206
20180320 18250913  ,  +    	ubMixinClasses.TubStorageMixin(02B042C0).MixinMethod
20180320 18250913  , debug 		req_depart.afterinsert(TubStorageMixin)
20180320 18250913  ,  -    	00.000.003
20180320 18250913  ,  +    	ubMixinClasses.TubAuditMixin(02B04F70).MixinMethod
20180320 18250913  , debug 		req_depart.afterinsert(TubAuditMixin)
20180320 18250913  ,  +    		ubApp.TubDataStore(20DEF228).TubDataStore.ExecuteInsertFromSQL
20180320 18250913  ,  +    			ubApp.TubApp(02AB3EE0).DBExecute
20180320 18250913  ,  +    				ubApp.TubApp(02AB3EE0).TubApp.InternalDBExecute
20180320 18250913  , debug 					P1: Int64		335498487922691
20180320 18250913  , debug 					P2: String(10)	req_depart
20180320 18250913  , debug 					P3: Int64		335498487922690
20180320 18250913  , debug 					P4: String(6)	INSERT
20180320 18250913  , debug 					P5: Int64		10
20180320 18250913  , debug 					P6: DateTime	2018-03-20T18:25:09
20180320 18250913  , debug 					P7: String(9)	127.0.0.1
20180320 18250913  , debug 					P8: Int64		335498487922690
20180320 18250913  , debug 					P9: String(92)	{"ID":335498487922690,"name":"Departments of health","postAddr":"addr1","phoneNum":"phone1"}
20180320 18250913  , SQL   					ubDBSQLite3ThreadSafe.TubSQLite3Statement(17284590) INSERT INTO uba_auditTrail (ID,entity,entityinfo_id,actionType,actionUser,actionTime,remoteIP,parentEntityInfo_id,toValue) VALUES (?,?,?,?,?,?,?,?,?)
20180320 18250913  ,  -    				00.000.099
20180320 18250913  ,  -    			00.000.102
20180320 18250913  ,  -    		00.000.192
20180320 18250913  ,  -    	00.000.216
20180320 18250913  , DB    	Commit connection "main" in 136us
20180320 18250913  , http  	127.0.0.1 <- 200
20180320 18250913  ,  -    00.000.946
20180320 18250913  .  +    ubql
20180320 18250913  . http  	127.0.0.1 -> POST ubql
20180320 18250913  . http  	[{"entity":"req_depart","method":"addnew","fieldList":["ID"],"__nativeDatasetFormat":true}]
20180320 18250913  . auth  	admin/4605689
20180320 18250913  . call  	endpoint ubql
20180320 18250913  .  +    	ubMixinClasses.TubStorageMixin(02B042C0).MixinMethod
20180320 18250913  . debug 		req_depart.addnew(TubStorageMixin)
20180320 18250913  .  -    	00.000.013
20180320 18250913  . http  	127.0.0.1 <- 200
20180320 18250913  .  -    00.000.361
20180320 18250913  %  +    ubql
20180320 18250913  % http  	127.0.0.1 -> POST ubql
20180320 18250913  % http  	[{"entity":"req_depart","method":"insert","execParams":{"ID":335498487922692,"name":"Departments of education","postAddr":"addr2","phoneNum":"phone2"}}]
20180320 18250913  % auth  	admin/4605689
20180320 18250913  % call  	endpoint ubql
20180320 18250913  %  +    	ubMixinClasses.TubStorageMixin(02B042C0).MixinMethod
20180320 18250913  % debug 		req_depart.beforeinsert(TubStorageMixin)
20180320 18250913  %  -    	00.000.003
20180320 18250913  %  +    	ubMixinClasses.TubStorageMixin(02B042C0).MixinMethod
20180320 18250913  % debug 		req_depart.insert(TubStorageMixin)
20180320 18250913  %  +    		ubApp.TubDataStore(07229D08).TubDataStore.ExecuteInsertFromList
20180320 18250913  %  +    			ubApp.TubDataStore(07229D08).TubDataStore.ExecuteInsertFromSQL
20180320 18250913  %  +    				ubApp.TubApp(02AB3EE0).DBExecute
20180320 18250913  %  +    					ubApp.TubApp(02AB3EE0).TubApp.InternalDBExecute
20180320 18250913  % debug 						P1: Int64		335498487922692
20180320 18250913  % debug 						P2: String(24)	Departments of education
20180320 18250913  % debug 						P3: String(5)	addr2
20180320 18250913  % debug 						P4: String(6)	phone2
20180320 18250913  % DB    						StartTransaction for connection "main"
20180320 18250913  % SQL   						ubDBSQLite3ThreadSafe.TubSQLite3Statement(17284A10) INSERT INTO req_depart (ID,name,postAddr,phoneNum) VALUES (?,?,?,?)
20180320 18250913  %  -    					00.000.098
20180320 18250913  %  -    				00.000.100
20180320 18250913  %  -    			00.000.158
20180320 18250913  %  -    		00.000.169
20180320 18250913  %  -    	00.000.172
20180320 18250913  %  +    	ubMixinClasses.TubStorageMixin(02B042C0).MixinMethod
20180320 18250913  % debug 		req_depart.afterinsert(TubStorageMixin)
20180320 18250913  %  -    	00.000.004
20180320 18250913  %  +    	ubMixinClasses.TubAuditMixin(02B04F70).MixinMethod
20180320 18250913  % debug 		req_depart.afterinsert(TubAuditMixin)
20180320 18250913  %  +    		ubApp.TubDataStore(20DEF188).TubDataStore.ExecuteInsertFromSQL
20180320 18250913  %  +    			ubApp.TubApp(02AB3EE0).DBExecute
20180320 18250913  %  +    				ubApp.TubApp(02AB3EE0).TubApp.InternalDBExecute
20180320 18250913  % debug 					P1: Int64		335498487922693
20180320 18250913  % debug 					P2: String(10)	req_depart
20180320 18250913  % debug 					P3: Int64		335498487922692
20180320 18250913  % debug 					P4: String(6)	INSERT
20180320 18250913  % debug 					P5: Int64		10
20180320 18250913  % debug 					P6: DateTime	2018-03-20T18:25:09
20180320 18250913  % debug 					P7: String(9)	127.0.0.1
20180320 18250913  % debug 					P8: Int64		335498487922692
20180320 18250913  % debug 					P9: String(95)	{"ID":335498487922692,"name":"Departments of education","postAddr":"addr2","phoneNum":"phone2"}
20180320 18250913  % SQL   					ubDBSQLite3ThreadSafe.TubSQLite3Statement(17284B30) INSERT INTO uba_auditTrail (ID,entity,entityinfo_id,actionType,actionUser,actionTime,remoteIP,parentEntityInfo_id,toValue) VALUES (?,?,?,?,?,?,?,?,?)
20180320 18250913  %  -    				00.000.095
20180320 18250913  %  -    			00.000.097
20180320 18250913  %  -    		00.000.181
20180320 18250913  %  -    	00.000.205
20180320 18250913  % DB    	Commit connection "main" in 330us
20180320 18250913  % http  	127.0.0.1 <- 200
20180320 18250913  %  -    00.001.091
20180320 18250913  )  +    logout
20180320 18250913  ) http  	127.0.0.1 -> POST logout
20180320 18250913  ) auth  	admin/4605689
20180320 18250913  ) call  	endpoint logout
20180320 18250913  ) auth  	Session closed admin/4605689/127.0.0.1
20180320 18250913  ) http  	127.0.0.1 <- 200
20180320 18250913  )  -    00.000.282
20180320 18263543  /  +    getAppInfo
20180320 18263543  / http  	127.0.0.1 -> GET getAppInfo
20180320 18263543  / call  	endpoint getAppInfo
20180320 18263543  / http  	127.0.0.1 <- 200
20180320 18263543  /  -    00.000.390
20180320 18263543  &  +    getAppInfo
20180320 18263543  & http  	127.0.0.1 -> GET getAppInfo
20180320 18263543  & call  	endpoint getAppInfo
20180320 18263543  & http  	127.0.0.1 <- 200
20180320 18263543  &  -    00.000.401
20180320 18263543  -  +    auth?AUTHTYPE=UB&userName=admin
20180320 18263543  - http  	127.0.0.1 -> GET auth?AUTHTYPE=UB&userName=admin
20180320 18263543  - call  	endpoint auth
20180320 18263543  - http  	127.0.0.1 <- 200
20180320 18263543  -  -    00.000.199
20180320 18263543  (  +    auth?AUTHTYPE=UB&clientNonce=73cfef4edba175e5aa85322a71fc4d6133acd91122b999686d727db36b966927&password=65767f6c7cd182173b10214446a612ad2fde55cf21b9871c4708f6b042a20172&userName=admin
20180320 18263543  ( http  	127.0.0.1 -> GET auth?AUTHTYPE=UB&clientNonce=73cfef4edba175e5aa85322a71fc4d6133acd91122b999686d727db36b966927&password=65767f6c7cd182173b10214446a612ad2fde55cf21b9871c4708f6b042a20172&userName=admin
20180320 18263543  ( call  	endpoint auth
20180320 18263543  (  +    	ubApp.TubDataStore(04B9CC60).Init
20180320 18263543  (  +    		ubApp.TubApp(02AB3EE0).DBExecute
20180320 18263543  (  +    			ubApp.TubApp(02AB3EE0).TubApp.InternalDBExecute
20180320 18263543  ( debug 				P1: String(5)	admin
20180320 18263543  ( SQL   				ubDBSQLite3ThreadSafe.TubSQLite3Statement(17283D50) select id, name, uPasswordHashHexa, uData, isPending, trustedIP from UBA_USER where name=? and disabled=0
20180320 18263543  (  -    			00.000.114
20180320 18263543  (  -    		00.000.244
20180320 18263543  ( debug 		Query result for entity "uba_user" into data name "": row count=1
20180320 18263543  (  -    	00.000.272
20180320 18263543  (  +    	ubApp.TubDataStore(04B9CC60).Init
20180320 18263543  (  +    		ubApp.TubApp(02AB3EE0).DBExecute
20180320 18263543  (  +    			ubApp.TubApp(02AB3EE0).TubApp.InternalDBExecute
20180320 18263543  ( debug 				P1: Int64		10
20180320 18263543  ( SQL   				ubDBSQLite3ThreadSafe.TubSQLite3Statement(172846B0) SELECT lastPasswordChangeDate FROM uba_user WHERE id=?
20180320 18263543  (  -    			00.000.027
20180320 18263543  (  -    		00.000.056
20180320 18263543  ( debug 		Query result for entity "uba_user" into data name "__expireDate": row count=1
20180320 18263543  (  -    	00.000.067
20180320 18263543  (  +    	ubApp.TubDataStore(07229D08).Init
20180320 18263543  (  +    		ubApp.TubApp(02AB3EE0).DBExecute
20180320 18263543  (  +    			ubApp.TubApp(02AB3EE0).TubApp.InternalDBExecute
20180320 18263543  ( debug 				P1: Int64		10
20180320 18263543  ( SQL   				ubDBSQLite3ThreadSafe.TubSQLite3Statement(17284C50) SELECT A01.roleID,A02.name,A02.description  FROM uba_userrole A01  INNER JOIN uba_role A02 ON A02.ID=A01.roleID  WHERE A01.userID=?
20180320 18263543  (  -    			00.000.058
20180320 18263543  (  -    		00.000.106
20180320 18263543  ( debug 		Query result for entity "uba_userrole" into data name "": row count=1
20180320 18263543  (  -    	00.000.119
20180320 18263543  ( auth  	New session admin/4605688 created at 127.0.0.1/-288230357361229741 using Mozilla/5.0 (Windows; mORMot 1.18 TWinHTTP)
20180320 18263543  (  +    	ubMixinClasses.TubStorageMixin(02B042C0).MixinMethod
20180320 18263543  ( debug 		uba_user.select(TubStorageMixin)
20180320 18263543  (  +    		ubApp.TubDataStore(07229D08).Init
20180320 18263543  (  +    			ubApp.TubApp(02AB3EE0).DBExecute
20180320 18263543  (  +    				ubApp.TubApp(02AB3EE0).TubApp.InternalDBExecute
20180320 18263543  ( debug 					P1: Int64		10
20180320 18263543  ( SQL   					ubDBSQLite3ThreadSafe.TubSQLite3Statement(17284D70) SELECT A01.name  FROM uba_user A01  WHERE A01.ID=?
20180320 18263543  (  -    				00.000.043
20180320 18263543  (  -    			00.000.077
20180320 18263543  ( debug 			Query result for entity "uba_user" into data name "": row count=1
20180320 18263543  (  -    		00.000.087
20180320 18263543  (  -    	00.000.163
20180320 18263543  (  +    	ubMixinClasses.TubStorageMixin(02B042C0).MixinMethod
20180320 18263543  ( debug 		uba_advSecurity.select(TubStorageMixin)
20180320 18263543  (  +    		ubApp.TubDataStore(07229D08).Init
20180320 18263543  (  +    			ubApp.TubApp(02AB3EE0).DBExecute
20180320 18263543  (  +    				ubApp.TubApp(02AB3EE0).TubApp.InternalDBExecute
20180320 18263543  ( debug 					P1: Int64		10
20180320 18263543  ( SQL   					ubDBSQLite3ThreadSafe.TubSQLite3Statement(17284DD0) SELECT A01.ID,A01.allowedIP,A01.refreshIP,A01.fp,A01.refreshFp,A01.keyMediaName,A01.refreshKeyMedia,A01.mi_modifyDate  FROM uba_advSecurity A01  WHERE A01.userID=?
20180320 18263543  (  -    				00.000.048
20180320 18263543  (  -    			00.000.083
20180320 18263543  ( debug 			Query result for entity "uba_advSecurity" into data name "": row count=0
20180320 18263543  (  -    		00.000.092
20180320 18263543  (  -    	00.000.189
20180320 18263543  (  +    	ubMixinClasses.TubStorageMixin(02B042C0).MixinMethod
20180320 18263543  ( debug 		uba_userrole.select(TubStorageMixin)
20180320 18263543  (  +    		ubApp.TubDataStore(07229D08).Init
20180320 18263543  (  +    			ubApp.TubApp(02AB3EE0).DBExecute
20180320 18263543  (  +    				ubApp.TubApp(02AB3EE0).TubApp.InternalDBExecute
20180320 18263543  ( debug 					P1: Int64		10
20180320 18263543  ( SQL   					ubDBSQLite3ThreadSafe.TubSQLite3Statement(17284E90) SELECT A01.ID,A02.name,A01.roleID  FROM uba_userrole A01  INNER JOIN uba_role A02 ON A02.ID=A01.roleID  WHERE A01.userID=?
20180320 18263543  (  -    				00.000.053
20180320 18263543  (  -    			00.000.095
20180320 18263543  ( debug 			Query result for entity "uba_userrole" into data name "": row count=1
20180320 18263543  (  -    		00.000.104
20180320 18263543  (  -    	00.000.176
20180320 18263543  (  +    	ubMixinClasses.TubStorageMixin(02B042C0).MixinMethod
20180320 18263543  ( debug 		uba_audit.beforeinsert(TubStorageMixin)
20180320 18263543  (  -    	00.000.006
20180320 18263543  (  +    	ubMixinClasses.TubStorageMixin(02B042C0).MixinMethod
20180320 18263543  ( debug 		uba_audit.insert(TubStorageMixin)
20180320 18263543  (  +    		ubApp.TubDataStore(07227120).TubDataStore.ExecuteInsertFromList
20180320 18263543  (  +    			ubApp.TubDataStore(07227120).TubDataStore.ExecuteInsertFromSQL
20180320 18263543  (  +    				ubApp.TubApp(02AB3EE0).DBExecute
20180320 18263543  (  +    					ubApp.TubApp(02AB3EE0).TubApp.InternalDBExecute
20180320 18263543  ( debug 						P1: String(8)	uba_user
20180320 18263543  ( debug 						P2: Int64		10
20180320 18263543  ( debug 						P3: String(5)	LOGIN
20180320 18263543  ( debug 						P4: Int64		10
20180320 18263543  ( debug 						P5: DateTime	2018-03-20T18:26:35
20180320 18263543  ( debug 						P6: String(9)	127.0.0.1
20180320 18263543  ( debug 						P7: String(5)	admin
20180320 18263543  ( debug 						P8: Int64		335498498998273
20180320 18263543  ( debug 						P9: String(202..)	Cache-Control: no-cache  Connection: Keep-Alive  Pragma: no-cache  Accept: */*  Accept-Encoding: gzi...
20180320 18263543  ( DB    						StartTransaction for connection "main"
20180320 18263543  ( SQL   						ubDBSQLite3ThreadSafe.TubSQLite3Statement(17284F50) INSERT INTO uba_audit (entity,entityinfo_id,actionType,actionUser,actionTime,remoteIP,targetUser,ID,fromValue) VALUES (?,?,?,?,?,?,?,?,?)
20180320 18263543  (  -    					00.000.111
20180320 18263543  (  -    				00.000.113
20180320 18263543  (  -    			00.000.202
20180320 18263543  (  -    		00.000.215
20180320 18263543  (  -    	00.000.219
20180320 18263543  (  +    	ubMixinClasses.TubStorageMixin(02B042C0).MixinMethod
20180320 18263543  ( debug 		uba_audit.afterinsert(TubStorageMixin)
20180320 18263543  (  -    	00.000.003
20180320 18263543  ( DB    	Commit connection "main"
20180320 18263543  ( http  	127.0.0.1 <- 200
20180320 18263543  (  -    00.005.714
20180320 18263543  *  +    getDomainInfo?extended=true&userName=admin&v=4
20180320 18263543  * http  	127.0.0.1 -> GET getDomainInfo?extended=true&userName=admin&v=4
20180320 18263543  * auth  	admin/4605688
20180320 18263543  * call  	endpoint getDomainInfo
20180320 18263543  * http  	127.0.0.1 <- 200
20180320 18263543  *  -    00.004.097
20180320 18263555  1  +    runSQL?CONNECTION=main
20180320 18263555  1 http  	127.0.0.1 -> POST runSQL?CONNECTION=main
20180320 18263555  1 http  	select name, tbl_name as caption from sqlite_master where type='table' and name not like 'sqlite_%'
20180320 18263555  1 auth  	admin/4605688
20180320 18263555  1 call  	endpoint runSQL
20180320 18263555  1  +    	ubApp.TubApp(02AB3EE0).DBExecute
20180320 18263555  1  +    		ubApp.TubApp(02AB3EE0).TubApp.InternalDBExecute
20180320 18263555  1 SQL   			ubDBSQLite3ThreadSafe.TubSQLite3Statement(17284CB0) select name, tbl_name as caption from sqlite_master where type='table' and name not like 'sqlite_%'
20180320 18263555  1  -    		00.000.069
20180320 18263555  1  -    	00.000.246
20180320 18263555  1 http  	127.0.0.1 <- 200
20180320 18263555  1  -    00.000.453
20180320 18263555  '  +    runSQL?CONNECTION=main
20180320 18263555  ' http  	127.0.0.1 -> POST runSQL?CONNECTION=main
20180320 18263555  ' http  	PRAGMA table_info('uba_user')
20180320 18263555  ' auth  	admin/4605688
20180320 18263555  ' call  	endpoint runSQL
20180320 18263555  '  +    	ubApp.TubApp(02AB3EE0).DBExecute
20180320 18263555  '  +    		ubApp.TubApp(02AB3EE0).TubApp.InternalDBExecute
20180320 18263555  ' SQL   			ubDBSQLite3ThreadSafe.TubSQLite3Statement(17284CB0) PRAGMA table_info('uba_user')
20180320 18263555  '  -    		00.000.037
20180320 18263555  '  -    	00.000.106
20180320 18263555  ' http  	127.0.0.1 <- 200
20180320 18263555  '  -    00.000.302
20180320 18263555  +  +    runSQL?CONNECTION=main
20180320 18263555  + http  	127.0.0.1 -> POST runSQL?CONNECTION=main
20180320 18263555  + http  	PRAGMA foreign_key_list('uba_user')
20180320 18263555  + auth  	admin/4605688
20180320 18263555  + call  	endpoint runSQL
20180320 18263555  +  +    	ubApp.TubApp(02AB3EE0).DBExecute
20180320 18263555  +  +    		ubApp.TubApp(02AB3EE0).TubApp.InternalDBExecute
20180320 18263555  + SQL   			ubDBSQLite3ThreadSafe.TubSQLite3Statement(17284CB0) PRAGMA foreign_key_list('uba_user')
20180320 18263555  +  -    		00.000.027
20180320 18263555  +  -    	00.000.080
20180320 18263555  + http  	127.0.0.1 <- 200
20180320 18263555  +  -    00.000.295
20180320 18263555  #  +    runSQL?CONNECTION=main
20180320 18263555  # http  	127.0.0.1 -> POST runSQL?CONNECTION=main
20180320 18263555  # http  	PRAGMA index_list('uba_user')
20180320 18263555  # auth  	admin/4605688
20180320 18263555  # call  	endpoint runSQL
20180320 18263555  #  +    	ubApp.TubApp(02AB3EE0).DBExecute
20180320 18263555  #  +    		ubApp.TubApp(02AB3EE0).TubApp.InternalDBExecute
20180320 18263555  # SQL   			ubDBSQLite3ThreadSafe.TubSQLite3Statement(17284CB0) PRAGMA index_list('uba_user')
20180320 18263555  #  -    		00.000.021
20180320 18263555  #  -    	00.000.071
20180320 18263555  # http  	127.0.0.1 <- 200
20180320 18263555  #  -    00.000.248
20180320 18263555  $  +    runSQL?CONNECTION=main
20180320 18263555  $ http  	127.0.0.1 -> POST runSQL?CONNECTION=main
20180320 18263555  $ http  	PRAGMA index_xinfo(IDX_USR_MI_MODIFYUSER)
20180320 18263555  $ auth  	admin/4605688
20180320 18263555  $ call  	endpoint runSQL
20180320 18263555  $  +    	ubApp.TubApp(02AB3EE0).DBExecute
20180320 18263555  $  +    		ubApp.TubApp(02AB3EE0).TubApp.InternalDBExecute
20180320 18263555  $ SQL   			ubDBSQLite3ThreadSafe.TubSQLite3Statement(17284CB0) PRAGMA index_xinfo(IDX_USR_MI_MODIFYUSER)
20180320 18263555  $  -    		00.000.021
20180320 18263555  $  -    	00.000.065
20180320 18263555  $ http  	127.0.0.1 <- 200
20180320 18263555  $  -    00.000.245
20180320 18263556  "  +    runSQL?CONNECTION=main
20180320 18263556  " http  	127.0.0.1 -> POST runSQL?CONNECTION=main
20180320 18263556  " http  	PRAGMA index_xinfo(IDX_USR_MI_CREATEUSER)
20180320 18263556  " auth  	admin/4605688
20180320 18263556  " call  	endpoint runSQL
20180320 18263556  "  +    	ubApp.TubApp(02AB3EE0).DBExecute
20180320 18263556  "  +    		ubApp.TubApp(02AB3EE0).TubApp.InternalDBExecute
20180320 18263556  " SQL   			ubDBSQLite3ThreadSafe.TubSQLite3Statement(17284CB0) PRAGMA index_xinfo(IDX_USR_MI_CREATEUSER)
20180320 18263556  "  -    		00.000.020
20180320 18263556  "  -    	00.000.066
20180320 18263556  " http  	127.0.0.1 <- 200
20180320 18263556  "  -    00.000.240
20180320 18263556  0  +    runSQL?CONNECTION=main
20180320 18263556  0 http  	127.0.0.1 -> POST runSQL?CONNECTION=main
20180320 18263556  0 http  	PRAGMA index_xinfo(IDX_USR_MI_OWNER)
20180320 18263556  0 auth  	admin/4605688
20180320 18263556  0 call  	endpoint runSQL
20180320 18263556  0  +    	ubApp.TubApp(02AB3EE0).DBExecute
20180320 18263556  0  +    		ubApp.TubApp(02AB3EE0).TubApp.InternalDBExecute
20180320 18263556  0 SQL   			ubDBSQLite3ThreadSafe.TubSQLite3Statement(17284CB0) PRAGMA index_xinfo(IDX_USR_MI_OWNER)
20180320 18263556  0  -    		00.000.020
20180320 18263556  0  -    	00.000.062
20180320 18263556  0 http  	127.0.0.1 <- 200
20180320 18263556  0  -    00.000.233
20180320 18263556  ,  +    runSQL?CONNECTION=main
20180320 18263556  , http  	127.0.0.1 -> POST runSQL?CONNECTION=main
20180320 18263556  , http  	PRAGMA index_xinfo(UIDX_USR_NAME)
20180320 18263556  , auth  	admin/4605688
20180320 18263556  , call  	endpoint runSQL
20180320 18263556  ,  +    	ubApp.TubApp(02AB3EE0).DBExecute
20180320 18263556  ,  +    		ubApp.TubApp(02AB3EE0).TubApp.InternalDBExecute
20180320 18263556  , SQL   			ubDBSQLite3ThreadSafe.TubSQLite3Statement(17284CB0) PRAGMA index_xinfo(UIDX_USR_NAME)
20180320 18263556  ,  -    		00.000.025
20180320 18263556  ,  -    	00.000.075
20180320 18263556  , http  	127.0.0.1 <- 200
20180320 18263556  ,  -    00.000.388
20180320 18263556  .  +    runSQL?CONNECTION=main
20180320 18263556  . http  	127.0.0.1 -> POST runSQL?CONNECTION=main
20180320 18263556  . http  	PRAGMA table_info('uba_role')
20180320 18263556  . auth  	admin/4605688
20180320 18263556  . call  	endpoint runSQL
20180320 18263556  .  +    	ubApp.TubApp(02AB3EE0).DBExecute
20180320 18263556  .  +    		ubApp.TubApp(02AB3EE0).TubApp.InternalDBExecute
20180320 18263556  . SQL   			ubDBSQLite3ThreadSafe.TubSQLite3Statement(17284CB0) PRAGMA table_info('uba_role')
20180320 18263556  .  -    		00.000.044
20180320 18263556  .  -    	00.000.121
20180320 18263556  . http  	127.0.0.1 <- 200
20180320 18263556  .  -    00.000.330
20180320 18263556  %  +    runSQL?CONNECTION=main
20180320 18263556  % http  	127.0.0.1 -> POST runSQL?CONNECTION=main
20180320 18263556  % http  	PRAGMA foreign_key_list('uba_role')
20180320 18263556  % auth  	admin/4605688
20180320 18263556  % call  	endpoint runSQL
20180320 18263556  %  +    	ubApp.TubApp(02AB3EE0).DBExecute
20180320 18263556  %  +    		ubApp.TubApp(02AB3EE0).TubApp.InternalDBExecute
20180320 18263556  % SQL   			ubDBSQLite3ThreadSafe.TubSQLite3Statement(17284CB0) PRAGMA foreign_key_list('uba_role')
20180320 18263556  %  -    		00.000.024
20180320 18263556  %  -    	00.000.095
20180320 18263556  % http  	127.0.0.1 <- 200
20180320 18263556  %  -    00.000.390
20180320 18263556  )  +    runSQL?CONNECTION=main
20180320 18263556  ) http  	127.0.0.1 -> POST runSQL?CONNECTION=main
20180320 18263556  ) http  	PRAGMA index_list('uba_role')
20180320 18263556  ) auth  	admin/4605688
20180320 18263556  ) call  	endpoint runSQL
20180320 18263556  )  +    	ubApp.TubApp(02AB3EE0).DBExecute
20180320 18263556  )  +    		ubApp.TubApp(02AB3EE0).TubApp.InternalDBExecute
20180320 18263556  ) SQL   			ubDBSQLite3ThreadSafe.TubSQLite3Statement(17284CB0) PRAGMA index_list('uba_role')
20180320 18263556  )  -    		00.000.024
20180320 18263556  )  -    	00.000.087
20180320 18263556  ) http  	127.0.0.1 <- 200
20180320 18263556  )  -    00.000.281
20180320 18263556  /  +    runSQL?CONNECTION=main
20180320 18263556  / http  	127.0.0.1 -> POST runSQL?CONNECTION=main
20180320 18263556  / http  	PRAGMA index_xinfo(IDX_ROLE_MI_MODIFYUSER)
20180320 18263556  / auth  	admin/4605688
20180320 18263556  / call  	endpoint runSQL
20180320 18263556  /  +    	ubApp.TubApp(02AB3EE0).DBExecute
20180320 18263556  /  +    		ubApp.TubApp(02AB3EE0).TubApp.InternalDBExecute
20180320 18263556  / SQL   			ubDBSQLite3ThreadSafe.TubSQLite3Statement(17284CB0) PRAGMA index_xinfo(IDX_ROLE_MI_MODIFYUSER)
20180320 18263556  /  -    		00.000.028
20180320 18263556  /  -    	00.000.086
20180320 18263556  / http  	127.0.0.1 <- 200
20180320 18263556  /  -    00.000.244
20180320 18263556  &  +    runSQL?CONNECTION=main
20180320 18263556  & http  	127.0.0.1 -> POST runSQL?CONNECTION=main
20180320 18263556  & http  	PRAGMA index_xinfo(IDX_ROLE_MI_CREATEUSER)
20180320 18263556  & auth  	admin/4605688
20180320 18263556  & call  	endpoint runSQL
20180320 18263556  &  +    	ubApp.TubApp(02AB3EE0).DBExecute
20180320 18263556  &  +    		ubApp.TubApp(02AB3EE0).TubApp.InternalDBExecute
20180320 18263556  & SQL   			ubDBSQLite3ThreadSafe.TubSQLite3Statement(17284CB0) PRAGMA index_xinfo(IDX_ROLE_MI_CREATEUSER)
20180320 18263556  &  -    		00.000.021
20180320 18263556  &  -    	00.000.065
20180320 18263556  & http  	127.0.0.1 <- 200
20180320 18263556  &  -    00.000.285
20180320 18263556  -  +    runSQL?CONNECTION=main
20180320 18263556  - http  	127.0.0.1 -> POST runSQL?CONNECTION=main
20180320 18263556  - http  	PRAGMA index_xinfo(IDX_ROLE_MI_OWNER)
20180320 18263556  - auth  	admin/4605688
20180320 18263556  - call  	endpoint runSQL
20180320 18263556  -  +    	ubApp.TubApp(02AB3EE0).DBExecute
20180320 18263556  -  +    		ubApp.TubApp(02AB3EE0).TubApp.InternalDBExecute
20180320 18263556  - SQL   			ubDBSQLite3ThreadSafe.TubSQLite3Statement(17284CB0) PRAGMA index_xinfo(IDX_ROLE_MI_OWNER)
20180320 18263556  -  -    		00.000.019
20180320 18263556  -  -    	00.000.065
20180320 18263556  - http  	127.0.0.1 <- 200
20180320 18263556  -  -    00.000.192
20180320 18263556  (  +    runSQL?CONNECTION=main
20180320 18263556  ( http  	127.0.0.1 -> POST runSQL?CONNECTION=main
20180320 18263556  ( http  	PRAGMA index_xinfo(UIDX_ROLE_NAME)
20180320 18263556  ( auth  	admin/4605688
20180320 18263556  ( call  	endpoint runSQL
20180320 18263556  (  +    	ubApp.TubApp(02AB3EE0).DBExecute
20180320 18263556  (  +    		ubApp.TubApp(02AB3EE0).TubApp.InternalDBExecute
20180320 18263556  ( SQL   			ubDBSQLite3ThreadSafe.TubSQLite3Statement(17284CB0) PRAGMA index_xinfo(UIDX_ROLE_NAME)
20180320 18263556  (  -    		00.000.019
20180320 18263556  (  -    	00.000.049
20180320 18263556  ( http  	127.0.0.1 <- 200
20180320 18263556  (  -    00.000.172
20180320 18263556  *  +    runSQL?CONNECTION=main
20180320 18263556  * http  	127.0.0.1 -> POST runSQL?CONNECTION=main
20180320 18263556  * http  	PRAGMA table_info('uba_els')
20180320 18263556  * auth  	admin/4605688
20180320 18263556  * call  	endpoint runSQL
20180320 18263556  *  +    	ubApp.TubApp(02AB3EE0).DBExecute
20180320 18263556  *  +    		ubApp.TubApp(02AB3EE0).TubApp.InternalDBExecute
20180320 18263556  * SQL   			ubDBSQLite3ThreadSafe.TubSQLite3Statement(17284CB0) PRAGMA table_info('uba_els')
20180320 18263556  *  -    		00.000.025
20180320 18263556  *  -    	00.000.100
20180320 18263556  * http  	127.0.0.1 <- 200
20180320 18263556  *  -    00.000.220
20180320 18263556  1  +    runSQL?CONNECTION=main
20180320 18263556  1 http  	127.0.0.1 -> POST runSQL?CONNECTION=main
20180320 18263556  1 http  	PRAGMA foreign_key_list('uba_els')
20180320 18263556  1 auth  	admin/4605688
20180320 18263556  1 call  	endpoint runSQL
20180320 18263556  1  +    	ubApp.TubApp(02AB3EE0).DBExecute
20180320 18263556  1  +    		ubApp.TubApp(02AB3EE0).TubApp.InternalDBExecute
20180320 18263556  1 SQL   			ubDBSQLite3ThreadSafe.TubSQLite3Statement(17284CB0) PRAGMA foreign_key_list('uba_els')
20180320 18263556  1  -    		00.000.022
20180320 18263556  1  -    	00.000.054
20180320 18263556  1 http  	127.0.0.1 <- 200
20180320 18263556  1  -    00.000.173
20180320 18263556  '  +    runSQL?CONNECTION=main
20180320 18263556  ' http  	127.0.0.1 -> POST runSQL?CONNECTION=main
20180320 18263556  ' http  	PRAGMA index_list('uba_els')
20180320 18263556  ' auth  	admin/4605688
20180320 18263556  ' call  	endpoint runSQL
20180320 18263556  '  +    	ubApp.TubApp(02AB3EE0).DBExecute
20180320 18263556  '  +    		ubApp.TubApp(02AB3EE0).TubApp.InternalDBExecute
20180320 18263556  ' SQL   			ubDBSQLite3ThreadSafe.TubSQLite3Statement(17284CB0) PRAGMA index_list('uba_els')
20180320 18263556  '  -    		00.000.020
20180320 18263557  '  -    	00.000.053
20180320 18263557  ' http  	127.0.0.1 <- 200
20180320 18263557  '  -    00.000.277
20180320 18263557  +  +    runSQL?CONNECTION=main
20180320 18263557  + http  	127.0.0.1 -> POST runSQL?CONNECTION=main
20180320 18263557  + http  	PRAGMA index_xinfo(IDX_ELS_MI_MODIFYUSER)
20180320 18263557  + auth  	admin/4605688
20180320 18263557  + call  	endpoint runSQL
20180320 18263557  +  +    	ubApp.TubApp(02AB3EE0).DBExecute
20180320 18263557  +  +    		ubApp.TubApp(02AB3EE0).TubApp.InternalDBExecute
20180320 18263557  + SQL   			ubDBSQLite3ThreadSafe.TubSQLite3Statement(17284CB0) PRAGMA index_xinfo(IDX_ELS_MI_MODIFYUSER)
20180320 18263557  +  -    		00.000.020
20180320 18263557  +  -    	00.000.048
20180320 18263557  + http  	127.0.0.1 <- 200
20180320 18263557  +  -    00.000.174
20180320 18263557  #  +    runSQL?CONNECTION=main
20180320 18263557  # http  	127.0.0.1 -> POST runSQL?CONNECTION=main
20180320 18263557  # http  	PRAGMA index_xinfo(IDX_ELS_MI_CREATEUSER)
20180320 18263557  # auth  	admin/4605688
20180320 18263557  # call  	endpoint runSQL
20180320 18263557  #  +    	ubApp.TubApp(02AB3EE0).DBExecute
20180320 18263557  #  +    		ubApp.TubApp(02AB3EE0).TubApp.InternalDBExecute
20180320 18263557  # SQL   			ubDBSQLite3ThreadSafe.TubSQLite3Statement(17284CB0) PRAGMA index_xinfo(IDX_ELS_MI_CREATEUSER)
20180320 18263557  #  -    		00.000.037
20180320 18263557  #  -    	00.000.086
20180320 18263557  # http  	127.0.0.1 <- 200
20180320 18263557  #  -    00.000.342
20180320 18263557  $  +    runSQL?CONNECTION=main
20180320 18263557  $ http  	127.0.0.1 -> POST runSQL?CONNECTION=main
20180320 18263557  $ http  	PRAGMA index_xinfo(IDX_ELS_MI_OWNER)
20180320 18263557  $ auth  	admin/4605688
20180320 18263557  $ call  	endpoint runSQL
20180320 18263557  $  +    	ubApp.TubApp(02AB3EE0).DBExecute
20180320 18263557  $  +    		ubApp.TubApp(02AB3EE0).TubApp.InternalDBExecute
20180320 18263557  $ SQL   			ubDBSQLite3ThreadSafe.TubSQLite3Statement(17284CB0) PRAGMA index_xinfo(IDX_ELS_MI_OWNER)
20180320 18263557  $  -    		00.000.020
20180320 18263557  $  -    	00.000.048
20180320 18263557  $ http  	127.0.0.1 <- 200
20180320 18263557  $  -    00.000.177
20180320 18263557  "  +    runSQL?CONNECTION=main
20180320 18263557  " http  	127.0.0.1 -> POST runSQL?CONNECTION=main
20180320 18263557  " http  	PRAGMA index_xinfo(IDX_ELS_RULEROLE)
20180320 18263557  " auth  	admin/4605688
20180320 18263557  " call  	endpoint runSQL
20180320 18263557  "  +    	ubApp.TubApp(02AB3EE0).DBExecute
20180320 18263557  "  +    		ubApp.TubApp(02AB3EE0).TubApp.InternalDBExecute
20180320 18263557  " SQL   			ubDBSQLite3ThreadSafe.TubSQLite3Statement(17284CB0) PRAGMA index_xinfo(IDX_ELS_RULEROLE)
20180320 18263557  "  -    		00.000.019
20180320 18263557  "  -    	00.000.047
20180320 18263557  " http  	127.0.0.1 <- 200
20180320 18263557  "  -    00.000.170
20180320 18263557  0  +    runSQL?CONNECTION=main
20180320 18263557  0 http  	127.0.0.1 -> POST runSQL?CONNECTION=main
20180320 18263557  0 http  	PRAGMA table_info('uba_subject')
20180320 18263557  0 auth  	admin/4605688
20180320 18263557  0 call  	endpoint runSQL
20180320 18263557  0  +    	ubApp.TubApp(02AB3EE0).DBExecute
20180320 18263557  0  +    		ubApp.TubApp(02AB3EE0).TubApp.InternalDBExecute
20180320 18263557  0 SQL   			ubDBSQLite3ThreadSafe.TubSQLite3Statement(17284CB0) PRAGMA table_info('uba_subject')
20180320 18263557  0  -    		00.000.020
20180320 18263557  0  -    	00.000.048
20180320 18263557  0 http  	127.0.0.1 <- 200
20180320 18263557  0  -    00.000.162
20180320 18263557  ,  +    runSQL?CONNECTION=main
20180320 18263557  , http  	127.0.0.1 -> POST runSQL?CONNECTION=main
20180320 18263557  , http  	PRAGMA foreign_key_list('uba_subject')
20180320 18263557  , auth  	admin/4605688
20180320 18263557  , call  	endpoint runSQL
20180320 18263557  ,  +    	ubApp.TubApp(02AB3EE0).DBExecute
20180320 18263557  ,  +    		ubApp.TubApp(02AB3EE0).TubApp.InternalDBExecute
20180320 18263557  , SQL   			ubDBSQLite3ThreadSafe.TubSQLite3Statement(17284CB0) PRAGMA foreign_key_list('uba_subject')
20180320 18263557  ,  -    		00.000.018
20180320 18263557  ,  -    	00.000.027
20180320 18263557  , http  	127.0.0.1 <- 200
20180320 18263557  ,  -    00.000.138
20180320 18263557  .  +    runSQL?CONNECTION=main
20180320 18263557  . http  	127.0.0.1 -> POST runSQL?CONNECTION=main
20180320 18263557  . http  	PRAGMA index_list('uba_subject')
20180320 18263557  . auth  	admin/4605688
20180320 18263557  . call  	endpoint runSQL
20180320 18263557  .  +    	ubApp.TubApp(02AB3EE0).DBExecute
20180320 18263557  .  +    		ubApp.TubApp(02AB3EE0).TubApp.InternalDBExecute
20180320 18263557  . SQL   			ubDBSQLite3ThreadSafe.TubSQLite3Statement(17284CB0) PRAGMA index_list('uba_subject')
20180320 18263557  .  -    		00.000.019
20180320 18263557  .  -    	00.000.047
20180320 18263557  . http  	127.0.0.1 <- 200
20180320 18263557  .  -    00.000.177
20180320 18263557  %  +    runSQL?CONNECTION=main
20180320 18263557  % http  	127.0.0.1 -> POST runSQL?CONNECTION=main
20180320 18263557  % http  	PRAGMA index_xinfo(IDX_SUBJ_NAME)
20180320 18263557  % auth  	admin/4605688
20180320 18263557  % call  	endpoint runSQL
20180320 18263557  %  +    	ubApp.TubApp(02AB3EE0).DBExecute
20180320 18263557  %  +    		ubApp.TubApp(02AB3EE0).TubApp.InternalDBExecute
20180320 18263557  % SQL   			ubDBSQLite3ThreadSafe.TubSQLite3Statement(17284CB0) PRAGMA index_xinfo(IDX_SUBJ_NAME)
20180320 18263557  %  -    		00.000.018
20180320 18263557  %  -    	00.000.042
20180320 18263557  % http  	127.0.0.1 <- 200
20180320 18263557  %  -    00.000.156
20180320 18263557  )  +    runSQL?CONNECTION=main
20180320 18263557  ) http  	127.0.0.1 -> POST runSQL?CONNECTION=main
20180320 18263557  ) http  	PRAGMA table_info('uba_userrole')
20180320 18263557  ) auth  	admin/4605688
20180320 18263557  ) call  	endpoint runSQL
20180320 18263557  )  +    	ubApp.TubApp(02AB3EE0).DBExecute
20180320 18263557  )  +    		ubApp.TubApp(02AB3EE0).TubApp.InternalDBExecute
20180320 18263557  ) SQL   			ubDBSQLite3ThreadSafe.TubSQLite3Statement(17284CB0) PRAGMA table_info('uba_userrole')
20180320 18263557  )  -    		00.000.021
20180320 18263557  )  -    	00.000.053
20180320 18263557  ) http  	127.0.0.1 <- 200
20180320 18263557  )  -    00.000.166
20180320 18263557  /  +    runSQL?CONNECTION=main
20180320 18263557  / http  	127.0.0.1 -> POST runSQL?CONNECTION=main
20180320 18263557  / http  	PRAGMA foreign_key_list('uba_userrole')
20180320 18263557  / auth  	admin/4605688
20180320 18263557  / call  	endpoint runSQL
20180320 18263557  /  +    	ubApp.TubApp(02AB3EE0).DBExecute
20180320 18263557  /  +    		ubApp.TubApp(02AB3EE0).TubApp.InternalDBExecute
20180320 18263557  / SQL   			ubDBSQLite3ThreadSafe.TubSQLite3Statement(17284CB0) PRAGMA foreign_key_list('uba_userrole')
20180320 18263557  /  -    		00.000.023
20180320 18263557  /  -    	00.000.058
20180320 18263557  / http  	127.0.0.1 <- 200
20180320 18263557  /  -    00.000.178
20180320 18263557  &  +    runSQL?CONNECTION=main
20180320 18263557  & http  	127.0.0.1 -> POST runSQL?CONNECTION=main
20180320 18263557  & http  	PRAGMA index_list('uba_userrole')
20180320 18263557  & auth  	admin/4605688
20180320 18263557  & call  	endpoint runSQL
20180320 18263557  &  +    	ubApp.TubApp(02AB3EE0).DBExecute
20180320 18263557  &  +    		ubApp.TubApp(02AB3EE0).TubApp.InternalDBExecute
20180320 18263557  & SQL   			ubDBSQLite3ThreadSafe.TubSQLite3Statement(17284CB0) PRAGMA index_list('uba_userrole')
20180320 18263557  &  -    		00.000.021
20180320 18263557  &  -    	00.000.054
20180320 18263557  & http  	127.0.0.1 <- 200
20180320 18263557  &  -    00.000.215
20180320 18263557  -  +    runSQL?CONNECTION=main
20180320 18263557  - http  	127.0.0.1 -> POST runSQL?CONNECTION=main
20180320 18263557  - http  	PRAGMA index_xinfo(UK_USRROLE_USER_ROLE)
20180320 18263557  - auth  	admin/4605688
20180320 18263557  - call  	endpoint runSQL
20180320 18263557  -  +    	ubApp.TubApp(02AB3EE0).DBExecute
20180320 18263557  -  +    		ubApp.TubApp(02AB3EE0).TubApp.InternalDBExecute
20180320 18263557  - SQL   			ubDBSQLite3ThreadSafe.TubSQLite3Statement(17284CB0) PRAGMA index_xinfo(UK_USRROLE_USER_ROLE)
20180320 18263557  -  -    		00.000.018
20180320 18263557  -  -    	00.000.044
20180320 18263557  - http  	127.0.0.1 <- 200
20180320 18263557  -  -    00.000.190
20180320 18263557  (  +    runSQL?CONNECTION=main
20180320 18263557  ( http  	127.0.0.1 -> POST runSQL?CONNECTION=main
20180320 18263557  ( http  	PRAGMA index_xinfo(IDX_USROLE_MI_MODIFYUSER)
20180320 18263557  ( auth  	admin/4605688
20180320 18263557  ( call  	endpoint runSQL
20180320 18263557  (  +    	ubApp.TubApp(02AB3EE0).DBExecute
20180320 18263557  (  +    		ubApp.TubApp(02AB3EE0).TubApp.InternalDBExecute
20180320 18263557  ( SQL   			ubDBSQLite3ThreadSafe.TubSQLite3Statement(17284CB0) PRAGMA index_xinfo(IDX_USROLE_MI_MODIFYUSER)
20180320 18263557  (  -    		00.000.017
20180320 18263557  (  -    	00.000.042
20180320 18263557  ( http  	127.0.0.1 <- 200
20180320 18263557  (  -    00.000.230
20180320 18263557  *  +    runSQL?CONNECTION=main
20180320 18263557  * http  	127.0.0.1 -> POST runSQL?CONNECTION=main
20180320 18263557  * http  	PRAGMA index_xinfo(IDX_USROLE_MI_CREATEUSER)
20180320 18263557  * auth  	admin/4605688
20180320 18263557  * call  	endpoint runSQL
20180320 18263557  *  +    	ubApp.TubApp(02AB3EE0).DBExecute
20180320 18263557  *  +    		ubApp.TubApp(02AB3EE0).TubApp.InternalDBExecute
20180320 18263557  * SQL   			ubDBSQLite3ThreadSafe.TubSQLite3Statement(17284CB0) PRAGMA index_xinfo(IDX_USROLE_MI_CREATEUSER)
20180320 18263557  *  -    		00.000.017
20180320 18263557  *  -    	00.000.043
20180320 18263557  * http  	127.0.0.1 <- 200
20180320 18263557  *  -    00.000.152
20180320 18263557  1  +    runSQL?CONNECTION=main
20180320 18263557  1 http  	127.0.0.1 -> POST runSQL?CONNECTION=main
20180320 18263557  1 http  	PRAGMA index_xinfo(IDX_USROLE_MI_OWNER)
20180320 18263557  1 auth  	admin/4605688
20180320 18263557  1 call  	endpoint runSQL
20180320 18263557  1  +    	ubApp.TubApp(02AB3EE0).DBExecute
20180320 18263557  1  +    		ubApp.TubApp(02AB3EE0).TubApp.InternalDBExecute
20180320 18263557  1 SQL   			ubDBSQLite3ThreadSafe.TubSQLite3Statement(17284CB0) PRAGMA index_xinfo(IDX_USROLE_MI_OWNER)
20180320 18263557  1  -    		00.000.017
20180320 18263557  1  -    	00.000.041
20180320 18263557  1 http  	127.0.0.1 <- 200
20180320 18263557  1  -    00.000.153
20180320 18263557  '  +    runSQL?CONNECTION=main
20180320 18263557  ' http  	127.0.0.1 -> POST runSQL?CONNECTION=main
20180320 18263557  ' http  	PRAGMA index_xinfo(IDX_USROLE_ROLEID)
20180320 18263557  ' auth  	admin/4605688
20180320 18263557  ' call  	endpoint runSQL
20180320 18263557  '  +    	ubApp.TubApp(02AB3EE0).DBExecute
20180320 18263557  '  +    		ubApp.TubApp(02AB3EE0).TubApp.InternalDBExecute
20180320 18263557  ' SQL   			ubDBSQLite3ThreadSafe.TubSQLite3Statement(17284CB0) PRAGMA index_xinfo(IDX_USROLE_ROLEID)
20180320 18263557  '  -    		00.000.017
20180320 18263557  '  -    	00.000.040
20180320 18263557  ' http  	127.0.0.1 <- 200
20180320 18263557  '  -    00.000.152
20180320 18263557  +  +    runSQL?CONNECTION=main
20180320 18263557  + http  	127.0.0.1 -> POST runSQL?CONNECTION=main
20180320 18263557  + http  	PRAGMA index_xinfo(IDX_USROLE_USERID)
20180320 18263557  + auth  	admin/4605688
20180320 18263557  + call  	endpoint runSQL
20180320 18263557  +  +    	ubApp.TubApp(02AB3EE0).DBExecute
20180320 18263557  +  +    		ubApp.TubApp(02AB3EE0).TubApp.InternalDBExecute
20180320 18263557  + SQL   			ubDBSQLite3ThreadSafe.TubSQLite3Statement(17284CB0) PRAGMA index_xinfo(IDX_USROLE_USERID)
20180320 18263557  +  -    		00.000.016
20180320 18263557  +  -    	00.000.040
20180320 18263557  + http  	127.0.0.1 <- 200
20180320 18263557  +  -    00.000.147
20180320 18263557  #  +    runSQL?CONNECTION=main
20180320 18263557  # http  	127.0.0.1 -> POST runSQL?CONNECTION=main
20180320 18263557  # http  	PRAGMA table_info('uba_als')
20180320 18263557  # auth  	admin/4605688
20180320 18263557  # call  	endpoint runSQL
20180320 18263557  #  +    	ubApp.TubApp(02AB3EE0).DBExecute
20180320 18263557  #  +    		ubApp.TubApp(02AB3EE0).TubApp.InternalDBExecute
20180320 18263557  # SQL   			ubDBSQLite3ThreadSafe.TubSQLite3Statement(17284CB0) PRAGMA table_info('uba_als')
20180320 18263557  #  -    		00.000.018
20180320 18263557  #  -    	00.000.045
20180320 18263557  # http  	127.0.0.1 <- 200
20180320 18263557  #  -    00.000.144
20180320 18263558  $  +    runSQL?CONNECTION=main
20180320 18263558  $ http  	127.0.0.1 -> POST runSQL?CONNECTION=main
20180320 18263558  $ http  	PRAGMA foreign_key_list('uba_als')
20180320 18263558  $ auth  	admin/4605688
20180320 18263558  $ call  	endpoint runSQL
20180320 18263558  $  +    	ubApp.TubApp(02AB3EE0).DBExecute
20180320 18263558  $  +    		ubApp.TubApp(02AB3EE0).TubApp.InternalDBExecute
20180320 18263558  $ SQL   			ubDBSQLite3ThreadSafe.TubSQLite3Statement(17284CB0) PRAGMA foreign_key_list('uba_als')
20180320 18263558  $  -    		00.000.018
20180320 18263558  $  -    	00.000.028
20180320 18263558  $ http  	127.0.0.1 <- 200
20180320 18263558  $  -    00.000.138
20180320 18263558  "  +    runSQL?CONNECTION=main
20180320 18263558  " http  	127.0.0.1 -> POST runSQL?CONNECTION=main
20180320 18263558  " http  	PRAGMA index_list('uba_als')
20180320 18263558  " auth  	admin/4605688
20180320 18263558  " call  	endpoint runSQL
20180320 18263558  "  +    	ubApp.TubApp(02AB3EE0).DBExecute
20180320 18263558  "  +    		ubApp.TubApp(02AB3EE0).TubApp.InternalDBExecute
20180320 18263558  " SQL   			ubDBSQLite3ThreadSafe.TubSQLite3Statement(17284CB0) PRAGMA index_list('uba_als')
20180320 18263558  "  -    		00.000.016
20180320 18263558  "  -    	00.000.039
20180320 18263558  " http  	127.0.0.1 <- 200
20180320 18263558  "  -    00.000.137
20180320 18263558  0  +    runSQL?CONNECTION=main
20180320 18263558  0 http  	127.0.0.1 -> POST runSQL?CONNECTION=main
20180320 18263558  0 http  	PRAGMA index_xinfo(UK_UBA_ALS_EASR)
20180320 18263558  0 auth  	admin/4605688
20180320 18263558  0 call  	endpoint runSQL
20180320 18263558  0  +    	ubApp.TubApp(02AB3EE0).DBExecute
20180320 18263558  0  +    		ubApp.TubApp(02AB3EE0).TubApp.InternalDBExecute
20180320 18263558  0 SQL   			ubDBSQLite3ThreadSafe.TubSQLite3Statement(17284CB0) PRAGMA index_xinfo(UK_UBA_ALS_EASR)
20180320 18263558  0  -    		00.000.017
20180320 18263558  0  -    	00.000.043
20180320 18263558  0 http  	127.0.0.1 <- 200
20180320 18263558  0  -    00.000.137
20180320 18263558  ,  +    runSQL?CONNECTION=main
20180320 18263558  , http  	127.0.0.1 -> POST runSQL?CONNECTION=main
20180320 18263558  , http  	PRAGMA table_info('uba_audit')
20180320 18263558  , auth  	admin/4605688
20180320 18263558  , call  	endpoint runSQL
20180320 18263558  ,  +    	ubApp.TubApp(02AB3EE0).DBExecute
20180320 18263558  ,  +    		ubApp.TubApp(02AB3EE0).TubApp.InternalDBExecute
20180320 18263558  , SQL   			ubDBSQLite3ThreadSafe.TubSQLite3Statement(17284CB0) PRAGMA table_info('uba_audit')
20180320 18263558  ,  -    		00.000.021
20180320 18263558  ,  -    	00.000.055
20180320 18263558  , http  	127.0.0.1 <- 200
20180320 18263558  ,  -    00.000.163
20180320 18263558  .  +    runSQL?CONNECTION=main
20180320 18263558  . http  	127.0.0.1 -> POST runSQL?CONNECTION=main
20180320 18263558  . http  	PRAGMA foreign_key_list('uba_audit')
20180320 18263558  . auth  	admin/4605688
20180320 18263558  . call  	endpoint runSQL
20180320 18263558  .  +    	ubApp.TubApp(02AB3EE0).DBExecute
20180320 18263558  .  +    		ubApp.TubApp(02AB3EE0).TubApp.InternalDBExecute
20180320 18263558  . SQL   			ubDBSQLite3ThreadSafe.TubSQLite3Statement(17284CB0) PRAGMA foreign_key_list('uba_audit')
20180320 18263558  .  -    		00.000.016
20180320 18263558  .  -    	00.000.025
20180320 18263558  . http  	127.0.0.1 <- 200
20180320 18263558  .  -    00.000.132
20180320 18263558  %  +    runSQL?CONNECTION=main
20180320 18263558  % http  	127.0.0.1 -> POST runSQL?CONNECTION=main
20180320 18263558  % http  	PRAGMA index_list('uba_audit')
20180320 18263558  % auth  	admin/4605688
20180320 18263558  % call  	endpoint runSQL
20180320 18263558  %  +    	ubApp.TubApp(02AB3EE0).DBExecute
20180320 18263558  %  +    		ubApp.TubApp(02AB3EE0).TubApp.InternalDBExecute
20180320 18263558  % SQL   			ubDBSQLite3ThreadSafe.TubSQLite3Statement(17284CB0) PRAGMA index_list('uba_audit')
20180320 18263558  %  -    		00.000.022
20180320 18263558  %  -    	00.000.055
20180320 18263558  % http  	127.0.0.1 <- 200
20180320 18263558  %  -    00.000.166
20180320 18263558  )  +    runSQL?CONNECTION=main
20180320 18263558  ) http  	127.0.0.1 -> POST runSQL?CONNECTION=main
20180320 18263558  ) http  	PRAGMA index_xinfo(idx_saud_targetUser)
20180320 18263558  ) auth  	admin/4605688
20180320 18263558  ) call  	endpoint runSQL
20180320 18263558  )  +    	ubApp.TubApp(02AB3EE0).DBExecute
20180320 18263558  )  +    		ubApp.TubApp(02AB3EE0).TubApp.InternalDBExecute
20180320 18263558  ) SQL   			ubDBSQLite3ThreadSafe.TubSQLite3Statement(17284CB0) PRAGMA index_xinfo(idx_saud_targetUser)
20180320 18263558  )  -    		00.000.019
20180320 18263558  )  -    	00.000.045
20180320 18263558  ) http  	127.0.0.1 <- 200
20180320 18263558  )  -    00.000.198
20180320 18263558  /  +    runSQL?CONNECTION=main
20180320 18263558  / http  	127.0.0.1 -> POST runSQL?CONNECTION=main
20180320 18263558  / http  	PRAGMA table_info('ubs_settings')
20180320 18263558  / auth  	admin/4605688
20180320 18263558  / call  	endpoint runSQL
20180320 18263558  /  +    	ubApp.TubApp(02AB3EE0).DBExecute
20180320 18263558  /  +    		ubApp.TubApp(02AB3EE0).TubApp.InternalDBExecute
20180320 18263558  / SQL   			ubDBSQLite3ThreadSafe.TubSQLite3Statement(17284CB0) PRAGMA table_info('ubs_settings')
20180320 18263558  /  -    		00.000.025
20180320 18263558  /  -    	00.000.060
20180320 18263558  / http  	127.0.0.1 <- 200
20180320 18263558  /  -    00.000.176
20180320 18263558  &  +    runSQL?CONNECTION=main
20180320 18263558  & http  	127.0.0.1 -> POST runSQL?CONNECTION=main
20180320 18263558  & http  	PRAGMA foreign_key_list('ubs_settings')
20180320 18263558  & auth  	admin/4605688
20180320 18263558  & call  	endpoint runSQL
20180320 18263558  &  +    	ubApp.TubApp(02AB3EE0).DBExecute
20180320 18263558  &  +    		ubApp.TubApp(02AB3EE0).TubApp.InternalDBExecute
20180320 18263558  & SQL   			ubDBSQLite3ThreadSafe.TubSQLite3Statement(17284CB0) PRAGMA foreign_key_list('ubs_settings')
20180320 18263558  &  -    		00.000.021
20180320 18263558  &  -    	00.000.050
20180320 18263558  & http  	127.0.0.1 <- 200
20180320 18263558  &  -    00.000.164
20180320 18263558  -  +    runSQL?CONNECTION=main
20180320 18263558  - http  	127.0.0.1 -> POST runSQL?CONNECTION=main
20180320 18263558  - http  	PRAGMA index_list('ubs_settings')
20180320 18263558  - auth  	admin/4605688
20180320 18263558  - call  	endpoint runSQL
20180320 18263558  -  +    	ubApp.TubApp(02AB3EE0).DBExecute
20180320 18263558  -  +    		ubApp.TubApp(02AB3EE0).TubApp.InternalDBExecute
20180320 18263558  - SQL   			ubDBSQLite3ThreadSafe.TubSQLite3Statement(17284CB0) PRAGMA index_list('ubs_settings')
20180320 18263558  -  -    		00.000.018
20180320 18263558  -  -    	00.000.044
20180320 18263558  - http  	127.0.0.1 <- 200
20180320 18263558  -  -    00.000.151
20180320 18263558  (  +    runSQL?CONNECTION=main
20180320 18263558  ( http  	127.0.0.1 -> POST runSQL?CONNECTION=main
20180320 18263558  ( http  	PRAGMA index_xinfo(IDX_STNGS_MI_MODIFYUSER)
20180320 18263558  ( auth  	admin/4605688
20180320 18263558  ( call  	endpoint runSQL
20180320 18263558  (  +    	ubApp.TubApp(02AB3EE0).DBExecute
20180320 18263558  (  +    		ubApp.TubApp(02AB3EE0).TubApp.InternalDBExecute
20180320 18263558  ( SQL   			ubDBSQLite3ThreadSafe.TubSQLite3Statement(17284CB0) PRAGMA index_xinfo(IDX_STNGS_MI_MODIFYUSER)
20180320 18263558  (  -    		00.000.017
20180320 18263558  (  -    	00.000.043
20180320 18263558  ( http  	127.0.0.1 <- 200
20180320 18263558  (  -    00.000.164
20180320 18263558  *  +    runSQL?CONNECTION=main
20180320 18263558  * http  	127.0.0.1 -> POST runSQL?CONNECTION=main
20180320 18263558  * http  	PRAGMA index_xinfo(IDX_STNGS_MI_CREATEUSER)
20180320 18263558  * auth  	admin/4605688
20180320 18263558  * call  	endpoint runSQL
20180320 18263558  *  +    	ubApp.TubApp(02AB3EE0).DBExecute
20180320 18263558  *  +    		ubApp.TubApp(02AB3EE0).TubApp.InternalDBExecute
20180320 18263558  * SQL   			ubDBSQLite3ThreadSafe.TubSQLite3Statement(17284CB0) PRAGMA index_xinfo(IDX_STNGS_MI_CREATEUSER)
20180320 18263558  *  -    		00.000.017
20180320 18263558  *  -    	00.000.041
20180320 18263558  * http  	127.0.0.1 <- 200
20180320 18263558  *  -    00.000.156
20180320 18263558  1  +    runSQL?CONNECTION=main
20180320 18263558  1 http  	127.0.0.1 -> POST runSQL?CONNECTION=main
20180320 18263558  1 http  	PRAGMA index_xinfo(IDX_STNGS_MI_OWNER)
20180320 18263558  1 auth  	admin/4605688
20180320 18263558  1 call  	endpoint runSQL
20180320 18263558  1  +    	ubApp.TubApp(02AB3EE0).DBExecute
20180320 18263558  1  +    		ubApp.TubApp(02AB3EE0).TubApp.InternalDBExecute
20180320 18263558  1 SQL   			ubDBSQLite3ThreadSafe.TubSQLite3Statement(17284CB0) PRAGMA index_xinfo(IDX_STNGS_MI_OWNER)
20180320 18263558  1  -    		00.000.017
20180320 18263558  1  -    	00.000.041
20180320 18263558  1 http  	127.0.0.1 <- 200
20180320 18263558  1  -    00.000.156
20180320 18263558  '  +    runSQL?CONNECTION=main
20180320 18263558  ' http  	127.0.0.1 -> POST runSQL?CONNECTION=main
20180320 18263558  ' http  	PRAGMA index_xinfo(UIDX_STNGS_SETTINGKEY)
20180320 18263558  ' auth  	admin/4605688
20180320 18263558  ' call  	endpoint runSQL
20180320 18263558  '  +    	ubApp.TubApp(02AB3EE0).DBExecute
20180320 18263558  '  +    		ubApp.TubApp(02AB3EE0).TubApp.InternalDBExecute
20180320 18263558  ' SQL   			ubDBSQLite3ThreadSafe.TubSQLite3Statement(17284CB0) PRAGMA index_xinfo(UIDX_STNGS_SETTINGKEY)
20180320 18263558  '  -    		00.000.018
20180320 18263558  '  -    	00.000.043
20180320 18263558  ' http  	127.0.0.1 <- 200
20180320 18263558  '  -    00.000.154
20180320 18263558  +  +    runSQL?CONNECTION=main
20180320 18263558  + http  	127.0.0.1 -> POST runSQL?CONNECTION=main
20180320 18263558  + http  	PRAGMA table_info('uba_advSecurity')
20180320 18263558  + auth  	admin/4605688
20180320 18263558  + call  	endpoint runSQL
20180320 18263558  +  +    	ubApp.TubApp(02AB3EE0).DBExecute
20180320 18263558  +  +    		ubApp.TubApp(02AB3EE0).TubApp.InternalDBExecute
20180320 18263558  + SQL   			ubDBSQLite3ThreadSafe.TubSQLite3Statement(17284CB0) PRAGMA table_info('uba_advSecurity')
20180320 18263558  +  -    		00.000.025
20180320 18263558  +  -    	00.000.064
20180320 18263558  + http  	127.0.0.1 <- 200
20180320 18263558  +  -    00.000.174
20180320 18263558  #  +    runSQL?CONNECTION=main
20180320 18263558  # http  	127.0.0.1 -> POST runSQL?CONNECTION=main
20180320 18263558  # http  	PRAGMA foreign_key_list('uba_advSecurity')
20180320 18263558  # auth  	admin/4605688
20180320 18263558  # call  	endpoint runSQL
20180320 18263558  #  +    	ubApp.TubApp(02AB3EE0).DBExecute
20180320 18263558  #  +    		ubApp.TubApp(02AB3EE0).TubApp.InternalDBExecute
20180320 18263558  # SQL   			ubDBSQLite3ThreadSafe.TubSQLite3Statement(17284CB0) PRAGMA foreign_key_list('uba_advSecurity')
20180320 18263558  #  -    		00.000.025
20180320 18263558  #  -    	00.000.060
20180320 18263558  # http  	127.0.0.1 <- 200
20180320 18263558  #  -    00.000.189
20180320 18263558  $  +    runSQL?CONNECTION=main
20180320 18263558  $ http  	127.0.0.1 -> POST runSQL?CONNECTION=main
20180320 18263558  $ http  	PRAGMA index_list('uba_advSecurity')
20180320 18263558  $ auth  	admin/4605688
20180320 18263558  $ call  	endpoint runSQL
20180320 18263558  $  +    	ubApp.TubApp(02AB3EE0).DBExecute
20180320 18263558  $  +    		ubApp.TubApp(02AB3EE0).TubApp.InternalDBExecute
20180320 18263558  $ SQL   			ubDBSQLite3ThreadSafe.TubSQLite3Statement(17284CB0) PRAGMA index_list('uba_advSecurity')
20180320 18263558  $  -    		00.000.020
20180320 18263558  $  -    	00.000.047
20180320 18263558  $ http  	127.0.0.1 <- 200
20180320 18263558  $  -    00.000.162
20180320 18263558  "  +    runSQL?CONNECTION=main
20180320 18263558  " http  	127.0.0.1 -> POST runSQL?CONNECTION=main
20180320 18263558  " http  	PRAGMA index_xinfo(IDX_UBA_ADVSECURITY_MI_MODIFYUSER)
20180320 18263558  " auth  	admin/4605688
20180320 18263558  " call  	endpoint runSQL
20180320 18263558  "  +    	ubApp.TubApp(02AB3EE0).DBExecute
20180320 18263558  "  +    		ubApp.TubApp(02AB3EE0).TubApp.InternalDBExecute
20180320 18263558  " SQL   			ubDBSQLite3ThreadSafe.TubSQLite3Statement(17284CB0) PRAGMA index_xinfo(IDX_UBA_ADVSECURITY_MI_MODIFYUSER)
20180320 18263558  "  -    		00.000.019
20180320 18263558  "  -    	00.000.044
20180320 18263558  " http  	127.0.0.1 <- 200
20180320 18263558  "  -    00.000.163
20180320 18263558  0  +    runSQL?CONNECTION=main
20180320 18263558  0 http  	127.0.0.1 -> POST runSQL?CONNECTION=main
20180320 18263558  0 http  	PRAGMA index_xinfo(IDX_UBA_ADVSECURITY_MI_CREATEUSER)
20180320 18263558  0 auth  	admin/4605688
20180320 18263558  0 call  	endpoint runSQL
20180320 18263558  0  +    	ubApp.TubApp(02AB3EE0).DBExecute
20180320 18263558  0  +    		ubApp.TubApp(02AB3EE0).TubApp.InternalDBExecute
20180320 18263558  0 SQL   			ubDBSQLite3ThreadSafe.TubSQLite3Statement(17284CB0) PRAGMA index_xinfo(IDX_UBA_ADVSECURITY_MI_CREATEUSER)
20180320 18263558  0  -    		00.000.021
20180320 18263558  0  -    	00.000.049
20180320 18263558  0 http  	127.0.0.1 <- 200
20180320 18263558  0  -    00.000.198
20180320 18263558  ,  +    runSQL?CONNECTION=main
20180320 18263558  , http  	127.0.0.1 -> POST runSQL?CONNECTION=main
20180320 18263558  , http  	PRAGMA index_xinfo(IDX_UBA_ADVSECURITY_MI_OWNER)
20180320 18263558  , auth  	admin/4605688
20180320 18263558  , call  	endpoint runSQL
20180320 18263558  ,  +    	ubApp.TubApp(02AB3EE0).DBExecute
20180320 18263558  ,  +    		ubApp.TubApp(02AB3EE0).TubApp.InternalDBExecute
20180320 18263558  , SQL   			ubDBSQLite3ThreadSafe.TubSQLite3Statement(17284CB0) PRAGMA index_xinfo(IDX_UBA_ADVSECURITY_MI_OWNER)
20180320 18263558  ,  -    		00.000.018
20180320 18263558  ,  -    	00.000.043
20180320 18263558  , http  	127.0.0.1 <- 200
20180320 18263558  ,  -    00.000.152
20180320 18263558  .  +    runSQL?CONNECTION=main
20180320 18263558  . http  	127.0.0.1 -> POST runSQL?CONNECTION=main
20180320 18263558  . http  	PRAGMA index_xinfo(UIDX_UBA_ADVSECURITY_USERID)
20180320 18263558  . auth  	admin/4605688
20180320 18263558  . call  	endpoint runSQL
20180320 18263558  .  +    	ubApp.TubApp(02AB3EE0).DBExecute
20180320 18263558  .  +    		ubApp.TubApp(02AB3EE0).TubApp.InternalDBExecute
20180320 18263558  . SQL   			ubDBSQLite3ThreadSafe.TubSQLite3Statement(17284CB0) PRAGMA index_xinfo(UIDX_UBA_ADVSECURITY_USERID)
20180320 18263558  .  -    		00.000.016
20180320 18263558  .  -    	00.000.040
20180320 18263558  . http  	127.0.0.1 <- 200
20180320 18263558  .  -    00.000.146
20180320 18263559  %  +    runSQL?CONNECTION=main
20180320 18263559  % http  	127.0.0.1 -> POST runSQL?CONNECTION=main
20180320 18263559  % http  	PRAGMA table_info('uba_auditTrail')
20180320 18263559  % auth  	admin/4605688
20180320 18263559  % call  	endpoint runSQL
20180320 18263559  %  +    	ubApp.TubApp(02AB3EE0).DBExecute
20180320 18263559  %  +    		ubApp.TubApp(02AB3EE0).TubApp.InternalDBExecute
20180320 18263559  % SQL   			ubDBSQLite3ThreadSafe.TubSQLite3Statement(17284CB0) PRAGMA table_info('uba_auditTrail')
20180320 18263559  %  -    		00.000.026
20180320 18263559  %  -    	00.000.062
20180320 18263559  % http  	127.0.0.1 <- 200
20180320 18263559  %  -    00.000.186
20180320 18263559  )  +    runSQL?CONNECTION=main
20180320 18263559  ) http  	127.0.0.1 -> POST runSQL?CONNECTION=main
20180320 18263559  ) http  	PRAGMA foreign_key_list('uba_auditTrail')
20180320 18263559  ) auth  	admin/4605688
20180320 18263559  ) call  	endpoint runSQL
20180320 18263559  )  +    	ubApp.TubApp(02AB3EE0).DBExecute
20180320 18263559  )  +    		ubApp.TubApp(02AB3EE0).TubApp.InternalDBExecute
20180320 18263559  ) SQL   			ubDBSQLite3ThreadSafe.TubSQLite3Statement(17284CB0) PRAGMA foreign_key_list('uba_auditTrail')
20180320 18263559  )  -    		00.000.021
20180320 18263559  )  -    	00.000.050
20180320 18263559  ) http  	127.0.0.1 <- 200
20180320 18263559  )  -    00.000.166
20180320 18263559  /  +    runSQL?CONNECTION=main
20180320 18263559  / http  	127.0.0.1 -> POST runSQL?CONNECTION=main
20180320 18263559  / http  	PRAGMA index_list('uba_auditTrail')
20180320 18263559  / auth  	admin/4605688
20180320 18263559  / call  	endpoint runSQL
20180320 18263559  /  +    	ubApp.TubApp(02AB3EE0).DBExecute
20180320 18263559  /  +    		ubApp.TubApp(02AB3EE0).TubApp.InternalDBExecute
20180320 18263559  / SQL   			ubDBSQLite3ThreadSafe.TubSQLite3Statement(17284CB0) PRAGMA index_list('uba_auditTrail')
20180320 18263559  /  -    		00.000.023
20180320 18263559  /  -    	00.000.055
20180320 18263559  / http  	127.0.0.1 <- 200
20180320 18263559  /  -    00.000.182
20180320 18263559  &  +    runSQL?CONNECTION=main
20180320 18263559  & http  	127.0.0.1 -> POST runSQL?CONNECTION=main
20180320 18263559  & http  	PRAGMA index_xinfo(idx_aud_parententityinfoid)
20180320 18263559  & auth  	admin/4605688
20180320 18263559  & call  	endpoint runSQL
20180320 18263559  &  +    	ubApp.TubApp(02AB3EE0).DBExecute
20180320 18263559  &  +    		ubApp.TubApp(02AB3EE0).TubApp.InternalDBExecute
20180320 18263559  & SQL   			ubDBSQLite3ThreadSafe.TubSQLite3Statement(17284CB0) PRAGMA index_xinfo(idx_aud_parententityinfoid)
20180320 18263559  &  -    		00.000.019
20180320 18263559  &  -    	00.000.045
20180320 18263559  & http  	127.0.0.1 <- 200
20180320 18263559  &  -    00.000.158
20180320 18263559  -  +    runSQL?CONNECTION=main
20180320 18263559  - http  	127.0.0.1 -> POST runSQL?CONNECTION=main
20180320 18263559  - http  	PRAGMA index_xinfo(idx_aud_entity)
20180320 18263559  - auth  	admin/4605688
20180320 18263559  - call  	endpoint runSQL
20180320 18263559  -  +    	ubApp.TubApp(02AB3EE0).DBExecute
20180320 18263559  -  +    		ubApp.TubApp(02AB3EE0).TubApp.InternalDBExecute
20180320 18263559  - SQL   			ubDBSQLite3ThreadSafe.TubSQLite3Statement(17284CB0) PRAGMA index_xinfo(idx_aud_entity)
20180320 18263559  -  -    		00.000.017
20180320 18263559  -  -    	00.000.040
20180320 18263559  - http  	127.0.0.1 <- 200
20180320 18263559  -  -    00.000.145
20180320 18263559  (  +    runSQL?CONNECTION=main
20180320 18263559  ( http  	127.0.0.1 -> POST runSQL?CONNECTION=main
20180320 18263559  ( http  	PRAGMA index_xinfo(IDX_AUD_ACTIONUSER)
20180320 18263559  ( auth  	admin/4605688
20180320 18263559  ( call  	endpoint runSQL
20180320 18263559  (  +    	ubApp.TubApp(02AB3EE0).DBExecute
20180320 18263559  (  +    		ubApp.TubApp(02AB3EE0).TubApp.InternalDBExecute
20180320 18263559  ( SQL   			ubDBSQLite3ThreadSafe.TubSQLite3Statement(17284CB0) PRAGMA index_xinfo(IDX_AUD_ACTIONUSER)
20180320 18263559  (  -    		00.000.019
20180320 18263559  (  -    	00.000.047
20180320 18263559  ( http  	127.0.0.1 <- 200
20180320 18263559  (  -    00.000.217
20180320 18263559  *  +    runSQL?CONNECTION=main
20180320 18263559  * http  	127.0.0.1 -> POST runSQL?CONNECTION=main
20180320 18263559  * http  	PRAGMA table_info('uba_group')
20180320 18263559  * auth  	admin/4605688
20180320 18263559  * call  	endpoint runSQL
20180320 18263559  *  +    	ubApp.TubApp(02AB3EE0).DBExecute
20180320 18263559  *  +    		ubApp.TubApp(02AB3EE0).TubApp.InternalDBExecute
20180320 18263559  * SQL   			ubDBSQLite3ThreadSafe.TubSQLite3Statement(17284CB0) PRAGMA table_info('uba_group')
20180320 18263559  *  -    		00.000.024
20180320 18263559  *  -    	00.000.061
20180320 18263559  * http  	127.0.0.1 <- 200
20180320 18263559  *  -    00.000.189
20180320 18263559  1  +    runSQL?CONNECTION=main
20180320 18263559  1 http  	127.0.0.1 -> POST runSQL?CONNECTION=main
20180320 18263559  1 http  	PRAGMA foreign_key_list('uba_group')
20180320 18263559  1 auth  	admin/4605688
20180320 18263559  1 call  	endpoint runSQL
20180320 18263559  1  +    	ubApp.TubApp(02AB3EE0).DBExecute
20180320 18263559  1  +    		ubApp.TubApp(02AB3EE0).TubApp.InternalDBExecute
20180320 18263559  1 SQL   			ubDBSQLite3ThreadSafe.TubSQLite3Statement(17284CB0) PRAGMA foreign_key_list('uba_group')
20180320 18263559  1  -    		00.000.022
20180320 18263559  1  -    	00.000.055
20180320 18263559  1 http  	127.0.0.1 <- 200
20180320 18263559  1  -    00.000.178
20180320 18263559  '  +    runSQL?CONNECTION=main
20180320 18263559  ' http  	127.0.0.1 -> POST runSQL?CONNECTION=main
20180320 18263559  ' http  	PRAGMA index_list('uba_group')
20180320 18263559  ' auth  	admin/4605688
20180320 18263559  ' call  	endpoint runSQL
20180320 18263559  '  +    	ubApp.TubApp(02AB3EE0).DBExecute
20180320 18263559  '  +    		ubApp.TubApp(02AB3EE0).TubApp.InternalDBExecute
20180320 18263559  ' SQL   			ubDBSQLite3ThreadSafe.TubSQLite3Statement(17284CB0) PRAGMA index_list('uba_group')
20180320 18263559  '  -    		00.000.020
20180320 18263559  '  -    	00.000.051
20180320 18263559  ' http  	127.0.0.1 <- 200
20180320 18263559  '  -    00.000.177
20180320 18263559  +  +    runSQL?CONNECTION=main
20180320 18263559  + http  	127.0.0.1 -> POST runSQL?CONNECTION=main
20180320 18263559  + http  	PRAGMA index_xinfo(IDX_GR_MI_MODIFYUSER)
20180320 18263559  + auth  	admin/4605688
20180320 18263559  + call  	endpoint runSQL
20180320 18263559  +  +    	ubApp.TubApp(02AB3EE0).DBExecute
20180320 18263559  +  +    		ubApp.TubApp(02AB3EE0).TubApp.InternalDBExecute
20180320 18263559  + SQL   			ubDBSQLite3ThreadSafe.TubSQLite3Statement(17284CB0) PRAGMA index_xinfo(IDX_GR_MI_MODIFYUSER)
20180320 18263559  +  -    		00.000.019
20180320 18263559  +  -    	00.000.047
20180320 18263559  + http  	127.0.0.1 <- 200
20180320 18263559  +  -    00.000.214
20180320 18263559  #  +    runSQL?CONNECTION=main
20180320 18263559  # http  	127.0.0.1 -> POST runSQL?CONNECTION=main
20180320 18263559  # http  	PRAGMA index_xinfo(IDX_GR_MI_CREATEUSER)
20180320 18263559  # auth  	admin/4605688
20180320 18263559  # call  	endpoint runSQL
20180320 18263559  #  +    	ubApp.TubApp(02AB3EE0).DBExecute
20180320 18263559  #  +    		ubApp.TubApp(02AB3EE0).TubApp.InternalDBExecute
20180320 18263559  # SQL   			ubDBSQLite3ThreadSafe.TubSQLite3Statement(17284CB0) PRAGMA index_xinfo(IDX_GR_MI_CREATEUSER)
20180320 18263559  #  -    		00.000.020
20180320 18263559  #  -    	00.000.048
20180320 18263559  # http  	127.0.0.1 <- 200
20180320 18263559  #  -    00.000.172
20180320 18263559  $  +    runSQL?CONNECTION=main
20180320 18263559  $ http  	127.0.0.1 -> POST runSQL?CONNECTION=main
20180320 18263559  $ http  	PRAGMA index_xinfo(IDX_GR_MI_OWNER)
20180320 18263559  $ auth  	admin/4605688
20180320 18263559  $ call  	endpoint runSQL
20180320 18263559  $  +    	ubApp.TubApp(02AB3EE0).DBExecute
20180320 18263559  $  +    		ubApp.TubApp(02AB3EE0).TubApp.InternalDBExecute
20180320 18263559  $ SQL   			ubDBSQLite3ThreadSafe.TubSQLite3Statement(17284CB0) PRAGMA index_xinfo(IDX_GR_MI_OWNER)
20180320 18263559  $  -    		00.000.019
20180320 18263559  $  -    	00.000.046
20180320 18263559  $ http  	127.0.0.1 <- 200
20180320 18263559  $  -    00.000.195
20180320 18263559  "  +    runSQL?CONNECTION=main
20180320 18263559  " http  	127.0.0.1 -> POST runSQL?CONNECTION=main
20180320 18263559  " http  	PRAGMA index_xinfo(UIDX_GR_NAME)
20180320 18263559  " auth  	admin/4605688
20180320 18263559  " call  	endpoint runSQL
20180320 18263559  "  +    	ubApp.TubApp(02AB3EE0).DBExecute
20180320 18263559  "  +    		ubApp.TubApp(02AB3EE0).TubApp.InternalDBExecute
20180320 18263559  " SQL   			ubDBSQLite3ThreadSafe.TubSQLite3Statement(17284CB0) PRAGMA index_xinfo(UIDX_GR_NAME)
20180320 18263559  "  -    		00.000.018
20180320 18263559  "  -    	00.000.045
20180320 18263559  " http  	127.0.0.1 <- 200
20180320 18263559  "  -    00.000.160
20180320 18263559  0  +    runSQL?CONNECTION=main
20180320 18263559  0 http  	127.0.0.1 -> POST runSQL?CONNECTION=main
20180320 18263559  0 http  	PRAGMA index_xinfo(UIDX_GR_CODE)
20180320 18263559  0 auth  	admin/4605688
20180320 18263559  0 call  	endpoint runSQL
20180320 18263559  0  +    	ubApp.TubApp(02AB3EE0).DBExecute
20180320 18263559  0  +    		ubApp.TubApp(02AB3EE0).TubApp.InternalDBExecute
20180320 18263559  0 SQL   			ubDBSQLite3ThreadSafe.TubSQLite3Statement(17284CB0) PRAGMA index_xinfo(UIDX_GR_CODE)
20180320 18263559  0  -    		00.000.018
20180320 18263559  0  -    	00.000.044
20180320 18263559  0 http  	127.0.0.1 <- 200
20180320 18263559  0  -    00.000.161
20180320 18263559  ,  +    runSQL?CONNECTION=main
20180320 18263559  , http  	127.0.0.1 -> POST runSQL?CONNECTION=main
20180320 18263559  , http  	PRAGMA table_info('uba_grouprole')
20180320 18263559  , auth  	admin/4605688
20180320 18263559  , call  	endpoint runSQL
20180320 18263559  ,  +    	ubApp.TubApp(02AB3EE0).DBExecute
20180320 18263559  ,  +    		ubApp.TubApp(02AB3EE0).TubApp.InternalDBExecute
20180320 18263559  , SQL   			ubDBSQLite3ThreadSafe.TubSQLite3Statement(17284CB0) PRAGMA table_info('uba_grouprole')
20180320 18263559  ,  -    		00.000.023
20180320 18263559  ,  -    	00.000.056
20180320 18263559  , http  	127.0.0.1 <- 200
20180320 18263559  ,  -    00.000.241
20180320 18263559  .  +    runSQL?CONNECTION=main
20180320 18263559  . http  	127.0.0.1 -> POST runSQL?CONNECTION=main
20180320 18263559  . http  	PRAGMA foreign_key_list('uba_grouprole')
20180320 18263559  . auth  	admin/4605688
20180320 18263559  . call  	endpoint runSQL
20180320 18263559  .  +    	ubApp.TubApp(02AB3EE0).DBExecute
20180320 18263559  .  +    		ubApp.TubApp(02AB3EE0).TubApp.InternalDBExecute
20180320 18263559  . SQL   			ubDBSQLite3ThreadSafe.TubSQLite3Statement(17284CB0) PRAGMA foreign_key_list('uba_grouprole')
20180320 18263559  .  -    		00.000.021
20180320 18263559  .  -    	00.000.052
20180320 18263559  . http  	127.0.0.1 <- 200
20180320 18263559  .  -    00.000.165
20180320 18263559  %  +    runSQL?CONNECTION=main
20180320 18263559  % http  	127.0.0.1 -> POST runSQL?CONNECTION=main
20180320 18263559  % http  	PRAGMA index_list('uba_grouprole')
20180320 18263559  % auth  	admin/4605688
20180320 18263559  % call  	endpoint runSQL
20180320 18263559  %  +    	ubApp.TubApp(02AB3EE0).DBExecute
20180320 18263559  %  +    		ubApp.TubApp(02AB3EE0).TubApp.InternalDBExecute
20180320 18263559  % SQL   			ubDBSQLite3ThreadSafe.TubSQLite3Statement(17284CB0) PRAGMA index_list('uba_grouprole')
20180320 18263559  %  -    		00.000.018
20180320 18263559  %  -    	00.000.046
20180320 18263559  % http  	127.0.0.1 <- 200
20180320 18263559  %  -    00.000.189
20180320 18263560  )  +    runSQL?CONNECTION=main
20180320 18263560  ) http  	127.0.0.1 -> POST runSQL?CONNECTION=main
20180320 18263560  ) http  	PRAGMA index_xinfo(UK_GRPROLE_USER_ROLE)
20180320 18263560  ) auth  	admin/4605688
20180320 18263560  ) call  	endpoint runSQL
20180320 18263560  )  +    	ubApp.TubApp(02AB3EE0).DBExecute
20180320 18263560  )  +    		ubApp.TubApp(02AB3EE0).TubApp.InternalDBExecute
20180320 18263560  ) SQL   			ubDBSQLite3ThreadSafe.TubSQLite3Statement(17284CB0) PRAGMA index_xinfo(UK_GRPROLE_USER_ROLE)
20180320 18263560  )  -    		00.000.017
20180320 18263560  )  -    	00.000.041
20180320 18263560  ) http  	127.0.0.1 <- 200
20180320 18263560  )  -    00.000.147
20180320 18263560  /  +    runSQL?CONNECTION=main
20180320 18263560  / http  	127.0.0.1 -> POST runSQL?CONNECTION=main
20180320 18263560  / http  	PRAGMA index_xinfo(IDX_UBA_GROUPROLE_MI_MODIFYUSER)
20180320 18263560  / auth  	admin/4605688
20180320 18263560  / call  	endpoint runSQL
20180320 18263560  /  +    	ubApp.TubApp(02AB3EE0).DBExecute
20180320 18263560  /  +    		ubApp.TubApp(02AB3EE0).TubApp.InternalDBExecute
20180320 18263560  / SQL   			ubDBSQLite3ThreadSafe.TubSQLite3Statement(17284CB0) PRAGMA index_xinfo(IDX_UBA_GROUPROLE_MI_MODIFYUSER)
20180320 18263560  /  -    		00.000.018
20180320 18263560  /  -    	00.000.045
20180320 18263560  / http  	127.0.0.1 <- 200
20180320 18263560  /  -    00.000.160
20180320 18263560  &  +    runSQL?CONNECTION=main
20180320 18263560  & http  	127.0.0.1 -> POST runSQL?CONNECTION=main
20180320 18263560  & http  	PRAGMA index_xinfo(IDX_UBA_GROUPROLE_MI_CREATEUSER)
20180320 18263560  & auth  	admin/4605688
20180320 18263560  & call  	endpoint runSQL
20180320 18263560  &  +    	ubApp.TubApp(02AB3EE0).DBExecute
20180320 18263560  &  +    		ubApp.TubApp(02AB3EE0).TubApp.InternalDBExecute
20180320 18263560  & SQL   			ubDBSQLite3ThreadSafe.TubSQLite3Statement(17284CB0) PRAGMA index_xinfo(IDX_UBA_GROUPROLE_MI_CREATEUSER)
20180320 18263560  &  -    		00.000.017
20180320 18263560  &  -    	00.000.040
20180320 18263560  & http  	127.0.0.1 <- 200
20180320 18263560  &  -    00.000.177
20180320 18263560  -  +    runSQL?CONNECTION=main
20180320 18263560  - http  	127.0.0.1 -> POST runSQL?CONNECTION=main
20180320 18263560  - http  	PRAGMA index_xinfo(IDX_UBA_GROUPROLE_MI_OWNER)
20180320 18263560  - auth  	admin/4605688
20180320 18263560  - call  	endpoint runSQL
20180320 18263560  -  +    	ubApp.TubApp(02AB3EE0).DBExecute
20180320 18263560  -  +    		ubApp.TubApp(02AB3EE0).TubApp.InternalDBExecute
20180320 18263560  - SQL   			ubDBSQLite3ThreadSafe.TubSQLite3Statement(17284CB0) PRAGMA index_xinfo(IDX_UBA_GROUPROLE_MI_OWNER)
20180320 18263560  -  -    		00.000.016
20180320 18263560  -  -    	00.000.038
20180320 18263560  - http  	127.0.0.1 <- 200
20180320 18263560  -  -    00.000.137
20180320 18263560  (  +    runSQL?CONNECTION=main
20180320 18263560  ( http  	127.0.0.1 -> POST runSQL?CONNECTION=main
20180320 18263560  ( http  	PRAGMA index_xinfo(IDX_UBA_GROUPROLE_ROLEID)
20180320 18263560  ( auth  	admin/4605688
20180320 18263560  ( call  	endpoint runSQL
20180320 18263560  (  +    	ubApp.TubApp(02AB3EE0).DBExecute
20180320 18263560  (  +    		ubApp.TubApp(02AB3EE0).TubApp.InternalDBExecute
20180320 18263560  ( SQL   			ubDBSQLite3ThreadSafe.TubSQLite3Statement(17284CB0) PRAGMA index_xinfo(IDX_UBA_GROUPROLE_ROLEID)
20180320 18263560  (  -    		00.000.016
20180320 18263560  (  -    	00.000.041
20180320 18263560  ( http  	127.0.0.1 <- 200
20180320 18263560  (  -    00.000.140
20180320 18263560  *  +    runSQL?CONNECTION=main
20180320 18263560  * http  	127.0.0.1 -> POST runSQL?CONNECTION=main
20180320 18263560  * http  	PRAGMA index_xinfo(IDX_UBA_GROUPROLE_GROUPID)
20180320 18263560  * auth  	admin/4605688
20180320 18263560  * call  	endpoint runSQL
20180320 18263560  *  +    	ubApp.TubApp(02AB3EE0).DBExecute
20180320 18263560  *  +    		ubApp.TubApp(02AB3EE0).TubApp.InternalDBExecute
20180320 18263560  * SQL   			ubDBSQLite3ThreadSafe.TubSQLite3Statement(17284CB0) PRAGMA index_xinfo(IDX_UBA_GROUPROLE_GROUPID)
20180320 18263560  *  -    		00.000.016
20180320 18263560  *  -    	00.000.039
20180320 18263560  * http  	127.0.0.1 <- 200
20180320 18263560  *  -    00.000.137
20180320 18263560  1  +    runSQL?CONNECTION=main
20180320 18263560  1 http  	127.0.0.1 -> POST runSQL?CONNECTION=main
20180320 18263560  1 http  	PRAGMA table_info('uba_otp')
20180320 18263560  1 auth  	admin/4605688
20180320 18263560  1 call  	endpoint runSQL
20180320 18263560  1  +    	ubApp.TubApp(02AB3EE0).DBExecute
20180320 18263560  1  +    		ubApp.TubApp(02AB3EE0).TubApp.InternalDBExecute
20180320 18263560  1 SQL   			ubDBSQLite3ThreadSafe.TubSQLite3Statement(17284CB0) PRAGMA table_info('uba_otp')
20180320 18263560  1  -    		00.000.025
20180320 18263560  1  -    	00.000.081
20180320 18263560  1 http  	127.0.0.1 <- 200
20180320 18263560  1  -    00.000.197
20180320 18263560  '  +    runSQL?CONNECTION=main
20180320 18263560  ' http  	127.0.0.1 -> POST runSQL?CONNECTION=main
20180320 18263560  ' http  	PRAGMA foreign_key_list('uba_otp')
20180320 18263560  ' auth  	admin/4605688
20180320 18263560  ' call  	endpoint runSQL
20180320 18263560  '  +    	ubApp.TubApp(02AB3EE0).DBExecute
20180320 18263560  '  +    		ubApp.TubApp(02AB3EE0).TubApp.InternalDBExecute
20180320 18263560  ' SQL   			ubDBSQLite3ThreadSafe.TubSQLite3Statement(17284CB0) PRAGMA foreign_key_list('uba_otp')
20180320 18263560  '  -    		00.000.023
20180320 18263560  '  -    	00.000.053
20180320 18263560  ' http  	127.0.0.1 <- 200
20180320 18263560  '  -    00.000.187
20180320 18263560  +  +    runSQL?CONNECTION=main
20180320 18263560  + http  	127.0.0.1 -> POST runSQL?CONNECTION=main
20180320 18263560  + http  	PRAGMA index_list('uba_otp')
20180320 18263560  + auth  	admin/4605688
20180320 18263560  + call  	endpoint runSQL
20180320 18263560  +  +    	ubApp.TubApp(02AB3EE0).DBExecute
20180320 18263560  +  +    		ubApp.TubApp(02AB3EE0).TubApp.InternalDBExecute
20180320 18263560  + SQL   			ubDBSQLite3ThreadSafe.TubSQLite3Statement(17284CB0) PRAGMA index_list('uba_otp')
20180320 18263560  +  -    		00.000.019
20180320 18263560  +  -    	00.000.047
20180320 18263560  + http  	127.0.0.1 <- 200
20180320 18263560  +  -    00.000.153
20180320 18263560  #  +    runSQL?CONNECTION=main
20180320 18263560  # http  	127.0.0.1 -> POST runSQL?CONNECTION=main
20180320 18263560  # http  	PRAGMA index_xinfo(uidx_otp)
20180320 18263560  # auth  	admin/4605688
20180320 18263560  # call  	endpoint runSQL
20180320 18263560  #  +    	ubApp.TubApp(02AB3EE0).DBExecute
20180320 18263560  #  +    		ubApp.TubApp(02AB3EE0).TubApp.InternalDBExecute
20180320 18263560  # SQL   			ubDBSQLite3ThreadSafe.TubSQLite3Statement(17284CB0) PRAGMA index_xinfo(uidx_otp)
20180320 18263560  #  -    		00.000.017
20180320 18263560  #  -    	00.000.042
20180320 18263560  # http  	127.0.0.1 <- 200
20180320 18263560  #  -    00.000.144
20180320 18263560  $  +    runSQL?CONNECTION=main
20180320 18263560  $ http  	127.0.0.1 -> POST runSQL?CONNECTION=main
20180320 18263560  $ http  	PRAGMA index_xinfo(IDX_OTP_MI_DELETEUSER)
20180320 18263560  $ auth  	admin/4605688
20180320 18263560  $ call  	endpoint runSQL
20180320 18263560  $  +    	ubApp.TubApp(02AB3EE0).DBExecute
20180320 18263560  $  +    		ubApp.TubApp(02AB3EE0).TubApp.InternalDBExecute
20180320 18263560  $ SQL   			ubDBSQLite3ThreadSafe.TubSQLite3Statement(17284CB0) PRAGMA index_xinfo(IDX_OTP_MI_DELETEUSER)
20180320 18263560  $  -    		00.000.018
20180320 18263560  $  -    	00.000.044
20180320 18263560  $ http  	127.0.0.1 <- 200
20180320 18263560  $  -    00.000.153
20180320 18263560  "  +    runSQL?CONNECTION=main
20180320 18263560  " http  	127.0.0.1 -> POST runSQL?CONNECTION=main
20180320 18263560  " http  	PRAGMA index_xinfo(IDX_OTP_MI_MODIFYUSER)
20180320 18263560  " auth  	admin/4605688
20180320 18263560  " call  	endpoint runSQL
20180320 18263560  "  +    	ubApp.TubApp(02AB3EE0).DBExecute
20180320 18263560  "  +    		ubApp.TubApp(02AB3EE0).TubApp.InternalDBExecute
20180320 18263560  " SQL   			ubDBSQLite3ThreadSafe.TubSQLite3Statement(17284CB0) PRAGMA index_xinfo(IDX_OTP_MI_MODIFYUSER)
20180320 18263560  "  -    		00.000.017
20180320 18263560  "  -    	00.000.041
20180320 18263560  " http  	127.0.0.1 <- 200
20180320 18263560  "  -    00.000.160
20180320 18263560  0  +    runSQL?CONNECTION=main
20180320 18263560  0 http  	127.0.0.1 -> POST runSQL?CONNECTION=main
20180320 18263560  0 http  	PRAGMA index_xinfo(IDX_OTP_MI_CREATEUSER)
20180320 18263560  0 auth  	admin/4605688
20180320 18263560  0 call  	endpoint runSQL
20180320 18263560  0  +    	ubApp.TubApp(02AB3EE0).DBExecute
20180320 18263560  0  +    		ubApp.TubApp(02AB3EE0).TubApp.InternalDBExecute
20180320 18263560  0 SQL   			ubDBSQLite3ThreadSafe.TubSQLite3Statement(17284CB0) PRAGMA index_xinfo(IDX_OTP_MI_CREATEUSER)
20180320 18263560  0  -    		00.000.020
20180320 18263560  0  -    	00.000.045
20180320 18263560  0 http  	127.0.0.1 <- 200
20180320 18263560  0  -    00.000.161
20180320 18263560  ,  +    runSQL?CONNECTION=main
20180320 18263560  , http  	127.0.0.1 -> POST runSQL?CONNECTION=main
20180320 18263560  , http  	PRAGMA index_xinfo(IDX_OTP_MI_OWNER)
20180320 18263560  , auth  	admin/4605688
20180320 18263560  , call  	endpoint runSQL
20180320 18263560  ,  +    	ubApp.TubApp(02AB3EE0).DBExecute
20180320 18263560  ,  +    		ubApp.TubApp(02AB3EE0).TubApp.InternalDBExecute
20180320 18263560  , SQL   			ubDBSQLite3ThreadSafe.TubSQLite3Statement(17284CB0) PRAGMA index_xinfo(IDX_OTP_MI_OWNER)
20180320 18263560  ,  -    		00.000.018
20180320 18263560  ,  -    	00.000.044
20180320 18263560  , http  	127.0.0.1 <- 200
20180320 18263560  ,  -    00.000.153
20180320 18263560  .  +    runSQL?CONNECTION=main
20180320 18263560  . http  	127.0.0.1 -> POST runSQL?CONNECTION=main
20180320 18263560  . http  	PRAGMA index_xinfo(IDX_OTP_USERID)
20180320 18263560  . auth  	admin/4605688
20180320 18263560  . call  	endpoint runSQL
20180320 18263560  .  +    	ubApp.TubApp(02AB3EE0).DBExecute
20180320 18263560  .  +    		ubApp.TubApp(02AB3EE0).TubApp.InternalDBExecute
20180320 18263560  . SQL   			ubDBSQLite3ThreadSafe.TubSQLite3Statement(17284CB0) PRAGMA index_xinfo(IDX_OTP_USERID)
20180320 18263560  .  -    		00.000.017
20180320 18263560  .  -    	00.000.043
20180320 18263560  . http  	127.0.0.1 <- 200
20180320 18263560  .  -    00.000.179
20180320 18263560  %  +    runSQL?CONNECTION=main
20180320 18263560  % http  	127.0.0.1 -> POST runSQL?CONNECTION=main
20180320 18263560  % http  	PRAGMA table_info('uba_prevPasswordsHash')
20180320 18263560  % auth  	admin/4605688
20180320 18263560  % call  	endpoint runSQL
20180320 18263560  %  +    	ubApp.TubApp(02AB3EE0).DBExecute
20180320 18263560  %  +    		ubApp.TubApp(02AB3EE0).TubApp.InternalDBExecute
20180320 18263560  % SQL   			ubDBSQLite3ThreadSafe.TubSQLite3Statement(17284CB0) PRAGMA table_info('uba_prevPasswordsHash')
20180320 18263560  %  -    		00.000.021
20180320 18263560  %  -    	00.000.052
20180320 18263560  % http  	127.0.0.1 <- 200
20180320 18263560  %  -    00.000.182
20180320 18263560  )  +    runSQL?CONNECTION=main
20180320 18263560  ) http  	127.0.0.1 -> POST runSQL?CONNECTION=main
20180320 18263560  ) http  	PRAGMA foreign_key_list('uba_prevPasswordsHash')
20180320 18263560  ) auth  	admin/4605688
20180320 18263560  ) call  	endpoint runSQL
20180320 18263560  )  +    	ubApp.TubApp(02AB3EE0).DBExecute
20180320 18263560  )  +    		ubApp.TubApp(02AB3EE0).TubApp.InternalDBExecute
20180320 18263560  ) SQL   			ubDBSQLite3ThreadSafe.TubSQLite3Statement(17284CB0) PRAGMA foreign_key_list('uba_prevPasswordsHash')
20180320 18263560  )  -    		00.000.022
20180320 18263560  )  -    	00.000.054
20180320 18263560  ) http  	127.0.0.1 <- 200
20180320 18263560  )  -    00.000.171
20180320 18263560  /  +    runSQL?CONNECTION=main
20180320 18263560  / http  	127.0.0.1 -> POST runSQL?CONNECTION=main
20180320 18263560  / http  	PRAGMA index_list('uba_prevPasswordsHash')
20180320 18263560  / auth  	admin/4605688
20180320 18263560  / call  	endpoint runSQL
20180320 18263560  /  +    	ubApp.TubApp(02AB3EE0).DBExecute
20180320 18263560  /  +    		ubApp.TubApp(02AB3EE0).TubApp.InternalDBExecute
20180320 18263560  / SQL   			ubDBSQLite3ThreadSafe.TubSQLite3Statement(17284CB0) PRAGMA index_list('uba_prevPasswordsHash')
20180320 18263560  /  -    		00.000.019
20180320 18263560  /  -    	00.000.046
20180320 18263560  / http  	127.0.0.1 <- 200
20180320 18263560  /  -    00.000.153
20180320 18263560  &  +    runSQL?CONNECTION=main
20180320 18263560  & http  	127.0.0.1 -> POST runSQL?CONNECTION=main
20180320 18263560  & http  	PRAGMA index_xinfo(IDX_PREVP_MI_MODIFYUSER)
20180320 18263560  & auth  	admin/4605688
20180320 18263560  & call  	endpoint runSQL
20180320 18263560  &  +    	ubApp.TubApp(02AB3EE0).DBExecute
20180320 18263560  &  +    		ubApp.TubApp(02AB3EE0).TubApp.InternalDBExecute
20180320 18263560  & SQL   			ubDBSQLite3ThreadSafe.TubSQLite3Statement(17284CB0) PRAGMA index_xinfo(IDX_PREVP_MI_MODIFYUSER)
20180320 18263560  &  -    		00.000.016
20180320 18263560  &  -    	00.000.039
20180320 18263560  & http  	127.0.0.1 <- 200
20180320 18263560  &  -    00.000.140
20180320 18263560  -  +    runSQL?CONNECTION=main
20180320 18263560  - http  	127.0.0.1 -> POST runSQL?CONNECTION=main
20180320 18263560  - http  	PRAGMA index_xinfo(IDX_PREVP_MI_CREATEUSER)
20180320 18263560  - auth  	admin/4605688
20180320 18263560  - call  	endpoint runSQL
20180320 18263560  -  +    	ubApp.TubApp(02AB3EE0).DBExecute
20180320 18263560  -  +    		ubApp.TubApp(02AB3EE0).TubApp.InternalDBExecute
20180320 18263560  - SQL   			ubDBSQLite3ThreadSafe.TubSQLite3Statement(17284CB0) PRAGMA index_xinfo(IDX_PREVP_MI_CREATEUSER)
20180320 18263560  -  -    		00.000.019
20180320 18263560  -  -    	00.000.046
20180320 18263560  - http  	127.0.0.1 <- 200
20180320 18263560  -  -    00.000.158
20180320 18263560  (  +    runSQL?CONNECTION=main
20180320 18263560  ( http  	127.0.0.1 -> POST runSQL?CONNECTION=main
20180320 18263560  ( http  	PRAGMA index_xinfo(IDX_PREVP_MI_OWNER)
20180320 18263560  ( auth  	admin/4605688
20180320 18263560  ( call  	endpoint runSQL
20180320 18263560  (  +    	ubApp.TubApp(02AB3EE0).DBExecute
20180320 18263560  (  +    		ubApp.TubApp(02AB3EE0).TubApp.InternalDBExecute
20180320 18263560  ( SQL   			ubDBSQLite3ThreadSafe.TubSQLite3Statement(17284CB0) PRAGMA index_xinfo(IDX_PREVP_MI_OWNER)
20180320 18263560  (  -    		00.000.018
20180320 18263560  (  -    	00.000.043
20180320 18263560  ( http  	127.0.0.1 <- 200
20180320 18263560  (  -    00.000.159
20180320 18263561  *  +    runSQL?CONNECTION=main
20180320 18263561  * http  	127.0.0.1 -> POST runSQL?CONNECTION=main
20180320 18263561  * http  	PRAGMA index_xinfo(IDX_PREVP_USERID)
20180320 18263561  * auth  	admin/4605688
20180320 18263561  * call  	endpoint runSQL
20180320 18263561  *  +    	ubApp.TubApp(02AB3EE0).DBExecute
20180320 18263561  *  +    		ubApp.TubApp(02AB3EE0).TubApp.InternalDBExecute
20180320 18263561  * SQL   			ubDBSQLite3ThreadSafe.TubSQLite3Statement(17284CB0) PRAGMA index_xinfo(IDX_PREVP_USERID)
20180320 18263561  *  -    		00.000.018
20180320 18263561  *  -    	00.000.044
20180320 18263561  * http  	127.0.0.1 <- 200
20180320 18263561  *  -    00.000.152
20180320 18263561  1  +    runSQL?CONNECTION=main
20180320 18263561  1 http  	127.0.0.1 -> POST runSQL?CONNECTION=main
20180320 18263561  1 http  	PRAGMA table_info('uba_usercertificate')
20180320 18263561  1 auth  	admin/4605688
20180320 18263561  1 call  	endpoint runSQL
20180320 18263561  1  +    	ubApp.TubApp(02AB3EE0).DBExecute
20180320 18263561  1  +    		ubApp.TubApp(02AB3EE0).TubApp.InternalDBExecute
20180320 18263561  1 SQL   			ubDBSQLite3ThreadSafe.TubSQLite3Statement(17284CB0) PRAGMA table_info('uba_usercertificate')
20180320 18263561  1  -    		00.000.024
20180320 18263561  1  -    	00.000.063
20180320 18263561  1 http  	127.0.0.1 <- 200
20180320 18263561  1  -    00.000.172
20180320 18263561  '  +    runSQL?CONNECTION=main
20180320 18263561  ' http  	127.0.0.1 -> POST runSQL?CONNECTION=main
20180320 18263561  ' http  	PRAGMA foreign_key_list('uba_usercertificate')
20180320 18263561  ' auth  	admin/4605688
20180320 18263561  ' call  	endpoint runSQL
20180320 18263561  '  +    	ubApp.TubApp(02AB3EE0).DBExecute
20180320 18263561  '  +    		ubApp.TubApp(02AB3EE0).TubApp.InternalDBExecute
20180320 18263561  ' SQL   			ubDBSQLite3ThreadSafe.TubSQLite3Statement(17284CB0) PRAGMA foreign_key_list('uba_usercertificate')
20180320 18263561  '  -    		00.000.022
20180320 18263561  '  -    	00.000.052
20180320 18263561  ' http  	127.0.0.1 <- 200
20180320 18263561  '  -    00.000.165
20180320 18263561  +  +    runSQL?CONNECTION=main
20180320 18263561  + http  	127.0.0.1 -> POST runSQL?CONNECTION=main
20180320 18263561  + http  	PRAGMA index_list('uba_usercertificate')
20180320 18263561  + auth  	admin/4605688
20180320 18263561  + call  	endpoint runSQL
20180320 18263561  +  +    	ubApp.TubApp(02AB3EE0).DBExecute
20180320 18263561  +  +    		ubApp.TubApp(02AB3EE0).TubApp.InternalDBExecute
20180320 18263561  + SQL   			ubDBSQLite3ThreadSafe.TubSQLite3Statement(17284CB0) PRAGMA index_list('uba_usercertificate')
20180320 18263561  +  -    		00.000.019
20180320 18263561  +  -    	00.000.045
20180320 18263561  + http  	127.0.0.1 <- 200
20180320 18263561  +  -    00.000.154
20180320 18263561  #  +    runSQL?CONNECTION=main
20180320 18263561  # http  	127.0.0.1 -> POST runSQL?CONNECTION=main
20180320 18263561  # http  	PRAGMA index_xinfo(uidx_usercert)
20180320 18263561  # auth  	admin/4605688
20180320 18263561  # call  	endpoint runSQL
20180320 18263561  #  +    	ubApp.TubApp(02AB3EE0).DBExecute
20180320 18263561  #  +    		ubApp.TubApp(02AB3EE0).TubApp.InternalDBExecute
20180320 18263561  # SQL   			ubDBSQLite3ThreadSafe.TubSQLite3Statement(17284CB0) PRAGMA index_xinfo(uidx_usercert)
20180320 18263561  #  -    		00.000.019
20180320 18263561  #  -    	00.000.047
20180320 18263561  # http  	127.0.0.1 <- 200
20180320 18263561  #  -    00.000.164
20180320 18263561  $  +    runSQL?CONNECTION=main
20180320 18263561  $ http  	127.0.0.1 -> POST runSQL?CONNECTION=main
20180320 18263561  $ http  	PRAGMA index_xinfo(IDX_USRCER_MI_MODIFYUSER)
20180320 18263561  $ auth  	admin/4605688
20180320 18263561  $ call  	endpoint runSQL
20180320 18263561  $  +    	ubApp.TubApp(02AB3EE0).DBExecute
20180320 18263561  $  +    		ubApp.TubApp(02AB3EE0).TubApp.InternalDBExecute
20180320 18263561  $ SQL   			ubDBSQLite3ThreadSafe.TubSQLite3Statement(17284CB0) PRAGMA index_xinfo(IDX_USRCER_MI_MODIFYUSER)
20180320 18263561  $  -    		00.000.018
20180320 18263561  $  -    	00.000.043
20180320 18263561  $ http  	127.0.0.1 <- 200
20180320 18263561  $  -    00.000.151
20180320 18263561  "  +    runSQL?CONNECTION=main
20180320 18263561  " http  	127.0.0.1 -> POST runSQL?CONNECTION=main
20180320 18263561  " http  	PRAGMA index_xinfo(IDX_USRCER_MI_CREATEUSER)
20180320 18263561  " auth  	admin/4605688
20180320 18263561  " call  	endpoint runSQL
20180320 18263561  "  +    	ubApp.TubApp(02AB3EE0).DBExecute
20180320 18263561  "  +    		ubApp.TubApp(02AB3EE0).TubApp.InternalDBExecute
20180320 18263561  " SQL   			ubDBSQLite3ThreadSafe.TubSQLite3Statement(17284CB0) PRAGMA index_xinfo(IDX_USRCER_MI_CREATEUSER)
20180320 18263561  "  -    		00.000.017
20180320 18263561  "  -    	00.000.041
20180320 18263561  " http  	127.0.0.1 <- 200
20180320 18263561  "  -    00.000.146
20180320 18263561  0  +    runSQL?CONNECTION=main
20180320 18263561  0 http  	127.0.0.1 -> POST runSQL?CONNECTION=main
20180320 18263561  0 http  	PRAGMA index_xinfo(IDX_USRCER_MI_OWNER)
20180320 18263561  0 auth  	admin/4605688
20180320 18263561  0 call  	endpoint runSQL
20180320 18263561  0  +    	ubApp.TubApp(02AB3EE0).DBExecute
20180320 18263561  0  +    		ubApp.TubApp(02AB3EE0).TubApp.InternalDBExecute
20180320 18263561  0 SQL   			ubDBSQLite3ThreadSafe.TubSQLite3Statement(17284CB0) PRAGMA index_xinfo(IDX_USRCER_MI_OWNER)
20180320 18263561  0  -    		00.000.017
20180320 18263561  0  -    	00.000.040
20180320 18263561  0 http  	127.0.0.1 <- 200
20180320 18263561  0  -    00.000.144
20180320 18263561  ,  +    runSQL?CONNECTION=main
20180320 18263561  , http  	127.0.0.1 -> POST runSQL?CONNECTION=main
20180320 18263561  , http  	PRAGMA index_xinfo(IDX_USRCER_USERID)
20180320 18263561  , auth  	admin/4605688
20180320 18263561  , call  	endpoint runSQL
20180320 18263561  ,  +    	ubApp.TubApp(02AB3EE0).DBExecute
20180320 18263561  ,  +    		ubApp.TubApp(02AB3EE0).TubApp.InternalDBExecute
20180320 18263561  , SQL   			ubDBSQLite3ThreadSafe.TubSQLite3Statement(17284CB0) PRAGMA index_xinfo(IDX_USRCER_USERID)
20180320 18263561  ,  -    		00.000.016
20180320 18263561  ,  -    	00.000.039
20180320 18263561  , http  	127.0.0.1 <- 200
20180320 18263561  ,  -    00.000.144
20180320 18263561  .  +    runSQL?CONNECTION=main
20180320 18263561  . http  	127.0.0.1 -> POST runSQL?CONNECTION=main
20180320 18263561  . http  	PRAGMA table_info('uba_usergroup')
20180320 18263561  . auth  	admin/4605688
20180320 18263561  . call  	endpoint runSQL
20180320 18263561  .  +    	ubApp.TubApp(02AB3EE0).DBExecute
20180320 18263561  .  +    		ubApp.TubApp(02AB3EE0).TubApp.InternalDBExecute
20180320 18263561  . SQL   			ubDBSQLite3ThreadSafe.TubSQLite3Statement(17284CB0) PRAGMA table_info('uba_usergroup')
20180320 18263561  .  -    		00.000.021
20180320 18263561  .  -    	00.000.052
20180320 18263561  . http  	127.0.0.1 <- 200
20180320 18263561  .  -    00.000.157
20180320 18263561  %  +    runSQL?CONNECTION=main
20180320 18263561  % http  	127.0.0.1 -> POST runSQL?CONNECTION=main
20180320 18263561  % http  	PRAGMA foreign_key_list('uba_usergroup')
20180320 18263561  % auth  	admin/4605688
20180320 18263561  % call  	endpoint runSQL
20180320 18263561  %  +    	ubApp.TubApp(02AB3EE0).DBExecute
20180320 18263561  %  +    		ubApp.TubApp(02AB3EE0).TubApp.InternalDBExecute
20180320 18263561  % SQL   			ubDBSQLite3ThreadSafe.TubSQLite3Statement(17284CB0) PRAGMA foreign_key_list('uba_usergroup')
20180320 18263561  %  -    		00.000.022
20180320 18263561  %  -    	00.000.055
20180320 18263561  % http  	127.0.0.1 <- 200
20180320 18263561  %  -    00.000.203
20180320 18263561  )  +    runSQL?CONNECTION=main
20180320 18263561  ) http  	127.0.0.1 -> POST runSQL?CONNECTION=main
20180320 18263561  ) http  	PRAGMA index_list('uba_usergroup')
20180320 18263561  ) auth  	admin/4605688
20180320 18263561  ) call  	endpoint runSQL
20180320 18263561  )  +    	ubApp.TubApp(02AB3EE0).DBExecute
20180320 18263561  )  +    		ubApp.TubApp(02AB3EE0).TubApp.InternalDBExecute
20180320 18263561  ) SQL   			ubDBSQLite3ThreadSafe.TubSQLite3Statement(17284CB0) PRAGMA index_list('uba_usergroup')
20180320 18263561  )  -    		00.000.019
20180320 18263561  )  -    	00.000.047
20180320 18263561  ) http  	127.0.0.1 <- 200
20180320 18263561  )  -    00.000.164
20180320 18263561  /  +    runSQL?CONNECTION=main
20180320 18263561  / http  	127.0.0.1 -> POST runSQL?CONNECTION=main
20180320 18263561  / http  	PRAGMA index_xinfo(UK_USRGROUP_USER_GROUP)
20180320 18263561  / auth  	admin/4605688
20180320 18263561  / call  	endpoint runSQL
20180320 18263561  /  +    	ubApp.TubApp(02AB3EE0).DBExecute
20180320 18263561  /  +    		ubApp.TubApp(02AB3EE0).TubApp.InternalDBExecute
20180320 18263561  / SQL   			ubDBSQLite3ThreadSafe.TubSQLite3Statement(17284CB0) PRAGMA index_xinfo(UK_USRGROUP_USER_GROUP)
20180320 18263561  /  -    		00.000.019
20180320 18263561  /  -    	00.000.047
20180320 18263561  / http  	127.0.0.1 <- 200
20180320 18263561  /  -    00.000.162
20180320 18263561  &  +    runSQL?CONNECTION=main
20180320 18263561  & http  	127.0.0.1 -> POST runSQL?CONNECTION=main
20180320 18263561  & http  	PRAGMA index_xinfo(IDX_USRGROUP_MI_MODIFYUSER)
20180320 18263561  & auth  	admin/4605688
20180320 18263561  & call  	endpoint runSQL
20180320 18263561  &  +    	ubApp.TubApp(02AB3EE0).DBExecute
20180320 18263561  &  +    		ubApp.TubApp(02AB3EE0).TubApp.InternalDBExecute
20180320 18263561  & SQL   			ubDBSQLite3ThreadSafe.TubSQLite3Statement(17284CB0) PRAGMA index_xinfo(IDX_USRGROUP_MI_MODIFYUSER)
20180320 18263561  &  -    		00.000.017
20180320 18263561  &  -    	00.000.041
20180320 18263561  & http  	127.0.0.1 <- 200
20180320 18263561  &  -    00.000.144
20180320 18263561  -  +    runSQL?CONNECTION=main
20180320 18263561  - http  	127.0.0.1 -> POST runSQL?CONNECTION=main
20180320 18263561  - http  	PRAGMA index_xinfo(IDX_USRGROUP_MI_CREATEUSER)
20180320 18263561  - auth  	admin/4605688
20180320 18263561  - call  	endpoint runSQL
20180320 18263561  -  +    	ubApp.TubApp(02AB3EE0).DBExecute
20180320 18263561  -  +    		ubApp.TubApp(02AB3EE0).TubApp.InternalDBExecute
20180320 18263561  - SQL   			ubDBSQLite3ThreadSafe.TubSQLite3Statement(17284CB0) PRAGMA index_xinfo(IDX_USRGROUP_MI_CREATEUSER)
20180320 18263561  -  -    		00.000.017
20180320 18263561  -  -    	00.000.040
20180320 18263561  - http  	127.0.0.1 <- 200
20180320 18263561  -  -    00.000.140
20180320 18263561  (  +    runSQL?CONNECTION=main
20180320 18263561  ( http  	127.0.0.1 -> POST runSQL?CONNECTION=main
20180320 18263561  ( http  	PRAGMA index_xinfo(IDX_USRGROUP_MI_OWNER)
20180320 18263561  ( auth  	admin/4605688
20180320 18263561  ( call  	endpoint runSQL
20180320 18263561  (  +    	ubApp.TubApp(02AB3EE0).DBExecute
20180320 18263561  (  +    		ubApp.TubApp(02AB3EE0).TubApp.InternalDBExecute
20180320 18263561  ( SQL   			ubDBSQLite3ThreadSafe.TubSQLite3Statement(17284CB0) PRAGMA index_xinfo(IDX_USRGROUP_MI_OWNER)
20180320 18263561  (  -    		00.000.016
20180320 18263561  (  -    	00.000.039
20180320 18263561  ( http  	127.0.0.1 <- 200
20180320 18263561  (  -    00.000.145
20180320 18263561  *  +    runSQL?CONNECTION=main
20180320 18263561  * http  	127.0.0.1 -> POST runSQL?CONNECTION=main
20180320 18263561  * http  	PRAGMA index_xinfo(IDX_USRGROUP_GROUPID)
20180320 18263561  * auth  	admin/4605688
20180320 18263561  * call  	endpoint runSQL
20180320 18263561  *  +    	ubApp.TubApp(02AB3EE0).DBExecute
20180320 18263561  *  +    		ubApp.TubApp(02AB3EE0).TubApp.InternalDBExecute
20180320 18263561  * SQL   			ubDBSQLite3ThreadSafe.TubSQLite3Statement(17284CB0) PRAGMA index_xinfo(IDX_USRGROUP_GROUPID)
20180320 18263561  *  -    		00.000.016
20180320 18263561  *  -    	00.000.040
20180320 18263561  * http  	127.0.0.1 <- 200
20180320 18263561  *  -    00.000.140
20180320 18263561  1  +    runSQL?CONNECTION=main
20180320 18263561  1 http  	127.0.0.1 -> POST runSQL?CONNECTION=main
20180320 18263561  1 http  	PRAGMA index_xinfo(IDX_USRGROUP_USERID)
20180320 18263561  1 auth  	admin/4605688
20180320 18263561  1 call  	endpoint runSQL
20180320 18263561  1  +    	ubApp.TubApp(02AB3EE0).DBExecute
20180320 18263561  1  +    		ubApp.TubApp(02AB3EE0).TubApp.InternalDBExecute
20180320 18263561  1 SQL   			ubDBSQLite3ThreadSafe.TubSQLite3Statement(17284CB0) PRAGMA index_xinfo(IDX_USRGROUP_USERID)
20180320 18263561  1  -    		00.000.018
20180320 18263561  1  -    	00.000.043
20180320 18263561  1 http  	127.0.0.1 <- 200
20180320 18263561  1  -    00.000.159
20180320 18263561  '  +    runSQL?CONNECTION=main
20180320 18263561  ' http  	127.0.0.1 -> POST runSQL?CONNECTION=main
20180320 18263561  ' http  	PRAGMA table_info('ubs_filter')
20180320 18263561  ' auth  	admin/4605688
20180320 18263561  ' call  	endpoint runSQL
20180320 18263561  '  +    	ubApp.TubApp(02AB3EE0).DBExecute
20180320 18263561  '  +    		ubApp.TubApp(02AB3EE0).TubApp.InternalDBExecute
20180320 18263561  ' SQL   			ubDBSQLite3ThreadSafe.TubSQLite3Statement(17284CB0) PRAGMA table_info('ubs_filter')
20180320 18263561  '  -    		00.000.023
20180320 18263561  '  -    	00.000.060
20180320 18263561  ' http  	127.0.0.1 <- 200
20180320 18263561  '  -    00.000.200
20180320 18263561  +  +    runSQL?CONNECTION=main
20180320 18263561  + http  	127.0.0.1 -> POST runSQL?CONNECTION=main
20180320 18263561  + http  	PRAGMA foreign_key_list('ubs_filter')
20180320 18263562  + auth  	admin/4605688
20180320 18263562  + call  	endpoint runSQL
20180320 18263562  +  +    	ubApp.TubApp(02AB3EE0).DBExecute
20180320 18263562  +  +    		ubApp.TubApp(02AB3EE0).TubApp.InternalDBExecute
20180320 18263562  + SQL   			ubDBSQLite3ThreadSafe.TubSQLite3Statement(17284CB0) PRAGMA foreign_key_list('ubs_filter')
20180320 18263562  +  -    		00.000.021
20180320 18263562  +  -    	00.000.056
20180320 18263562  + http  	127.0.0.1 <- 200
20180320 18263562  +  -    00.000.176
20180320 18263562  #  +    runSQL?CONNECTION=main
20180320 18263562  # http  	127.0.0.1 -> POST runSQL?CONNECTION=main
20180320 18263562  # http  	PRAGMA index_list('ubs_filter')
20180320 18263562  # auth  	admin/4605688
20180320 18263562  # call  	endpoint runSQL
20180320 18263562  #  +    	ubApp.TubApp(02AB3EE0).DBExecute
20180320 18263562  #  +    		ubApp.TubApp(02AB3EE0).TubApp.InternalDBExecute
20180320 18263562  # SQL   			ubDBSQLite3ThreadSafe.TubSQLite3Statement(17284CB0) PRAGMA index_list('ubs_filter')
20180320 18263562  #  -    		00.000.022
20180320 18263562  #  -    	00.000.052
20180320 18263562  # http  	127.0.0.1 <- 200
20180320 18263562  #  -    00.000.183
20180320 18263562  $  +    runSQL?CONNECTION=main
20180320 18263562  $ http  	127.0.0.1 -> POST runSQL?CONNECTION=main
20180320 18263562  $ http  	PRAGMA index_xinfo(ix_ubs_filter_code)
20180320 18263562  $ auth  	admin/4605688
20180320 18263562  $ call  	endpoint runSQL
20180320 18263562  $  +    	ubApp.TubApp(02AB3EE0).DBExecute
20180320 18263562  $  +    		ubApp.TubApp(02AB3EE0).TubApp.InternalDBExecute
20180320 18263562  $ SQL   			ubDBSQLite3ThreadSafe.TubSQLite3Statement(17284CB0) PRAGMA index_xinfo(ix_ubs_filter_code)
20180320 18263562  $  -    		00.000.018
20180320 18263562  $  -    	00.000.044
20180320 18263562  $ http  	127.0.0.1 <- 200
20180320 18263562  $  -    00.000.154
20180320 18263562  "  +    runSQL?CONNECTION=main
20180320 18263562  " http  	127.0.0.1 -> POST runSQL?CONNECTION=main
20180320 18263562  " http  	PRAGMA index_xinfo(uix_ubs_filter)
20180320 18263562  " auth  	admin/4605688
20180320 18263562  " call  	endpoint runSQL
20180320 18263562  "  +    	ubApp.TubApp(02AB3EE0).DBExecute
20180320 18263562  "  +    		ubApp.TubApp(02AB3EE0).TubApp.InternalDBExecute
20180320 18263562  " SQL   			ubDBSQLite3ThreadSafe.TubSQLite3Statement(17284CB0) PRAGMA index_xinfo(uix_ubs_filter)
20180320 18263562  "  -    		00.000.018
20180320 18263562  "  -    	00.000.045
20180320 18263562  " http  	127.0.0.1 <- 200
20180320 18263562  "  -    00.000.150
20180320 18263562  0  +    runSQL?CONNECTION=main
20180320 18263562  0 http  	127.0.0.1 -> POST runSQL?CONNECTION=main
20180320 18263562  0 http  	PRAGMA index_xinfo(IDX_SFILTER_MI_MODIFYUSER)
20180320 18263562  0 auth  	admin/4605688
20180320 18263562  0 call  	endpoint runSQL
20180320 18263562  0  +    	ubApp.TubApp(02AB3EE0).DBExecute
20180320 18263562  0  +    		ubApp.TubApp(02AB3EE0).TubApp.InternalDBExecute
20180320 18263562  0 SQL   			ubDBSQLite3ThreadSafe.TubSQLite3Statement(17284CB0) PRAGMA index_xinfo(IDX_SFILTER_MI_MODIFYUSER)
20180320 18263562  0  -    		00.000.019
20180320 18263562  0  -    	00.000.047
20180320 18263562  0 http  	127.0.0.1 <- 200
20180320 18263562  0  -    00.000.171
20180320 18263562  ,  +    runSQL?CONNECTION=main
20180320 18263562  , http  	127.0.0.1 -> POST runSQL?CONNECTION=main
20180320 18263562  , http  	PRAGMA index_xinfo(IDX_SFILTER_MI_CREATEUSER)
20180320 18263562  , auth  	admin/4605688
20180320 18263562  , call  	endpoint runSQL
20180320 18263562  ,  +    	ubApp.TubApp(02AB3EE0).DBExecute
20180320 18263562  ,  +    		ubApp.TubApp(02AB3EE0).TubApp.InternalDBExecute
20180320 18263562  , SQL   			ubDBSQLite3ThreadSafe.TubSQLite3Statement(17284CB0) PRAGMA index_xinfo(IDX_SFILTER_MI_CREATEUSER)
20180320 18263562  ,  -    		00.000.017
20180320 18263562  ,  -    	00.000.043
20180320 18263562  , http  	127.0.0.1 <- 200
20180320 18263562  ,  -    00.000.158
20180320 18263562  .  +    runSQL?CONNECTION=main
20180320 18263562  . http  	127.0.0.1 -> POST runSQL?CONNECTION=main
20180320 18263562  . http  	PRAGMA index_xinfo(IDX_SFILTER_MI_OWNER)
20180320 18263562  . auth  	admin/4605688
20180320 18263562  . call  	endpoint runSQL
20180320 18263562  .  +    	ubApp.TubApp(02AB3EE0).DBExecute
20180320 18263562  .  +    		ubApp.TubApp(02AB3EE0).TubApp.InternalDBExecute
20180320 18263562  . SQL   			ubDBSQLite3ThreadSafe.TubSQLite3Statement(17284CB0) PRAGMA index_xinfo(IDX_SFILTER_MI_OWNER)
20180320 18263562  .  -    		00.000.018
20180320 18263562  .  -    	00.000.042
20180320 18263562  . http  	127.0.0.1 <- 200
20180320 18263562  .  -    00.000.150
20180320 18263562  %  +    runSQL?CONNECTION=main
20180320 18263562  % http  	127.0.0.1 -> POST runSQL?CONNECTION=main
20180320 18263562  % http  	PRAGMA index_xinfo(IDX_SFILTER_OWNER)
20180320 18263562  % auth  	admin/4605688
20180320 18263562  % call  	endpoint runSQL
20180320 18263562  %  +    	ubApp.TubApp(02AB3EE0).DBExecute
20180320 18263562  %  +    		ubApp.TubApp(02AB3EE0).TubApp.InternalDBExecute
20180320 18263562  % SQL   			ubDBSQLite3ThreadSafe.TubSQLite3Statement(17284CB0) PRAGMA index_xinfo(IDX_SFILTER_OWNER)
20180320 18263562  %  -    		00.000.019
20180320 18263562  %  -    	00.000.047
20180320 18263562  % http  	127.0.0.1 <- 200
20180320 18263562  %  -    00.000.165
20180320 18263562  )  +    runSQL?CONNECTION=main
20180320 18263562  ) http  	127.0.0.1 -> POST runSQL?CONNECTION=main
20180320 18263562  ) http  	PRAGMA table_info('ubs_message')
20180320 18263562  ) auth  	admin/4605688
20180320 18263562  ) call  	endpoint runSQL
20180320 18263562  )  +    	ubApp.TubApp(02AB3EE0).DBExecute
20180320 18263562  )  +    		ubApp.TubApp(02AB3EE0).TubApp.InternalDBExecute
20180320 18263562  ) SQL   			ubDBSQLite3ThreadSafe.TubSQLite3Statement(17284CB0) PRAGMA table_info('ubs_message')
20180320 18263562  )  -    		00.000.024
20180320 18263562  )  -    	00.000.061
20180320 18263562  ) http  	127.0.0.1 <- 200
20180320 18263562  )  -    00.000.174
20180320 18263562  /  +    runSQL?CONNECTION=main
20180320 18263562  / http  	127.0.0.1 -> POST runSQL?CONNECTION=main
20180320 18263562  / http  	PRAGMA foreign_key_list('ubs_message')
20180320 18263562  / auth  	admin/4605688
20180320 18263562  / call  	endpoint runSQL
20180320 18263562  /  +    	ubApp.TubApp(02AB3EE0).DBExecute
20180320 18263562  /  +    		ubApp.TubApp(02AB3EE0).TubApp.InternalDBExecute
20180320 18263562  / SQL   			ubDBSQLite3ThreadSafe.TubSQLite3Statement(17284CB0) PRAGMA foreign_key_list('ubs_message')
20180320 18263562  /  -    		00.000.022
20180320 18263562  /  -    	00.000.052
20180320 18263562  / http  	127.0.0.1 <- 200
20180320 18263562  /  -    00.000.165
20180320 18263562  &  +    runSQL?CONNECTION=main
20180320 18263562  & http  	127.0.0.1 -> POST runSQL?CONNECTION=main
20180320 18263562  & http  	PRAGMA index_list('ubs_message')
20180320 18263562  & auth  	admin/4605688
20180320 18263562  & call  	endpoint runSQL
20180320 18263562  &  +    	ubApp.TubApp(02AB3EE0).DBExecute
20180320 18263562  &  +    		ubApp.TubApp(02AB3EE0).TubApp.InternalDBExecute
20180320 18263562  & SQL   			ubDBSQLite3ThreadSafe.TubSQLite3Statement(17284CB0) PRAGMA index_list('ubs_message')
20180320 18263562  &  -    		00.000.019
20180320 18263562  &  -    	00.000.046
20180320 18263562  & http  	127.0.0.1 <- 200
20180320 18263562  &  -    00.000.153
20180320 18263562  -  +    runSQL?CONNECTION=main
20180320 18263562  - http  	127.0.0.1 -> POST runSQL?CONNECTION=main
20180320 18263562  - http  	PRAGMA index_xinfo(idx_ubsmsg_period)
20180320 18263562  - auth  	admin/4605688
20180320 18263562  - call  	endpoint runSQL
20180320 18263562  -  +    	ubApp.TubApp(02AB3EE0).DBExecute
20180320 18263562  -  +    		ubApp.TubApp(02AB3EE0).TubApp.InternalDBExecute
20180320 18263562  - SQL   			ubDBSQLite3ThreadSafe.TubSQLite3Statement(17284CB0) PRAGMA index_xinfo(idx_ubsmsg_period)
20180320 18263562  -  -    		00.000.017
20180320 18263562  -  -    	00.000.041
20180320 18263562  - http  	127.0.0.1 <- 200
20180320 18263562  -  -    00.000.142
20180320 18263562  (  +    runSQL?CONNECTION=main
20180320 18263562  ( http  	127.0.0.1 -> POST runSQL?CONNECTION=main
20180320 18263562  ( http  	PRAGMA index_xinfo(IDX_MSG_MI_DELETEUSER)
20180320 18263562  ( auth  	admin/4605688
20180320 18263562  ( call  	endpoint runSQL
20180320 18263562  (  +    	ubApp.TubApp(02AB3EE0).DBExecute
20180320 18263562  (  +    		ubApp.TubApp(02AB3EE0).TubApp.InternalDBExecute
20180320 18263562  ( SQL   			ubDBSQLite3ThreadSafe.TubSQLite3Statement(17284CB0) PRAGMA index_xinfo(IDX_MSG_MI_DELETEUSER)
20180320 18263562  (  -    		00.000.019
20180320 18263562  (  -    	00.000.049
20180320 18263562  ( http  	127.0.0.1 <- 200
20180320 18263562  (  -    00.000.169
20180320 18263562  *  +    runSQL?CONNECTION=main
20180320 18263562  * http  	127.0.0.1 -> POST runSQL?CONNECTION=main
20180320 18263562  * http  	PRAGMA index_xinfo(IDX_MSG_MI_MODIFYUSER)
20180320 18263562  * auth  	admin/4605688
20180320 18263562  * call  	endpoint runSQL
20180320 18263562  *  +    	ubApp.TubApp(02AB3EE0).DBExecute
20180320 18263562  *  +    		ubApp.TubApp(02AB3EE0).TubApp.InternalDBExecute
20180320 18263562  * SQL   			ubDBSQLite3ThreadSafe.TubSQLite3Statement(17284CB0) PRAGMA index_xinfo(IDX_MSG_MI_MODIFYUSER)
20180320 18263562  *  -    		00.000.016
20180320 18263562  *  -    	00.000.040
20180320 18263562  * http  	127.0.0.1 <- 200
20180320 18263562  *  -    00.000.184
20180320 18263562  1  +    runSQL?CONNECTION=main
20180320 18263562  1 http  	127.0.0.1 -> POST runSQL?CONNECTION=main
20180320 18263562  1 http  	PRAGMA index_xinfo(IDX_MSG_MI_CREATEUSER)
20180320 18263562  1 auth  	admin/4605688
20180320 18263562  1 call  	endpoint runSQL
20180320 18263562  1  +    	ubApp.TubApp(02AB3EE0).DBExecute
20180320 18263562  1  +    		ubApp.TubApp(02AB3EE0).TubApp.InternalDBExecute
20180320 18263562  1 SQL   			ubDBSQLite3ThreadSafe.TubSQLite3Statement(17284CB0) PRAGMA index_xinfo(IDX_MSG_MI_CREATEUSER)
20180320 18263562  1  -    		00.000.016
20180320 18263562  1  -    	00.000.038
20180320 18263562  1 http  	127.0.0.1 <- 200
20180320 18263562  1  -    00.000.138
20180320 18263562  '  +    runSQL?CONNECTION=main
20180320 18263562  ' http  	127.0.0.1 -> POST runSQL?CONNECTION=main
20180320 18263562  ' http  	PRAGMA index_xinfo(IDX_MSG_MI_OWNER)
20180320 18263562  ' auth  	admin/4605688
20180320 18263562  ' call  	endpoint runSQL
20180320 18263562  '  +    	ubApp.TubApp(02AB3EE0).DBExecute
20180320 18263562  '  +    		ubApp.TubApp(02AB3EE0).TubApp.InternalDBExecute
20180320 18263562  ' SQL   			ubDBSQLite3ThreadSafe.TubSQLite3Statement(17284CB0) PRAGMA index_xinfo(IDX_MSG_MI_OWNER)
20180320 18263562  '  -    		00.000.018
20180320 18263562  '  -    	00.000.043
20180320 18263562  ' http  	127.0.0.1 <- 200
20180320 18263562  '  -    00.000.151
20180320 18263562  +  +    runSQL?CONNECTION=main
20180320 18263562  + http  	127.0.0.1 -> POST runSQL?CONNECTION=main
20180320 18263562  + http  	PRAGMA table_info('ubs_message_recipient')
20180320 18263562  + auth  	admin/4605688
20180320 18263562  + call  	endpoint runSQL
20180320 18263562  +  +    	ubApp.TubApp(02AB3EE0).DBExecute
20180320 18263562  +  +    		ubApp.TubApp(02AB3EE0).TubApp.InternalDBExecute
20180320 18263562  + SQL   			ubDBSQLite3ThreadSafe.TubSQLite3Statement(17284CB0) PRAGMA table_info('ubs_message_recipient')
20180320 18263562  +  -    		00.000.019
20180320 18263562  +  -    	00.000.044
20180320 18263562  + http  	127.0.0.1 <- 200
20180320 18263562  +  -    00.000.193
20180320 18263562  #  +    runSQL?CONNECTION=main
20180320 18263562  # http  	127.0.0.1 -> POST runSQL?CONNECTION=main
20180320 18263562  # http  	PRAGMA foreign_key_list('ubs_message_recipient')
20180320 18263562  # auth  	admin/4605688
20180320 18263562  # call  	endpoint runSQL
20180320 18263562  #  +    	ubApp.TubApp(02AB3EE0).DBExecute
20180320 18263562  #  +    		ubApp.TubApp(02AB3EE0).TubApp.InternalDBExecute
20180320 18263562  # SQL   			ubDBSQLite3ThreadSafe.TubSQLite3Statement(17284CB0) PRAGMA foreign_key_list('ubs_message_recipient')
20180320 18263562  #  -    		00.000.019
20180320 18263562  #  -    	00.000.043
20180320 18263562  # http  	127.0.0.1 <- 200
20180320 18263562  #  -    00.000.144
20180320 18263562  $  +    runSQL?CONNECTION=main
20180320 18263562  $ http  	127.0.0.1 -> POST runSQL?CONNECTION=main
20180320 18263562  $ http  	PRAGMA index_list('ubs_message_recipient')
20180320 18263562  $ auth  	admin/4605688
20180320 18263562  $ call  	endpoint runSQL
20180320 18263562  $  +    	ubApp.TubApp(02AB3EE0).DBExecute
20180320 18263562  $  +    		ubApp.TubApp(02AB3EE0).TubApp.InternalDBExecute
20180320 18263562  $ SQL   			ubDBSQLite3ThreadSafe.TubSQLite3Statement(17284CB0) PRAGMA index_list('ubs_message_recipient')
20180320 18263562  $  -    		00.000.020
20180320 18263562  $  -    	00.000.047
20180320 18263562  $ http  	127.0.0.1 <- 200
20180320 18263562  $  -    00.000.158
20180320 18263562  "  +    runSQL?CONNECTION=main
20180320 18263562  " http  	127.0.0.1 -> POST runSQL?CONNECTION=main
20180320 18263562  " http  	PRAGMA index_xinfo(uidx_ubsmsg_rc)
20180320 18263562  " auth  	admin/4605688
20180320 18263562  " call  	endpoint runSQL
20180320 18263562  "  +    	ubApp.TubApp(02AB3EE0).DBExecute
20180320 18263562  "  +    		ubApp.TubApp(02AB3EE0).TubApp.InternalDBExecute
20180320 18263562  " SQL   			ubDBSQLite3ThreadSafe.TubSQLite3Statement(17284CB0) PRAGMA index_xinfo(uidx_ubsmsg_rc)
20180320 18263562  "  -    		00.000.016
20180320 18263562  "  -    	00.000.041
20180320 18263562  " http  	127.0.0.1 <- 200
20180320 18263562  "  -    00.000.139
20180320 18263562  0  +    runSQL?CONNECTION=main
20180320 18263562  0 http  	127.0.0.1 -> POST runSQL?CONNECTION=main
20180320 18263562  0 http  	PRAGMA index_xinfo(IDX_MSG_RC_USERID)
20180320 18263562  0 auth  	admin/4605688
20180320 18263562  0 call  	endpoint runSQL
20180320 18263562  0  +    	ubApp.TubApp(02AB3EE0).DBExecute
20180320 18263562  0  +    		ubApp.TubApp(02AB3EE0).TubApp.InternalDBExecute
20180320 18263562  0 SQL   			ubDBSQLite3ThreadSafe.TubSQLite3Statement(17284CB0) PRAGMA index_xinfo(IDX_MSG_RC_USERID)
20180320 18263562  0  -    		00.000.018
20180320 18263562  0  -    	00.000.044
20180320 18263562  0 http  	127.0.0.1 <- 200
20180320 18263562  0  -    00.000.153
20180320 18263562  ,  +    runSQL?CONNECTION=main
20180320 18263562  , http  	127.0.0.1 -> POST runSQL?CONNECTION=main
20180320 18263562  , http  	PRAGMA index_xinfo(IDX_MSG_RC_MESSAGEID)
20180320 18263562  , auth  	admin/4605688
20180320 18263562  , call  	endpoint runSQL
20180320 18263562  ,  +    	ubApp.TubApp(02AB3EE0).DBExecute
20180320 18263562  ,  +    		ubApp.TubApp(02AB3EE0).TubApp.InternalDBExecute
20180320 18263562  , SQL   			ubDBSQLite3ThreadSafe.TubSQLite3Statement(17284CB0) PRAGMA index_xinfo(IDX_MSG_RC_MESSAGEID)
20180320 18263562  ,  -    		00.000.017
20180320 18263562  ,  -    	00.000.043
20180320 18263562  , http  	127.0.0.1 <- 200
20180320 18263562  ,  -    00.000.154
20180320 18263562  .  +    runSQL?CONNECTION=main
20180320 18263562  . http  	127.0.0.1 -> POST runSQL?CONNECTION=main
20180320 18263562  . http  	PRAGMA table_info('ubs_numcounter')
20180320 18263562  . auth  	admin/4605688
20180320 18263562  . call  	endpoint runSQL
20180320 18263562  .  +    	ubApp.TubApp(02AB3EE0).DBExecute
20180320 18263562  .  +    		ubApp.TubApp(02AB3EE0).TubApp.InternalDBExecute
20180320 18263562  . SQL   			ubDBSQLite3ThreadSafe.TubSQLite3Statement(17284CB0) PRAGMA table_info('ubs_numcounter')
20180320 18263562  .  -    		00.000.019
20180320 18263562  .  -    	00.000.049
20180320 18263562  . http  	127.0.0.1 <- 200
20180320 18263562  .  -    00.000.161
20180320 18263600  %  +    runSQL?CONNECTION=main
20180320 18263600  % http  	127.0.0.1 -> POST runSQL?CONNECTION=main
20180320 18263600  % http  	PRAGMA foreign_key_list('ubs_numcounter')
20180320 18263600  % auth  	admin/4605688
20180320 18263600  % call  	endpoint runSQL
20180320 18263600  %  +    	ubApp.TubApp(02AB3EE0).DBExecute
20180320 18263600  %  +    		ubApp.TubApp(02AB3EE0).TubApp.InternalDBExecute
20180320 18263600  % SQL   			ubDBSQLite3ThreadSafe.TubSQLite3Statement(17284CB0) PRAGMA foreign_key_list('ubs_numcounter')
20180320 18263600  %  -    		00.000.017
20180320 18263600  %  -    	00.000.027
20180320 18263600  % http  	127.0.0.1 <- 200
20180320 18263600  %  -    00.000.129
20180320 18263600  )  +    runSQL?CONNECTION=main
20180320 18263600  ) http  	127.0.0.1 -> POST runSQL?CONNECTION=main
20180320 18263600  ) http  	PRAGMA index_list('ubs_numcounter')
20180320 18263600  ) auth  	admin/4605688
20180320 18263600  ) call  	endpoint runSQL
20180320 18263600  )  +    	ubApp.TubApp(02AB3EE0).DBExecute
20180320 18263600  )  +    		ubApp.TubApp(02AB3EE0).TubApp.InternalDBExecute
20180320 18263600  ) SQL   			ubDBSQLite3ThreadSafe.TubSQLite3Statement(17284CB0) PRAGMA index_list('ubs_numcounter')
20180320 18263600  )  -    		00.000.016
20180320 18263600  )  -    	00.000.041
20180320 18263600  ) http  	127.0.0.1 <- 200
20180320 18263600  )  -    00.000.142
20180320 18263600  /  +    runSQL?CONNECTION=main
20180320 18263600  / http  	127.0.0.1 -> POST runSQL?CONNECTION=main
20180320 18263600  / http  	PRAGMA index_xinfo(UIDX_NUCO_REGKEY)
20180320 18263600  / auth  	admin/4605688
20180320 18263600  / call  	endpoint runSQL
20180320 18263600  /  +    	ubApp.TubApp(02AB3EE0).DBExecute
20180320 18263600  /  +    		ubApp.TubApp(02AB3EE0).TubApp.InternalDBExecute
20180320 18263600  / SQL   			ubDBSQLite3ThreadSafe.TubSQLite3Statement(17284CB0) PRAGMA index_xinfo(UIDX_NUCO_REGKEY)
20180320 18263600  /  -    		00.000.018
20180320 18263600  /  -    	00.000.043
20180320 18263600  / http  	127.0.0.1 <- 200
20180320 18263600  /  -    00.000.146
20180320 18263600  &  +    runSQL?CONNECTION=main
20180320 18263600  & http  	127.0.0.1 -> POST runSQL?CONNECTION=main
20180320 18263600  & http  	PRAGMA table_info('ubs_numcounterreserv')
20180320 18263600  & auth  	admin/4605688
20180320 18263600  & call  	endpoint runSQL
20180320 18263600  &  +    	ubApp.TubApp(02AB3EE0).DBExecute
20180320 18263600  &  +    		ubApp.TubApp(02AB3EE0).TubApp.InternalDBExecute
20180320 18263600  & SQL   			ubDBSQLite3ThreadSafe.TubSQLite3Statement(17284CB0) PRAGMA table_info('ubs_numcounterreserv')
20180320 18263600  &  -    		00.000.021
20180320 18263600  &  -    	00.000.054
20180320 18263600  & http  	127.0.0.1 <- 200
20180320 18263600  &  -    00.000.201
20180320 18263600  -  +    runSQL?CONNECTION=main
20180320 18263600  - http  	127.0.0.1 -> POST runSQL?CONNECTION=main
20180320 18263600  - http  	PRAGMA foreign_key_list('ubs_numcounterreserv')
20180320 18263600  - auth  	admin/4605688
20180320 18263600  - call  	endpoint runSQL
20180320 18263600  -  +    	ubApp.TubApp(02AB3EE0).DBExecute
20180320 18263600  -  +    		ubApp.TubApp(02AB3EE0).TubApp.InternalDBExecute
20180320 18263600  - SQL   			ubDBSQLite3ThreadSafe.TubSQLite3Statement(17284CB0) PRAGMA foreign_key_list('ubs_numcounterreserv')
20180320 18263600  -  -    		00.000.016
20180320 18263600  -  -    	00.000.026
20180320 18263600  - http  	127.0.0.1 <- 200
20180320 18263600  -  -    00.000.129
20180320 18263600  (  +    runSQL?CONNECTION=main
20180320 18263600  ( http  	127.0.0.1 -> POST runSQL?CONNECTION=main
20180320 18263600  ( http  	PRAGMA index_list('ubs_numcounterreserv')
20180320 18263600  ( auth  	admin/4605688
20180320 18263600  ( call  	endpoint runSQL
20180320 18263600  (  +    	ubApp.TubApp(02AB3EE0).DBExecute
20180320 18263600  (  +    		ubApp.TubApp(02AB3EE0).TubApp.InternalDBExecute
20180320 18263600  ( SQL   			ubDBSQLite3ThreadSafe.TubSQLite3Statement(17284CB0) PRAGMA index_list('ubs_numcounterreserv')
20180320 18263600  (  -    		00.000.016
20180320 18263600  (  -    	00.000.040
20180320 18263600  ( http  	127.0.0.1 <- 200
20180320 18263600  (  -    00.000.138
20180320 18263600  *  +    runSQL?CONNECTION=main
20180320 18263600  * http  	127.0.0.1 -> POST runSQL?CONNECTION=main
20180320 18263600  * http  	PRAGMA index_xinfo(UK_UBS_NUMCOUNT_RKC)
20180320 18263600  * auth  	admin/4605688
20180320 18263600  * call  	endpoint runSQL
20180320 18263600  *  +    	ubApp.TubApp(02AB3EE0).DBExecute
20180320 18263600  *  +    		ubApp.TubApp(02AB3EE0).TubApp.InternalDBExecute
20180320 18263600  * SQL   			ubDBSQLite3ThreadSafe.TubSQLite3Statement(17284CB0) PRAGMA index_xinfo(UK_UBS_NUMCOUNT_RKC)
20180320 18263600  *  -    		00.000.019
20180320 18263600  *  -    	00.000.050
20180320 18263600  * http  	127.0.0.1 <- 200
20180320 18263600  *  -    00.000.204
20180320 18263600  1  +    runSQL?CONNECTION=main
20180320 18263600  1 http  	127.0.0.1 -> POST runSQL?CONNECTION=main
20180320 18263600  1 http  	PRAGMA table_info('ubs_softLock')
20180320 18263600  1 auth  	admin/4605688
20180320 18263600  1 call  	endpoint runSQL
20180320 18263600  1  +    	ubApp.TubApp(02AB3EE0).DBExecute
20180320 18263600  1  +    		ubApp.TubApp(02AB3EE0).TubApp.InternalDBExecute
20180320 18263600  1 SQL   			ubDBSQLite3ThreadSafe.TubSQLite3Statement(17284CB0) PRAGMA table_info('ubs_softLock')
20180320 18263600  1  -    		00.000.020
20180320 18263600  1  -    	00.000.052
20180320 18263600  1 http  	127.0.0.1 <- 200
20180320 18263600  1  -    00.000.164
20180320 18263600  '  +    runSQL?CONNECTION=main
20180320 18263600  ' http  	127.0.0.1 -> POST runSQL?CONNECTION=main
20180320 18263600  ' http  	PRAGMA foreign_key_list('ubs_softLock')
20180320 18263600  ' auth  	admin/4605688
20180320 18263600  ' call  	endpoint runSQL
20180320 18263600  '  +    	ubApp.TubApp(02AB3EE0).DBExecute
20180320 18263600  '  +    		ubApp.TubApp(02AB3EE0).TubApp.InternalDBExecute
20180320 18263600  ' SQL   			ubDBSQLite3ThreadSafe.TubSQLite3Statement(17284CB0) PRAGMA foreign_key_list('ubs_softLock')
20180320 18263600  '  -    		00.000.017
20180320 18263600  '  -    	00.000.040
20180320 18263600  ' http  	127.0.0.1 <- 200
20180320 18263600  '  -    00.000.140
20180320 18263600  +  +    runSQL?CONNECTION=main
20180320 18263600  + http  	127.0.0.1 -> POST runSQL?CONNECTION=main
20180320 18263600  + http  	PRAGMA index_list('ubs_softLock')
20180320 18263600  + auth  	admin/4605688
20180320 18263600  + call  	endpoint runSQL
20180320 18263600  +  +    	ubApp.TubApp(02AB3EE0).DBExecute
20180320 18263600  +  +    		ubApp.TubApp(02AB3EE0).TubApp.InternalDBExecute
20180320 18263600  + SQL   			ubDBSQLite3ThreadSafe.TubSQLite3Statement(17284CB0) PRAGMA index_list('ubs_softLock')
20180320 18263600  +  -    		00.000.016
20180320 18263600  +  -    	00.000.040
20180320 18263600  + http  	127.0.0.1 <- 200
20180320 18263600  +  -    00.000.140
20180320 18263600  #  +    runSQL?CONNECTION=main
20180320 18263600  # http  	127.0.0.1 -> POST runSQL?CONNECTION=main
20180320 18263600  # http  	PRAGMA index_xinfo(UIDX_SOFTLOCK_LOENT)
20180320 18263600  # auth  	admin/4605688
20180320 18263600  # call  	endpoint runSQL
20180320 18263600  #  +    	ubApp.TubApp(02AB3EE0).DBExecute
20180320 18263600  #  +    		ubApp.TubApp(02AB3EE0).TubApp.InternalDBExecute
20180320 18263600  # SQL   			ubDBSQLite3ThreadSafe.TubSQLite3Statement(17284CB0) PRAGMA index_xinfo(UIDX_SOFTLOCK_LOENT)
20180320 18263600  #  -    		00.000.017
20180320 18263600  #  -    	00.000.039
20180320 18263600  # http  	127.0.0.1 <- 200
20180320 18263600  #  -    00.000.140
20180320 18263600  $  +    runSQL?CONNECTION=main
20180320 18263600  $ http  	127.0.0.1 -> POST runSQL?CONNECTION=main
20180320 18263600  $ http  	PRAGMA index_xinfo(IDX_SLOCK_LOCKUSER)
20180320 18263600  $ auth  	admin/4605688
20180320 18263600  $ call  	endpoint runSQL
20180320 18263600  $  +    	ubApp.TubApp(02AB3EE0).DBExecute
20180320 18263600  $  +    		ubApp.TubApp(02AB3EE0).TubApp.InternalDBExecute
20180320 18263600  $ SQL   			ubDBSQLite3ThreadSafe.TubSQLite3Statement(17284CB0) PRAGMA index_xinfo(IDX_SLOCK_LOCKUSER)
20180320 18263600  $  -    		00.000.018
20180320 18263600  $  -    	00.000.046
20180320 18263600  $ http  	127.0.0.1 <- 200
20180320 18263600  $  -    00.000.198
20180320 18263600  "  +    runSQL?CONNECTION=main
20180320 18263600  " http  	127.0.0.1 -> POST runSQL?CONNECTION=main
20180320 18263600  " http  	PRAGMA table_info('ubm_desktop')
20180320 18263600  " auth  	admin/4605688
20180320 18263600  " call  	endpoint runSQL
20180320 18263600  "  +    	ubApp.TubApp(02AB3EE0).DBExecute
20180320 18263600  "  +    		ubApp.TubApp(02AB3EE0).TubApp.InternalDBExecute
20180320 18263600  " SQL   			ubDBSQLite3ThreadSafe.TubSQLite3Statement(17284CB0) PRAGMA table_info('ubm_desktop')
20180320 18263600  "  -    		00.000.022
20180320 18263600  "  -    	00.000.056
20180320 18263600  " http  	127.0.0.1 <- 200
20180320 18263600  "  -    00.000.160
20180320 18263600  0  +    runSQL?CONNECTION=main
20180320 18263600  0 http  	127.0.0.1 -> POST runSQL?CONNECTION=main
20180320 18263600  0 http  	PRAGMA foreign_key_list('ubm_desktop')
20180320 18263600  0 auth  	admin/4605688
20180320 18263600  0 call  	endpoint runSQL
20180320 18263600  0  +    	ubApp.TubApp(02AB3EE0).DBExecute
20180320 18263600  0  +    		ubApp.TubApp(02AB3EE0).TubApp.InternalDBExecute
20180320 18263600  0 SQL   			ubDBSQLite3ThreadSafe.TubSQLite3Statement(17284CB0) PRAGMA foreign_key_list('ubm_desktop')
20180320 18263600  0  -    		00.000.021
20180320 18263600  0  -    	00.000.055
20180320 18263600  0 http  	127.0.0.1 <- 200
20180320 18263600  0  -    00.000.166
20180320 18263600  ,  +    runSQL?CONNECTION=main
20180320 18263600  , http  	127.0.0.1 -> POST runSQL?CONNECTION=main
20180320 18263600  , http  	PRAGMA index_list('ubm_desktop')
20180320 18263600  , auth  	admin/4605688
20180320 18263600  , call  	endpoint runSQL
20180320 18263600  ,  +    	ubApp.TubApp(02AB3EE0).DBExecute
20180320 18263600  ,  +    		ubApp.TubApp(02AB3EE0).TubApp.InternalDBExecute
20180320 18263600  , SQL   			ubDBSQLite3ThreadSafe.TubSQLite3Statement(17284CB0) PRAGMA index_list('ubm_desktop')
20180320 18263600  ,  -    		00.000.018
20180320 18263600  ,  -    	00.000.045
20180320 18263600  , http  	127.0.0.1 <- 200
20180320 18263600  ,  -    00.000.148
20180320 18263600  .  +    runSQL?CONNECTION=main
20180320 18263600  . http  	127.0.0.1 -> POST runSQL?CONNECTION=main
20180320 18263600  . http  	PRAGMA index_xinfo(IDX_DESK_MI_DELETEUSER)
20180320 18263600  . auth  	admin/4605688
20180320 18263600  . call  	endpoint runSQL
20180320 18263600  .  +    	ubApp.TubApp(02AB3EE0).DBExecute
20180320 18263600  .  +    		ubApp.TubApp(02AB3EE0).TubApp.InternalDBExecute
20180320 18263600  . SQL   			ubDBSQLite3ThreadSafe.TubSQLite3Statement(17284CB0) PRAGMA index_xinfo(IDX_DESK_MI_DELETEUSER)
20180320 18263600  .  -    		00.000.018
20180320 18263600  .  -    	00.000.045
20180320 18263600  . http  	127.0.0.1 <- 200
20180320 18263600  .  -    00.000.158
20180320 18263600  %  +    runSQL?CONNECTION=main
20180320 18263600  % http  	127.0.0.1 -> POST runSQL?CONNECTION=main
20180320 18263600  % http  	PRAGMA index_xinfo(IDX_DESK_MI_MODIFYUSER)
20180320 18263600  % auth  	admin/4605688
20180320 18263600  % call  	endpoint runSQL
20180320 18263600  %  +    	ubApp.TubApp(02AB3EE0).DBExecute
20180320 18263600  %  +    		ubApp.TubApp(02AB3EE0).TubApp.InternalDBExecute
20180320 18263600  % SQL   			ubDBSQLite3ThreadSafe.TubSQLite3Statement(17284CB0) PRAGMA index_xinfo(IDX_DESK_MI_MODIFYUSER)
20180320 18263600  %  -    		00.000.017
20180320 18263600  %  -    	00.000.041
20180320 18263600  % http  	127.0.0.1 <- 200
20180320 18263600  %  -    00.000.173
20180320 18263600  )  +    runSQL?CONNECTION=main
20180320 18263600  ) http  	127.0.0.1 -> POST runSQL?CONNECTION=main
20180320 18263600  ) http  	PRAGMA index_xinfo(IDX_DESK_MI_CREATEUSER)
20180320 18263600  ) auth  	admin/4605688
20180320 18263600  ) call  	endpoint runSQL
20180320 18263600  )  +    	ubApp.TubApp(02AB3EE0).DBExecute
20180320 18263600  )  +    		ubApp.TubApp(02AB3EE0).TubApp.InternalDBExecute
20180320 18263600  ) SQL   			ubDBSQLite3ThreadSafe.TubSQLite3Statement(17284CB0) PRAGMA index_xinfo(IDX_DESK_MI_CREATEUSER)
20180320 18263600  )  -    		00.000.017
20180320 18263600  )  -    	00.000.041
20180320 18263600  ) http  	127.0.0.1 <- 200
20180320 18263600  )  -    00.000.144
20180320 18263600  /  +    runSQL?CONNECTION=main
20180320 18263600  / http  	127.0.0.1 -> POST runSQL?CONNECTION=main
20180320 18263600  / http  	PRAGMA index_xinfo(IDX_DESK_MI_OWNER)
20180320 18263600  / auth  	admin/4605688
20180320 18263600  / call  	endpoint runSQL
20180320 18263600  /  +    	ubApp.TubApp(02AB3EE0).DBExecute
20180320 18263600  /  +    		ubApp.TubApp(02AB3EE0).TubApp.InternalDBExecute
20180320 18263600  / SQL   			ubDBSQLite3ThreadSafe.TubSQLite3Statement(17284CB0) PRAGMA index_xinfo(IDX_DESK_MI_OWNER)
20180320 18263600  /  -    		00.000.018
20180320 18263600  /  -    	00.000.045
20180320 18263600  / http  	127.0.0.1 <- 200
20180320 18263600  /  -    00.000.157
20180320 18263600  &  +    runSQL?CONNECTION=main
20180320 18263600  & http  	127.0.0.1 -> POST runSQL?CONNECTION=main
20180320 18263600  & http  	PRAGMA index_xinfo(UIDX_DESK_CODE)
20180320 18263600  & auth  	admin/4605688
20180320 18263600  & call  	endpoint runSQL
20180320 18263600  &  +    	ubApp.TubApp(02AB3EE0).DBExecute
20180320 18263600  &  +    		ubApp.TubApp(02AB3EE0).TubApp.InternalDBExecute
20180320 18263600  & SQL   			ubDBSQLite3ThreadSafe.TubSQLite3Statement(17284CB0) PRAGMA index_xinfo(UIDX_DESK_CODE)
20180320 18263600  &  -    		00.000.017
20180320 18263600  &  -    	00.000.043
20180320 18263600  & http  	127.0.0.1 <- 200
20180320 18263600  &  -    00.000.146
20180320 18263600  -  +    runSQL?CONNECTION=main
20180320 18263600  - http  	127.0.0.1 -> POST runSQL?CONNECTION=main
20180320 18263600  - http  	PRAGMA table_info('ubm_desktop_adm')
20180320 18263600  - auth  	admin/4605688
20180320 18263600  - call  	endpoint runSQL
20180320 18263600  -  +    	ubApp.TubApp(02AB3EE0).DBExecute
20180320 18263600  -  +    		ubApp.TubApp(02AB3EE0).TubApp.InternalDBExecute
20180320 18263600  - SQL   			ubDBSQLite3ThreadSafe.TubSQLite3Statement(17284CB0) PRAGMA table_info('ubm_desktop_adm')
20180320 18263600  -  -    		00.000.017
20180320 18263600  -  -    	00.000.042
20180320 18263600  - http  	127.0.0.1 <- 200
20180320 18263600  -  -    00.000.180
20180320 18263600  (  +    runSQL?CONNECTION=main
20180320 18263600  ( http  	127.0.0.1 -> POST runSQL?CONNECTION=main
20180320 18263600  ( http  	PRAGMA foreign_key_list('ubm_desktop_adm')
20180320 18263600  ( auth  	admin/4605688
20180320 18263600  ( call  	endpoint runSQL
20180320 18263600  (  +    	ubApp.TubApp(02AB3EE0).DBExecute
20180320 18263600  (  +    		ubApp.TubApp(02AB3EE0).TubApp.InternalDBExecute
20180320 18263600  ( SQL   			ubDBSQLite3ThreadSafe.TubSQLite3Statement(17284CB0) PRAGMA foreign_key_list('ubm_desktop_adm')
20180320 18263600  (  -    		00.000.019
20180320 18263600  (  -    	00.000.045
20180320 18263600  ( http  	127.0.0.1 <- 200
20180320 18263600  (  -    00.000.184
20180320 18263600  *  +    runSQL?CONNECTION=main
20180320 18263600  * http  	127.0.0.1 -> POST runSQL?CONNECTION=main
20180320 18263600  * http  	PRAGMA index_list('ubm_desktop_adm')
20180320 18263600  * auth  	admin/4605688
20180320 18263600  * call  	endpoint runSQL
20180320 18263600  *  +    	ubApp.TubApp(02AB3EE0).DBExecute
20180320 18263600  *  +    		ubApp.TubApp(02AB3EE0).TubApp.InternalDBExecute
20180320 18263600  * SQL   			ubDBSQLite3ThreadSafe.TubSQLite3Statement(17284CB0) PRAGMA index_list('ubm_desktop_adm')
20180320 18263600  *  -    		00.000.016
20180320 18263600  *  -    	00.000.042
20180320 18263600  * http  	127.0.0.1 <- 200
20180320 18263600  *  -    00.000.138
20180320 18263600  1  +    runSQL?CONNECTION=main
20180320 18263600  1 http  	127.0.0.1 -> POST runSQL?CONNECTION=main
20180320 18263600  1 http  	PRAGMA index_xinfo(UK_ADMDESC_INST_ADMSUBJ)
20180320 18263600  1 auth  	admin/4605688
20180320 18263600  1 call  	endpoint runSQL
20180320 18263600  1  +    	ubApp.TubApp(02AB3EE0).DBExecute
20180320 18263600  1  +    		ubApp.TubApp(02AB3EE0).TubApp.InternalDBExecute
20180320 18263600  1 SQL   			ubDBSQLite3ThreadSafe.TubSQLite3Statement(17284CB0) PRAGMA index_xinfo(UK_ADMDESC_INST_ADMSUBJ)
20180320 18263600  1  -    		00.000.016
20180320 18263600  1  -    	00.000.040
20180320 18263600  1 http  	127.0.0.1 <- 200
20180320 18263600  1  -    00.000.138
20180320 18263600  '  +    runSQL?CONNECTION=main
20180320 18263600  ' http  	127.0.0.1 -> POST runSQL?CONNECTION=main
20180320 18263600  ' http  	PRAGMA index_xinfo(IDX_ADMDESK_ADMSUBJID)
20180320 18263600  ' auth  	admin/4605688
20180320 18263600  ' call  	endpoint runSQL
20180320 18263600  '  +    	ubApp.TubApp(02AB3EE0).DBExecute
20180320 18263600  '  +    		ubApp.TubApp(02AB3EE0).TubApp.InternalDBExecute
20180320 18263600  ' SQL   			ubDBSQLite3ThreadSafe.TubSQLite3Statement(17284CB0) PRAGMA index_xinfo(IDX_ADMDESK_ADMSUBJID)
20180320 18263600  '  -    		00.000.017
20180320 18263600  '  -    	00.000.042
20180320 18263600  ' http  	127.0.0.1 <- 200
20180320 18263600  '  -    00.000.145
20180320 18263601  +  +    runSQL?CONNECTION=main
20180320 18263601  + http  	127.0.0.1 -> POST runSQL?CONNECTION=main
20180320 18263601  + http  	PRAGMA index_xinfo(IDX_ADMDESK_INSTANCEID)
20180320 18263601  + auth  	admin/4605688
20180320 18263601  + call  	endpoint runSQL
20180320 18263601  +  +    	ubApp.TubApp(02AB3EE0).DBExecute
20180320 18263601  +  +    		ubApp.TubApp(02AB3EE0).TubApp.InternalDBExecute
20180320 18263601  + SQL   			ubDBSQLite3ThreadSafe.TubSQLite3Statement(17284CB0) PRAGMA index_xinfo(IDX_ADMDESK_INSTANCEID)
20180320 18263601  +  -    		00.000.016
20180320 18263601  +  -    	00.000.039
20180320 18263601  + http  	127.0.0.1 <- 200
20180320 18263601  +  -    00.000.139
20180320 18263601  #  +    runSQL?CONNECTION=main
20180320 18263601  # http  	127.0.0.1 -> POST runSQL?CONNECTION=main
20180320 18263601  # http  	PRAGMA table_info('ubm_enum')
20180320 18263601  # auth  	admin/4605688
20180320 18263601  # call  	endpoint runSQL
20180320 18263601  #  +    	ubApp.TubApp(02AB3EE0).DBExecute
20180320 18263601  #  +    		ubApp.TubApp(02AB3EE0).TubApp.InternalDBExecute
20180320 18263601  # SQL   			ubDBSQLite3ThreadSafe.TubSQLite3Statement(17284CB0) PRAGMA table_info('ubm_enum')
20180320 18263601  #  -    		00.000.023
20180320 18263601  #  -    	00.000.059
20180320 18263601  # http  	127.0.0.1 <- 200
20180320 18263601  #  -    00.000.156
20180320 18263601  $  +    runSQL?CONNECTION=main
20180320 18263601  $ http  	127.0.0.1 -> POST runSQL?CONNECTION=main
20180320 18263601  $ http  	PRAGMA foreign_key_list('ubm_enum')
20180320 18263601  $ auth  	admin/4605688
20180320 18263601  $ call  	endpoint runSQL
20180320 18263601  $  +    	ubApp.TubApp(02AB3EE0).DBExecute
20180320 18263601  $  +    		ubApp.TubApp(02AB3EE0).TubApp.InternalDBExecute
20180320 18263601  $ SQL   			ubDBSQLite3ThreadSafe.TubSQLite3Statement(17284CB0) PRAGMA foreign_key_list('ubm_enum')
20180320 18263601  $  -    		00.000.021
20180320 18263601  $  -    	00.000.051
20180320 18263601  $ http  	127.0.0.1 <- 200
20180320 18263601  $  -    00.000.194
20180320 18263601  "  +    runSQL?CONNECTION=main
20180320 18263601  " http  	127.0.0.1 -> POST runSQL?CONNECTION=main
20180320 18263601  " http  	PRAGMA index_list('ubm_enum')
20180320 18263601  " auth  	admin/4605688
20180320 18263601  " call  	endpoint runSQL
20180320 18263601  "  +    	ubApp.TubApp(02AB3EE0).DBExecute
20180320 18263601  "  +    		ubApp.TubApp(02AB3EE0).TubApp.InternalDBExecute
20180320 18263601  " SQL   			ubDBSQLite3ThreadSafe.TubSQLite3Statement(17284CB0) PRAGMA index_list('ubm_enum')
20180320 18263601  "  -    		00.000.018
20180320 18263601  "  -    	00.000.043
20180320 18263601  " http  	127.0.0.1 <- 200
20180320 18263601  "  -    00.000.172
20180320 18263601  0  +    runSQL?CONNECTION=main
20180320 18263601  0 http  	127.0.0.1 -> POST runSQL?CONNECTION=main
20180320 18263601  0 http  	PRAGMA index_xinfo(UK_UBM_ENUM_GROUPCODE)
20180320 18263601  0 auth  	admin/4605688
20180320 18263601  0 call  	endpoint runSQL
20180320 18263601  0  +    	ubApp.TubApp(02AB3EE0).DBExecute
20180320 18263601  0  +    		ubApp.TubApp(02AB3EE0).TubApp.InternalDBExecute
20180320 18263601  0 SQL   			ubDBSQLite3ThreadSafe.TubSQLite3Statement(17284CB0) PRAGMA index_xinfo(UK_UBM_ENUM_GROUPCODE)
20180320 18263601  0  -    		00.000.019
20180320 18263601  0  -    	00.000.046
20180320 18263601  0 http  	127.0.0.1 <- 200
20180320 18263601  0  -    00.000.151
20180320 18263601  ,  +    runSQL?CONNECTION=main
20180320 18263601  , http  	127.0.0.1 -> POST runSQL?CONNECTION=main
20180320 18263601  , http  	PRAGMA index_xinfo(IDX_ENU_MI_DELETEUSER)
20180320 18263601  , auth  	admin/4605688
20180320 18263601  , call  	endpoint runSQL
20180320 18263601  ,  +    	ubApp.TubApp(02AB3EE0).DBExecute
20180320 18263601  ,  +    		ubApp.TubApp(02AB3EE0).TubApp.InternalDBExecute
20180320 18263601  , SQL   			ubDBSQLite3ThreadSafe.TubSQLite3Statement(17284CB0) PRAGMA index_xinfo(IDX_ENU_MI_DELETEUSER)
20180320 18263601  ,  -    		00.000.016
20180320 18263601  ,  -    	00.000.040
20180320 18263601  , http  	127.0.0.1 <- 200
20180320 18263601  ,  -    00.000.139
20180320 18263601  .  +    runSQL?CONNECTION=main
20180320 18263601  . http  	127.0.0.1 -> POST runSQL?CONNECTION=main
20180320 18263601  . http  	PRAGMA index_xinfo(IDX_ENU_MI_MODIFYUSER)
20180320 18263601  . auth  	admin/4605688
20180320 18263601  . call  	endpoint runSQL
20180320 18263601  .  +    	ubApp.TubApp(02AB3EE0).DBExecute
20180320 18263601  .  +    		ubApp.TubApp(02AB3EE0).TubApp.InternalDBExecute
20180320 18263601  . SQL   			ubDBSQLite3ThreadSafe.TubSQLite3Statement(17284CB0) PRAGMA index_xinfo(IDX_ENU_MI_MODIFYUSER)
20180320 18263601  .  -    		00.000.016
20180320 18263601  .  -    	00.000.039
20180320 18263601  . http  	127.0.0.1 <- 200
20180320 18263601  .  -    00.000.137
20180320 18263601  %  +    runSQL?CONNECTION=main
20180320 18263601  % http  	127.0.0.1 -> POST runSQL?CONNECTION=main
20180320 18263601  % http  	PRAGMA index_xinfo(IDX_ENU_MI_CREATEUSER)
20180320 18263601  % auth  	admin/4605688
20180320 18263601  % call  	endpoint runSQL
20180320 18263601  %  +    	ubApp.TubApp(02AB3EE0).DBExecute
20180320 18263601  %  +    		ubApp.TubApp(02AB3EE0).TubApp.InternalDBExecute
20180320 18263601  % SQL   			ubDBSQLite3ThreadSafe.TubSQLite3Statement(17284CB0) PRAGMA index_xinfo(IDX_ENU_MI_CREATEUSER)
20180320 18263601  %  -    		00.000.016
20180320 18263601  %  -    	00.000.040
20180320 18263601  % http  	127.0.0.1 <- 200
20180320 18263601  %  -    00.000.137
20180320 18263601  )  +    runSQL?CONNECTION=main
20180320 18263601  ) http  	127.0.0.1 -> POST runSQL?CONNECTION=main
20180320 18263601  ) http  	PRAGMA index_xinfo(IDX_ENU_MI_OWNER)
20180320 18263601  ) auth  	admin/4605688
20180320 18263601  ) call  	endpoint runSQL
20180320 18263601  )  +    	ubApp.TubApp(02AB3EE0).DBExecute
20180320 18263601  )  +    		ubApp.TubApp(02AB3EE0).TubApp.InternalDBExecute
20180320 18263601  ) SQL   			ubDBSQLite3ThreadSafe.TubSQLite3Statement(17284CB0) PRAGMA index_xinfo(IDX_ENU_MI_OWNER)
20180320 18263601  )  -    		00.000.016
20180320 18263601  )  -    	00.000.039
20180320 18263601  ) http  	127.0.0.1 <- 200
20180320 18263601  )  -    00.000.137
20180320 18263601  /  +    runSQL?CONNECTION=main
20180320 18263601  / http  	127.0.0.1 -> POST runSQL?CONNECTION=main
20180320 18263601  / http  	PRAGMA table_info('ubm_navshortcut')
20180320 18263601  / auth  	admin/4605688
20180320 18263601  / call  	endpoint runSQL
20180320 18263601  /  +    	ubApp.TubApp(02AB3EE0).DBExecute
20180320 18263601  /  +    		ubApp.TubApp(02AB3EE0).TubApp.InternalDBExecute
20180320 18263601  / SQL   			ubDBSQLite3ThreadSafe.TubSQLite3Statement(17284CB0) PRAGMA table_info('ubm_navshortcut')
20180320 18263601  /  -    		00.000.026
20180320 18263601  /  -    	00.000.069
20180320 18263601  / http  	127.0.0.1 <- 200
20180320 18263601  /  -    00.000.189
20180320 18263601  &  +    runSQL?CONNECTION=main
20180320 18263601  & http  	127.0.0.1 -> POST runSQL?CONNECTION=main
20180320 18263601  & http  	PRAGMA foreign_key_list('ubm_navshortcut')
20180320 18263601  & auth  	admin/4605688
20180320 18263601  & call  	endpoint runSQL
20180320 18263601  &  +    	ubApp.TubApp(02AB3EE0).DBExecute
20180320 18263601  &  +    		ubApp.TubApp(02AB3EE0).TubApp.InternalDBExecute
20180320 18263601  & SQL   			ubDBSQLite3ThreadSafe.TubSQLite3Statement(17284CB0) PRAGMA foreign_key_list('ubm_navshortcut')
20180320 18263601  &  -    		00.000.022
20180320 18263601  &  -    	00.000.053
20180320 18263601  & http  	127.0.0.1 <- 200
20180320 18263601  &  -    00.000.153
20180320 18263601  -  +    runSQL?CONNECTION=main
20180320 18263601  - http  	127.0.0.1 -> POST runSQL?CONNECTION=main
20180320 18263601  - http  	PRAGMA index_list('ubm_navshortcut')
20180320 18263601  - auth  	admin/4605688
20180320 18263601  - call  	endpoint runSQL
20180320 18263601  -  +    	ubApp.TubApp(02AB3EE0).DBExecute
20180320 18263601  -  +    		ubApp.TubApp(02AB3EE0).TubApp.InternalDBExecute
20180320 18263601  - SQL   			ubDBSQLite3ThreadSafe.TubSQLite3Statement(17284CB0) PRAGMA index_list('ubm_navshortcut')
20180320 18263601  -  -    		00.000.018
20180320 18263601  -  -    	00.000.046
20180320 18263601  - http  	127.0.0.1 <- 200
20180320 18263601  -  -    00.000.219
20180320 18263601  (  +    runSQL?CONNECTION=main
20180320 18263601  ( http  	127.0.0.1 -> POST runSQL?CONNECTION=main
20180320 18263601  ( http  	PRAGMA index_xinfo(IDX_NAVSH_TREEPATH)
20180320 18263601  ( auth  	admin/4605688
20180320 18263601  ( call  	endpoint runSQL
20180320 18263601  (  +    	ubApp.TubApp(02AB3EE0).DBExecute
20180320 18263601  (  +    		ubApp.TubApp(02AB3EE0).TubApp.InternalDBExecute
20180320 18263601  ( SQL   			ubDBSQLite3ThreadSafe.TubSQLite3Statement(17284CB0) PRAGMA index_xinfo(IDX_NAVSH_TREEPATH)
20180320 18263601  (  -    		00.000.018
20180320 18263601  (  -    	00.000.043
20180320 18263601  ( http  	127.0.0.1 <- 200
20180320 18263601  (  -    00.000.149
20180320 18263601  *  +    runSQL?CONNECTION=main
20180320 18263601  * http  	127.0.0.1 -> POST runSQL?CONNECTION=main
20180320 18263601  * http  	PRAGMA index_xinfo(IDX_NAVSH_MI_DELETEUSER)
20180320 18263601  * auth  	admin/4605688
20180320 18263601  * call  	endpoint runSQL
20180320 18263601  *  +    	ubApp.TubApp(02AB3EE0).DBExecute
20180320 18263601  *  +    		ubApp.TubApp(02AB3EE0).TubApp.InternalDBExecute
20180320 18263601  * SQL   			ubDBSQLite3ThreadSafe.TubSQLite3Statement(17284CB0) PRAGMA index_xinfo(IDX_NAVSH_MI_DELETEUSER)
20180320 18263601  *  -    		00.000.016
20180320 18263601  *  -    	00.000.039
20180320 18263601  * http  	127.0.0.1 <- 200
20180320 18263601  *  -    00.000.195
20180320 18263601  1  +    runSQL?CONNECTION=main
20180320 18263601  1 http  	127.0.0.1 -> POST runSQL?CONNECTION=main
20180320 18263601  1 http  	PRAGMA index_xinfo(IDX_NAVSH_MI_MODIFYUSER)
20180320 18263601  1 auth  	admin/4605688
20180320 18263601  1 call  	endpoint runSQL
20180320 18263601  1  +    	ubApp.TubApp(02AB3EE0).DBExecute
20180320 18263601  1  +    		ubApp.TubApp(02AB3EE0).TubApp.InternalDBExecute
20180320 18263601  1 SQL   			ubDBSQLite3ThreadSafe.TubSQLite3Statement(17284CB0) PRAGMA index_xinfo(IDX_NAVSH_MI_MODIFYUSER)
20180320 18263601  1  -    		00.000.015
20180320 18263601  1  -    	00.000.038
20180320 18263601  1 http  	127.0.0.1 <- 200
20180320 18263601  1  -    00.000.136
20180320 18263601  '  +    runSQL?CONNECTION=main
20180320 18263601  ' http  	127.0.0.1 -> POST runSQL?CONNECTION=main
20180320 18263601  ' http  	PRAGMA index_xinfo(IDX_NAVSH_MI_CREATEUSER)
20180320 18263601  ' auth  	admin/4605688
20180320 18263601  ' call  	endpoint runSQL
20180320 18263601  '  +    	ubApp.TubApp(02AB3EE0).DBExecute
20180320 18263601  '  +    		ubApp.TubApp(02AB3EE0).TubApp.InternalDBExecute
20180320 18263601  ' SQL   			ubDBSQLite3ThreadSafe.TubSQLite3Statement(17284CB0) PRAGMA index_xinfo(IDX_NAVSH_MI_CREATEUSER)
20180320 18263601  '  -    		00.000.017
20180320 18263601  '  -    	00.000.040
20180320 18263601  ' http  	127.0.0.1 <- 200
20180320 18263601  '  -    00.000.145
20180320 18263601  +  +    runSQL?CONNECTION=main
20180320 18263601  + http  	127.0.0.1 -> POST runSQL?CONNECTION=main
20180320 18263601  + http  	PRAGMA index_xinfo(IDX_NAVSH_MI_OWNER)
20180320 18263601  + auth  	admin/4605688
20180320 18263601  + call  	endpoint runSQL
20180320 18263601  +  +    	ubApp.TubApp(02AB3EE0).DBExecute
20180320 18263601  +  +    		ubApp.TubApp(02AB3EE0).TubApp.InternalDBExecute
20180320 18263601  + SQL   			ubDBSQLite3ThreadSafe.TubSQLite3Statement(17284CB0) PRAGMA index_xinfo(IDX_NAVSH_MI_OWNER)
20180320 18263601  +  -    		00.000.020
20180320 18263601  +  -    	00.000.044
20180320 18263601  + http  	127.0.0.1 <- 200
20180320 18263601  +  -    00.000.155
20180320 18263601  #  +    runSQL?CONNECTION=main
20180320 18263601  # http  	127.0.0.1 -> POST runSQL?CONNECTION=main
20180320 18263601  # http  	PRAGMA index_xinfo(UIDX_NAVSH_CODE)
20180320 18263601  # auth  	admin/4605688
20180320 18263601  # call  	endpoint runSQL
20180320 18263601  #  +    	ubApp.TubApp(02AB3EE0).DBExecute
20180320 18263601  #  +    		ubApp.TubApp(02AB3EE0).TubApp.InternalDBExecute
20180320 18263601  # SQL   			ubDBSQLite3ThreadSafe.TubSQLite3Statement(17284CB0) PRAGMA index_xinfo(UIDX_NAVSH_CODE)
20180320 18263601  #  -    		00.000.019
20180320 18263601  #  -    	00.000.047
20180320 18263601  # http  	127.0.0.1 <- 200
20180320 18263601  #  -    00.000.161
20180320 18263601  $  +    runSQL?CONNECTION=main
20180320 18263601  $ http  	127.0.0.1 -> POST runSQL?CONNECTION=main
20180320 18263601  $ http  	PRAGMA index_xinfo(IDX_NAVSH_PARENTID)
20180320 18263601  $ auth  	admin/4605688
20180320 18263601  $ call  	endpoint runSQL
20180320 18263601  $  +    	ubApp.TubApp(02AB3EE0).DBExecute
20180320 18263601  $  +    		ubApp.TubApp(02AB3EE0).TubApp.InternalDBExecute
20180320 18263601  $ SQL   			ubDBSQLite3ThreadSafe.TubSQLite3Statement(17284CB0) PRAGMA index_xinfo(IDX_NAVSH_PARENTID)
20180320 18263601  $  -    		00.000.017
20180320 18263601  $  -    	00.000.042
20180320 18263601  $ http  	127.0.0.1 <- 200
20180320 18263601  $  -    00.000.186
20180320 18263601  "  +    runSQL?CONNECTION=main
20180320 18263601  " http  	127.0.0.1 -> POST runSQL?CONNECTION=main
20180320 18263601  " http  	PRAGMA index_xinfo(IDX_NAVSH_DESKTOPID)
20180320 18263601  " auth  	admin/4605688
20180320 18263601  " call  	endpoint runSQL
20180320 18263601  "  +    	ubApp.TubApp(02AB3EE0).DBExecute
20180320 18263601  "  +    		ubApp.TubApp(02AB3EE0).TubApp.InternalDBExecute
20180320 18263601  " SQL   			ubDBSQLite3ThreadSafe.TubSQLite3Statement(17284CB0) PRAGMA index_xinfo(IDX_NAVSH_DESKTOPID)
20180320 18263601  "  -    		00.000.018
20180320 18263601  "  -    	00.000.046
20180320 18263601  " http  	127.0.0.1 <- 200
20180320 18263601  "  -    00.000.197
20180320 18263601  0  +    runSQL?CONNECTION=main
20180320 18263601  0 http  	127.0.0.1 -> POST runSQL?CONNECTION=main
20180320 18263601  0 http  	PRAGMA table_info('ubm_navshortcut_adm')
20180320 18263601  0 auth  	admin/4605688
20180320 18263601  0 call  	endpoint runSQL
20180320 18263601  0  +    	ubApp.TubApp(02AB3EE0).DBExecute
20180320 18263601  0  +    		ubApp.TubApp(02AB3EE0).TubApp.InternalDBExecute
20180320 18263601  0 SQL   			ubDBSQLite3ThreadSafe.TubSQLite3Statement(17284CB0) PRAGMA table_info('ubm_navshortcut_adm')
20180320 18263601  0  -    		00.000.018
20180320 18263601  0  -    	00.000.045
20180320 18263601  0 http  	127.0.0.1 <- 200
20180320 18263601  0  -    00.000.157
20180320 18263601  ,  +    runSQL?CONNECTION=main
20180320 18263601  , http  	127.0.0.1 -> POST runSQL?CONNECTION=main
20180320 18263601  , http  	PRAGMA foreign_key_list('ubm_navshortcut_adm')
20180320 18263601  , auth  	admin/4605688
20180320 18263601  , call  	endpoint runSQL
20180320 18263601  ,  +    	ubApp.TubApp(02AB3EE0).DBExecute
20180320 18263601  ,  +    		ubApp.TubApp(02AB3EE0).TubApp.InternalDBExecute
20180320 18263601  , SQL   			ubDBSQLite3ThreadSafe.TubSQLite3Statement(17284CB0) PRAGMA foreign_key_list('ubm_navshortcut_adm')
20180320 18263601  ,  -    		00.000.020
20180320 18263601  ,  -    	00.000.046
20180320 18263601  , http  	127.0.0.1 <- 200
20180320 18263601  ,  -    00.000.153
20180320 18263601  .  +    runSQL?CONNECTION=main
20180320 18263601  . http  	127.0.0.1 -> POST runSQL?CONNECTION=main
20180320 18263601  . http  	PRAGMA index_list('ubm_navshortcut_adm')
20180320 18263601  . auth  	admin/4605688
20180320 18263601  . call  	endpoint runSQL
20180320 18263601  .  +    	ubApp.TubApp(02AB3EE0).DBExecute
20180320 18263601  .  +    		ubApp.TubApp(02AB3EE0).TubApp.InternalDBExecute
20180320 18263601  . SQL   			ubDBSQLite3ThreadSafe.TubSQLite3Statement(17284CB0) PRAGMA index_list('ubm_navshortcut_adm')
20180320 18263601  .  -    		00.000.016
20180320 18263601  .  -    	00.000.041
20180320 18263601  . http  	127.0.0.1 <- 200
20180320 18263601  .  -    00.000.141
20180320 18263601  %  +    runSQL?CONNECTION=main
20180320 18263601  % http  	127.0.0.1 -> POST runSQL?CONNECTION=main
20180320 18263601  % http  	PRAGMA index_xinfo(UK_ADMNAV_INST_ADMSUBJ)
20180320 18263601  % auth  	admin/4605688
20180320 18263601  % call  	endpoint runSQL
20180320 18263601  %  +    	ubApp.TubApp(02AB3EE0).DBExecute
20180320 18263601  %  +    		ubApp.TubApp(02AB3EE0).TubApp.InternalDBExecute
20180320 18263601  % SQL   			ubDBSQLite3ThreadSafe.TubSQLite3Statement(17284CB0) PRAGMA index_xinfo(UK_ADMNAV_INST_ADMSUBJ)
20180320 18263601  %  -    		00.000.016
20180320 18263601  %  -    	00.000.039
20180320 18263601  % http  	127.0.0.1 <- 200
20180320 18263601  %  -    00.000.137
20180320 18263601  )  +    runSQL?CONNECTION=main
20180320 18263601  ) http  	127.0.0.1 -> POST runSQL?CONNECTION=main
20180320 18263601  ) http  	PRAGMA index_xinfo(IDX_ADMNAV_ADMSUBJID)
20180320 18263601  ) auth  	admin/4605688
20180320 18263601  ) call  	endpoint runSQL
20180320 18263601  )  +    	ubApp.TubApp(02AB3EE0).DBExecute
20180320 18263601  )  +    		ubApp.TubApp(02AB3EE0).TubApp.InternalDBExecute
20180320 18263601  ) SQL   			ubDBSQLite3ThreadSafe.TubSQLite3Statement(17284CB0) PRAGMA index_xinfo(IDX_ADMNAV_ADMSUBJID)
20180320 18263601  )  -    		00.000.017
20180320 18263601  )  -    	00.000.041
20180320 18263601  ) http  	127.0.0.1 <- 200
20180320 18263601  )  -    00.000.194
20180320 18263601  /  +    runSQL?CONNECTION=main
20180320 18263601  / http  	127.0.0.1 -> POST runSQL?CONNECTION=main
20180320 18263601  / http  	PRAGMA index_xinfo(IDX_ADMNAV_INSTANCEID)
20180320 18263601  / auth  	admin/4605688
20180320 18263601  / call  	endpoint runSQL
20180320 18263602  /  +    	ubApp.TubApp(02AB3EE0).DBExecute
20180320 18263602  /  +    		ubApp.TubApp(02AB3EE0).TubApp.InternalDBExecute
20180320 18263602  / SQL   			ubDBSQLite3ThreadSafe.TubSQLite3Statement(17284CB0) PRAGMA index_xinfo(IDX_ADMNAV_INSTANCEID)
20180320 18263602  /  -    		00.000.018
20180320 18263602  /  -    	00.000.046
20180320 18263602  / http  	127.0.0.1 <- 200
20180320 18263602  /  -    00.000.191
20180320 18263602  &  +    runSQL?CONNECTION=main
20180320 18263602  & http  	127.0.0.1 -> POST runSQL?CONNECTION=main
20180320 18263602  & http  	PRAGMA table_info('req_depart')
20180320 18263602  & auth  	admin/4605688
20180320 18263602  & call  	endpoint runSQL
20180320 18263602  &  +    	ubApp.TubApp(02AB3EE0).DBExecute
20180320 18263602  &  +    		ubApp.TubApp(02AB3EE0).TubApp.InternalDBExecute
20180320 18263602  & SQL   			ubDBSQLite3ThreadSafe.TubSQLite3Statement(17284CB0) PRAGMA table_info('req_depart')
20180320 18263602  &  -    		00.000.017
20180320 18263602  &  -    	00.000.042
20180320 18263602  & http  	127.0.0.1 <- 200
20180320 18263602  &  -    00.000.139
20180320 18263602  -  +    runSQL?CONNECTION=main
20180320 18263602  - http  	127.0.0.1 -> POST runSQL?CONNECTION=main
20180320 18263602  - http  	PRAGMA foreign_key_list('req_depart')
20180320 18263602  - auth  	admin/4605688
20180320 18263602  - call  	endpoint runSQL
20180320 18263602  -  +    	ubApp.TubApp(02AB3EE0).DBExecute
20180320 18263602  -  +    		ubApp.TubApp(02AB3EE0).TubApp.InternalDBExecute
20180320 18263602  - SQL   			ubDBSQLite3ThreadSafe.TubSQLite3Statement(17284CB0) PRAGMA foreign_key_list('req_depart')
20180320 18263602  -  -    		00.000.017
20180320 18263602  -  -    	00.000.027
20180320 18263602  - http  	127.0.0.1 <- 200
20180320 18263602  -  -    00.000.130
20180320 18263602  (  +    runSQL?CONNECTION=main
20180320 18263602  ( http  	127.0.0.1 -> POST runSQL?CONNECTION=main
20180320 18263602  ( http  	PRAGMA index_list('req_depart')
20180320 18263602  ( auth  	admin/4605688
20180320 18263602  ( call  	endpoint runSQL
20180320 18263602  (  +    	ubApp.TubApp(02AB3EE0).DBExecute
20180320 18263602  (  +    		ubApp.TubApp(02AB3EE0).TubApp.InternalDBExecute
20180320 18263602  ( SQL   			ubDBSQLite3ThreadSafe.TubSQLite3Statement(17284CB0) PRAGMA index_list('req_depart')
20180320 18263602  (  -    		00.000.018
20180320 18263602  (  -    	00.000.043
20180320 18263602  ( http  	127.0.0.1 <- 200
20180320 18263602  (  -    00.000.152
20180320 18263602  *  +    runSQL?CONNECTION=main
20180320 18263602  * http  	127.0.0.1 -> POST runSQL?CONNECTION=main
20180320 18263602  * http  	PRAGMA index_xinfo(UIDX_REQ_DEPART_NAME)
20180320 18263602  * auth  	admin/4605688
20180320 18263602  * call  	endpoint runSQL
20180320 18263602  *  +    	ubApp.TubApp(02AB3EE0).DBExecute
20180320 18263602  *  +    		ubApp.TubApp(02AB3EE0).TubApp.InternalDBExecute
20180320 18263602  * SQL   			ubDBSQLite3ThreadSafe.TubSQLite3Statement(17284CB0) PRAGMA index_xinfo(UIDX_REQ_DEPART_NAME)
20180320 18263602  *  -    		00.000.016
20180320 18263602  *  -    	00.000.039
20180320 18263602  * http  	127.0.0.1 <- 200
20180320 18263602  *  -    00.000.198
20180320 18263602  1  +    runSQL?CONNECTION=main
20180320 18263602  1 http  	127.0.0.1 -> POST runSQL?CONNECTION=main
20180320 18263602  1 http  	PRAGMA table_info('req_reqList')
20180320 18263602  1 auth  	admin/4605688
20180320 18263602  1 call  	endpoint runSQL
20180320 18263602  1  +    	ubApp.TubApp(02AB3EE0).DBExecute
20180320 18263602  1  +    		ubApp.TubApp(02AB3EE0).TubApp.InternalDBExecute
20180320 18263602  1 SQL   			ubDBSQLite3ThreadSafe.TubSQLite3Statement(17284CB0) PRAGMA table_info('req_reqList')
20180320 18263602  1  -    		00.000.021
20180320 18263602  1  -    	00.000.055
20180320 18263602  1 http  	127.0.0.1 <- 200
20180320 18263602  1  -    00.000.163
20180320 18263602  '  +    runSQL?CONNECTION=main
20180320 18263602  ' http  	127.0.0.1 -> POST runSQL?CONNECTION=main
20180320 18263602  ' http  	PRAGMA foreign_key_list('req_reqList')
20180320 18263602  ' auth  	admin/4605688
20180320 18263602  ' call  	endpoint runSQL
20180320 18263602  '  +    	ubApp.TubApp(02AB3EE0).DBExecute
20180320 18263602  '  +    		ubApp.TubApp(02AB3EE0).TubApp.InternalDBExecute
20180320 18263602  ' SQL   			ubDBSQLite3ThreadSafe.TubSQLite3Statement(17284CB0) PRAGMA foreign_key_list('req_reqList')
20180320 18263602  '  -    		00.000.018
20180320 18263602  '  -    	00.000.044
20180320 18263602  ' http  	127.0.0.1 <- 200
20180320 18263602  '  -    00.000.148
20180320 18263602  +  +    runSQL?CONNECTION=main
20180320 18263602  + http  	127.0.0.1 -> POST runSQL?CONNECTION=main
20180320 18263602  + http  	PRAGMA index_list('req_reqList')
20180320 18263602  + auth  	admin/4605688
20180320 18263602  + call  	endpoint runSQL
20180320 18263602  +  +    	ubApp.TubApp(02AB3EE0).DBExecute
20180320 18263602  +  +    		ubApp.TubApp(02AB3EE0).TubApp.InternalDBExecute
20180320 18263602  + SQL   			ubDBSQLite3ThreadSafe.TubSQLite3Statement(17284CB0) PRAGMA index_list('req_reqList')
20180320 18263602  +  -    		00.000.016
20180320 18263602  +  -    	00.000.041
20180320 18263602  + http  	127.0.0.1 <- 200
20180320 18263602  +  -    00.000.139
20180320 18263602  #  +    runSQL?CONNECTION=main
20180320 18263602  # http  	127.0.0.1 -> POST runSQL?CONNECTION=main
20180320 18263602  # http  	PRAGMA index_xinfo(IDX_REQ_SUBDEPARTMENT)
20180320 18263602  # auth  	admin/4605688
20180320 18263602  # call  	endpoint runSQL
20180320 18263602  #  +    	ubApp.TubApp(02AB3EE0).DBExecute
20180320 18263602  #  +    		ubApp.TubApp(02AB3EE0).TubApp.InternalDBExecute
20180320 18263602  # SQL   			ubDBSQLite3ThreadSafe.TubSQLite3Statement(17284CB0) PRAGMA index_xinfo(IDX_REQ_SUBDEPARTMENT)
20180320 18263602  #  -    		00.000.016
20180320 18263602  #  -    	00.000.038
20180320 18263602  # http  	127.0.0.1 <- 200
20180320 18263602  #  -    00.000.135
20180320 18263602  $  +    runSQL?CONNECTION=main
20180320 18263602  $ http  	127.0.0.1 -> POST runSQL?CONNECTION=main
20180320 18263602  $ http  	PRAGMA index_xinfo(IDX_REQ_DEPARTMENT)
20180320 18263602  $ auth  	admin/4605688
20180320 18263602  $ call  	endpoint runSQL
20180320 18263602  $  +    	ubApp.TubApp(02AB3EE0).DBExecute
20180320 18263602  $  +    		ubApp.TubApp(02AB3EE0).TubApp.InternalDBExecute
20180320 18263602  $ SQL   			ubDBSQLite3ThreadSafe.TubSQLite3Statement(17284CB0) PRAGMA index_xinfo(IDX_REQ_DEPARTMENT)
20180320 18263602  $  -    		00.000.017
20180320 18263602  $  -    	00.000.041
20180320 18263602  $ http  	127.0.0.1 <- 200
20180320 18263602  $  -    00.000.180
20180320 18263602  "  +    runSQL?CONNECTION=main
20180320 18263602  " http  	127.0.0.1 -> POST runSQL?CONNECTION=main
20180320 18263602  " http  	PRAGMA table_info('req_subDepart')
20180320 18263602  " auth  	admin/4605688
20180320 18263602  " call  	endpoint runSQL
20180320 18263602  "  +    	ubApp.TubApp(02AB3EE0).DBExecute
20180320 18263602  "  +    		ubApp.TubApp(02AB3EE0).TubApp.InternalDBExecute
20180320 18263602  " SQL   			ubDBSQLite3ThreadSafe.TubSQLite3Statement(17284CB0) PRAGMA table_info('req_subDepart')
20180320 18263602  "  -    		00.000.017
20180320 18263602  "  -    	00.000.041
20180320 18263602  " http  	127.0.0.1 <- 200
20180320 18263602  "  -    00.000.131
20180320 18263602  0  +    runSQL?CONNECTION=main
20180320 18263602  0 http  	127.0.0.1 -> POST runSQL?CONNECTION=main
20180320 18263602  0 http  	PRAGMA foreign_key_list('req_subDepart')
20180320 18263602  0 auth  	admin/4605688
20180320 18263602  0 call  	endpoint runSQL
20180320 18263602  0  +    	ubApp.TubApp(02AB3EE0).DBExecute
20180320 18263602  0  +    		ubApp.TubApp(02AB3EE0).TubApp.InternalDBExecute
20180320 18263602  0 SQL   			ubDBSQLite3ThreadSafe.TubSQLite3Statement(17284CB0) PRAGMA foreign_key_list('req_subDepart')
20180320 18263602  0  -    		00.000.018
20180320 18263602  0  -    	00.000.043
20180320 18263602  0 http  	127.0.0.1 <- 200
20180320 18263602  0  -    00.000.170
20180320 18263602  ,  +    runSQL?CONNECTION=main
20180320 18263602  , http  	127.0.0.1 -> POST runSQL?CONNECTION=main
20180320 18263602  , http  	PRAGMA index_list('req_subDepart')
20180320 18263602  , auth  	admin/4605688
20180320 18263602  , call  	endpoint runSQL
20180320 18263602  ,  +    	ubApp.TubApp(02AB3EE0).DBExecute
20180320 18263602  ,  +    		ubApp.TubApp(02AB3EE0).TubApp.InternalDBExecute
20180320 18263602  , SQL   			ubDBSQLite3ThreadSafe.TubSQLite3Statement(17284CB0) PRAGMA index_list('req_subDepart')
20180320 18263602  ,  -    		00.000.016
20180320 18263602  ,  -    	00.000.040
20180320 18263602  , http  	127.0.0.1 <- 200
20180320 18263602  ,  -    00.000.140
20180320 18263602  .  +    runSQL?CONNECTION=main
20180320 18263602  . http  	127.0.0.1 -> POST runSQL?CONNECTION=main
20180320 18263602  . http  	PRAGMA index_xinfo(IDX_REQ_SUBDEPART_DEPARTMENT)
20180320 18263602  . auth  	admin/4605688
20180320 18263602  . call  	endpoint runSQL
20180320 18263602  .  +    	ubApp.TubApp(02AB3EE0).DBExecute
20180320 18263602  .  +    		ubApp.TubApp(02AB3EE0).TubApp.InternalDBExecute
20180320 18263602  . SQL   			ubDBSQLite3ThreadSafe.TubSQLite3Statement(17284CB0) PRAGMA index_xinfo(IDX_REQ_SUBDEPART_DEPARTMENT)
20180320 18263602  .  -    		00.000.014
20180320 18263602  .  -    	00.000.036
20180320 18263602  . http  	127.0.0.1 <- 200
20180320 18263602  .  -    00.000.171
20180320 18263605  %  +    logout
20180320 18263605  % http  	127.0.0.1 -> POST logout
20180320 18263605  % auth  	admin/4605688
20180320 18263605  % call  	endpoint logout
20180320 18263605  % auth  	Session closed admin/4605688/127.0.0.1
20180320 18263605  % http  	127.0.0.1 <- 200
20180320 18263605  %  -    00.000.172
20180320 18275960  )  +    getAppInfo
20180320 18275960  ) http  	127.0.0.1 -> GET getAppInfo
20180320 18275960  ) call  	endpoint getAppInfo
20180320 18275960  ) http  	127.0.0.1 <- 200
20180320 18275960  )  -    00.000.516
20180320 18275960  /  +    getAppInfo
20180320 18275960  / http  	127.0.0.1 -> GET getAppInfo
20180320 18275960  / call  	endpoint getAppInfo
20180320 18275960  / http  	127.0.0.1 <- 200
20180320 18275960  /  -    00.000.246
20180320 18275960  &  +    auth?AUTHTYPE=UB&userName=admin
20180320 18275960  & http  	127.0.0.1 -> GET auth?AUTHTYPE=UB&userName=admin
20180320 18275960  & call  	endpoint auth
20180320 18275960  & http  	127.0.0.1 <- 200
20180320 18275960  &  -    00.000.208
20180320 18275960  -  +    auth?AUTHTYPE=UB&clientNonce=42b135f398f23a1d430ccf1c4358e794395fb83802452fd67d8954af16662058&password=adc3424efb33c3ed9c58e8afd2c019d8c124847da4d34ac6bd4fdb85e6916b35&userName=admin
20180320 18275960  - http  	127.0.0.1 -> GET auth?AUTHTYPE=UB&clientNonce=42b135f398f23a1d430ccf1c4358e794395fb83802452fd67d8954af16662058&password=adc3424efb33c3ed9c58e8afd2c019d8c124847da4d34ac6bd4fdb85e6916b35&userName=admin
20180320 18275960  - call  	endpoint auth
20180320 18275960  -  +    	ubApp.TubDataStore(1731BD20).Init
20180320 18275960  -  +    		ubApp.TubApp(02AB3EE0).DBExecute
20180320 18275960  -  +    			ubApp.TubApp(02AB3EE0).TubApp.InternalDBExecute
20180320 18275960  - debug 				P1: String(5)	admin
20180320 18275960  - SQL   				ubDBSQLite3ThreadSafe.TubSQLite3Statement(1727FCD0) select id, name, uPasswordHashHexa, uData, isPending, trustedIP from UBA_USER where name=? and disabled=0
20180320 18275960  -  -    			00.000.035
20180320 18275960  -  -    		00.000.162
20180320 18275960  - debug 		Query result for entity "uba_user" into data name "": row count=1
20180320 18275960  -  -    	00.000.190
20180320 18275960  -  +    	ubApp.TubDataStore(1731BD20).Init
20180320 18275960  -  +    		ubApp.TubApp(02AB3EE0).DBExecute
20180320 18275960  -  +    			ubApp.TubApp(02AB3EE0).TubApp.InternalDBExecute
20180320 18275960  - debug 				P1: Int64		10
20180320 18275960  - SQL   				ubDBSQLite3ThreadSafe.TubSQLite3Statement(17281B30) SELECT lastPasswordChangeDate FROM uba_user WHERE id=?
20180320 18275960  -  -    			00.000.012
20180320 18275960  -  -    		00.000.043
20180320 18275960  - debug 		Query result for entity "uba_user" into data name "__expireDate": row count=1
20180320 18275960  -  -    	00.000.051
20180320 18275960  -  +    	ubApp.TubDataStore(17320E38).Init
20180320 18275960  -  +    		ubApp.TubApp(02AB3EE0).DBExecute
20180320 18275960  -  +    			ubApp.TubApp(02AB3EE0).TubApp.InternalDBExecute
20180320 18275960  - debug 				P1: Int64		10
20180320 18275960  - SQL   				ubDBSQLite3ThreadSafe.TubSQLite3Statement(17281BF0) SELECT A01.roleID,A02.name,A02.description  FROM uba_userrole A01  INNER JOIN uba_role A02 ON A02.ID=A01.roleID  WHERE A01.userID=?
20180320 18275960  -  -    			00.000.014
20180320 18275960  -  -    		00.000.055
20180320 18275960  - debug 		Query result for entity "uba_userrole" into data name "": row count=1
20180320 18275960  -  -    	00.000.064
20180320 18275960  - auth  	New session admin/4605691 created at 127.0.0.1/-144115164990406601 using Mozilla/5.0 (Windows; mORMot 1.18 TWinHTTP)
20180320 18275960  -  +    	ubMixinClasses.TubStorageMixin(02B042C0).MixinMethod
20180320 18275960  - debug 		uba_user.select(TubStorageMixin)
20180320 18275960  -  +    		ubApp.TubDataStore(17320E38).Init
20180320 18275960  -  +    			ubApp.TubApp(02AB3EE0).DBExecute
20180320 18275960  -  +    				ubApp.TubApp(02AB3EE0).TubApp.InternalDBExecute
20180320 18275960  - debug 					P1: Int64		10
20180320 18275960  - SQL   					ubDBSQLite3ThreadSafe.TubSQLite3Statement(17281D10) SELECT A01.name  FROM uba_user A01  WHERE A01.ID=?
20180320 18275960  -  -    				00.000.010
20180320 18275960  -  -    			00.000.043
20180320 18275960  - debug 			Query result for entity "uba_user" into data name "": row count=1
20180320 18275960  -  -    		00.000.053
20180320 18275960  -  -    	00.000.121
20180320 18275960  -  +    	ubMixinClasses.TubStorageMixin(02B042C0).MixinMethod
20180320 18275960  - debug 		uba_advSecurity.select(TubStorageMixin)
20180320 18275960  -  +    		ubApp.TubDataStore(17320E38).Init
20180320 18275960  -  +    			ubApp.TubApp(02AB3EE0).DBExecute
20180320 18275960  -  +    				ubApp.TubApp(02AB3EE0).TubApp.InternalDBExecute
20180320 18275960  - debug 					P1: Int64		10
20180320 18275960  - SQL   					ubDBSQLite3ThreadSafe.TubSQLite3Statement(17281D70) SELECT A01.ID,A01.allowedIP,A01.refreshIP,A01.fp,A01.refreshFp,A01.keyMediaName,A01.refreshKeyMedia,A01.mi_modifyDate  FROM uba_advSecurity A01  WHERE A01.userID=?
20180320 18275960  -  -    				00.000.016
20180320 18275960  -  -    			00.000.055
20180320 18275960  - debug 			Query result for entity "uba_advSecurity" into data name "": row count=0
20180320 18275960  -  -    		00.000.064
20180320 18275960  -  -    	00.000.162
20180320 18275960  -  +    	ubMixinClasses.TubStorageMixin(02B042C0).MixinMethod
20180320 18275960  - debug 		uba_userrole.select(TubStorageMixin)
20180320 18275960  -  +    		ubApp.TubDataStore(17320E38).Init
20180320 18275960  -  +    			ubApp.TubApp(02AB3EE0).DBExecute
20180320 18275960  -  +    				ubApp.TubApp(02AB3EE0).TubApp.InternalDBExecute
20180320 18275960  - debug 					P1: Int64		10
20180320 18275960  - SQL   					ubDBSQLite3ThreadSafe.TubSQLite3Statement(17281E30) SELECT A01.ID,A02.name,A01.roleID  FROM uba_userrole A01  INNER JOIN uba_role A02 ON A02.ID=A01.roleID  WHERE A01.userID=?
20180320 18275960  -  -    				00.000.012
20180320 18275960  -  -    			00.000.059
20180320 18275960  - debug 			Query result for entity "uba_userrole" into data name "": row count=1
20180320 18275960  -  -    		00.000.066
20180320 18275960  -  -    	00.000.147
20180320 18275960  -  +    	ubMixinClasses.TubStorageMixin(02B042C0).MixinMethod
20180320 18275960  - debug 		uba_audit.beforeinsert(TubStorageMixin)
20180320 18275960  -  -    	00.000.008
20180320 18275960  -  +    	ubMixinClasses.TubStorageMixin(02B042C0).MixinMethod
20180320 18275960  - debug 		uba_audit.insert(TubStorageMixin)
20180320 18275960  -  +    		ubApp.TubDataStore(1731BB40).TubDataStore.ExecuteInsertFromList
20180320 18275960  -  +    			ubApp.TubDataStore(1731BB40).TubDataStore.ExecuteInsertFromSQL
20180320 18275960  -  +    				ubApp.TubApp(02AB3EE0).DBExecute
20180320 18275960  -  +    					ubApp.TubApp(02AB3EE0).TubApp.InternalDBExecute
20180320 18275960  - debug 						P1: String(8)	uba_user
20180320 18275960  - debug 						P2: Int64		10
20180320 18275960  - debug 						P3: String(5)	LOGIN
20180320 18275960  - debug 						P4: Int64		10
20180320 18275960  - debug 						P5: DateTime	2018-03-20T18:27:59
20180320 18275960  - debug 						P6: String(9)	127.0.0.1
20180320 18275960  - debug 						P7: String(5)	admin
20180320 18275960  - debug 						P8: Int64		335498509778945
20180320 18275960  - debug 						P9: String(202..)	Cache-Control: no-cache  Connection: Keep-Alive  Pragma: no-cache  Accept: */*  Accept-Encoding: gzi...
20180320 18275960  - DB    						StartTransaction for connection "main"
20180320 18275960  - SQL   						ubDBSQLite3ThreadSafe.TubSQLite3Statement(17281EF0) INSERT INTO uba_audit (entity,entityinfo_id,actionType,actionUser,actionTime,remoteIP,targetUser,ID,fromValue) VALUES (?,?,?,?,?,?,?,?,?)
20180320 18275960  -  -    					00.000.095
20180320 18275960  -  -    				00.000.098
20180320 18275960  -  -    			00.000.185
20180320 18275960  -  -    		00.000.197
20180320 18275960  -  -    	00.000.202
20180320 18275960  -  +    	ubMixinClasses.TubStorageMixin(02B042C0).MixinMethod
20180320 18275960  - debug 		uba_audit.afterinsert(TubStorageMixin)
20180320 18275960  -  -    	00.000.004
20180320 18275960  - DB    	Commit connection "main"
20180320 18275960  - http  	127.0.0.1 <- 200
20180320 18275960  -  -    00.003.821
20180320 18275960  (  +    ubql
20180320 18275960  ( http  	127.0.0.1 -> POST ubql
20180320 18275960  ( http  	[{"entity":"ubm_desktop","method":"select","fieldList":["ID"],"options":{"limit":1},"whereList":{"lookup":{"expression":"code","condition":"equal","values":{"code":"CityReq_desktop"}}}}]
20180320 18275960  ( auth  	admin/4605691
20180320 18275960  ( call  	endpoint ubql
20180320 18275960  (  +    	ubMixinClasses.TubRLSMixin(02B04E20).MixinMethod
20180320 18275960  ( debug 		ubm_desktop.select(TubRLSMixin)
20180320 18275960  ( debug 		Prepare RLS expression for ubm_desktop
20180320 18275960  (  -    	00.000.220
20180320 18275960  (  +    	ubMixinClasses.TubStorageMixin(02B042C0).MixinMethod
20180320 18275960  ( debug 		ubm_desktop.select(TubStorageMixin)
20180320 18275960  (  +    		ubApp.TubDataStore(20DEED28).Init
20180320 18275960  (  +    			ubApp.TubApp(02AB3EE0).DBExecute
20180320 18275960  (  +    				ubApp.TubApp(02AB3EE0).TubApp.InternalDBExecute
20180320 18275960  ( debug 					P1: String(15)	CityReq_desktop
20180320 18275960  ( debug 					P2: Int64		10
20180320 18275960  ( debug 					P3: Int64		10
20180320 18275960  ( debug 					P4: DateTime	9999-12-31T00:00:00
20180320 18275960  ( SQL   					ubDBSQLite3ThreadSafe.TubSQLite3Statement(172844D0) SELECT A01.ID  FROM ubm_desktop A01  WHERE code=? AND (( A01.mi_owner = ? ) OR (1=1) OR exists (select 1 from ubm_desktop_adm admsubtable where admsubtable.instanceID = A01.ID and admsubtable.admSubjID in (select ur.RoleID from uba_userrole ur where ur.UserID = ? union select 10))) AND A01.mi_deleteDate=? LIMIT 1 OFFSET 0 
20180320 18275960  (  -    				00.000.020
20180320 18275960  (  -    			00.000.099
20180320 18275960  ( debug 			Query result for entity "ubm_desktop" into data name "": row count=1
20180320 18275960  (  -    		00.000.111
20180320 18275960  (  -    	00.000.217
20180320 18275960  ( http  	127.0.0.1 <- 200
20180320 18275960  (  -    00.000.719
20180320 18275960  *  +    ubql
20180320 18275960  * http  	127.0.0.1 -> POST ubql
20180320 18275960  * http  	[{"entity":"ubm_navshortcut","method":"select","fieldList":["ID"],"options":{"limit":1},"whereList":{"lookup":{"expression":"code","condition":"equal","values":{"code":"req_departments_folder"}}}}]
20180320 18275960  * auth  	admin/4605691
20180320 18275960  * call  	endpoint ubql
20180320 18275961  *  +    	ubMixinClasses.TubRLSMixin(02B04E20).MixinMethod
20180320 18275961  * debug 		ubm_navshortcut.select(TubRLSMixin)
20180320 18275961  * debug 		Prepare RLS expression for ubm_navshortcut
20180320 18275961  *  -    	00.000.195
20180320 18275961  *  +    	ubMixinClasses.TubStorageMixin(02B042C0).MixinMethod
20180320 18275961  * debug 		ubm_navshortcut.select(TubStorageMixin)
20180320 18275961  *  +    		ubApp.TubDataStore(20DEF958).Init
20180320 18275961  *  +    			ubApp.TubApp(02AB3EE0).DBExecute
20180320 18275961  *  +    				ubApp.TubApp(02AB3EE0).TubApp.InternalDBExecute
20180320 18275961  * debug 					P1: String(22)	req_departments_folder
20180320 18275961  * debug 					P2: Int64		10
20180320 18275961  * debug 					P3: Int64		10
20180320 18275961  * debug 					P4: DateTime	9999-12-31T00:00:00
20180320 18275961  * SQL   					ubDBSQLite3ThreadSafe.TubSQLite3Statement(172836F0) SELECT A01.ID  FROM ubm_navshortcut A01  WHERE code=? AND (( A01.mi_owner = ? ) OR               (1=1) OR                             exists (select 1 from ubm_navshortcut_adm admsubtable where admsubtable.instanceID = A01.ID and admsubtable.admSubjID in (select ur.RoleID from uba_userrole ur where ur.UserID = ? union select 10))) AND A01.mi_deleteDate=? LIMIT 1 OFFSET 0 
20180320 18275961  *  -    				00.000.028
20180320 18275961  *  -    			00.000.098
20180320 18275961  * debug 			Query result for entity "ubm_navshortcut" into data name "": row count=1
20180320 18275961  *  -    		00.000.111
20180320 18275961  *  -    	00.000.215
20180320 18275961  * http  	127.0.0.1 <- 200
20180320 18275961  *  -    00.000.680
20180320 18275961  1  +    ubql
20180320 18275961  1 http  	127.0.0.1 -> POST ubql
20180320 18275961  1 http  	[{"entity":"ubm_navshortcut","method":"select","fieldList":["ID"],"options":{"limit":1},"whereList":{"lookup":{"expression":"code","condition":"equal","values":{"code":"req_depart"}}}}]
20180320 18275961  1 auth  	admin/4605691
20180320 18275961  1 call  	endpoint ubql
20180320 18275961  1  +    	ubMixinClasses.TubRLSMixin(02B04E20).MixinMethod
20180320 18275961  1 debug 		ubm_navshortcut.select(TubRLSMixin)
20180320 18275961  1 debug 		Prepare RLS expression for ubm_navshortcut
20180320 18275961  1  -    	00.000.226
20180320 18275961  1  +    	ubMixinClasses.TubStorageMixin(02B042C0).MixinMethod
20180320 18275961  1 debug 		ubm_navshortcut.select(TubStorageMixin)
20180320 18275961  1  +    		ubApp.TubDataStore(20DEEE90).Init
20180320 18275961  1  +    			ubApp.TubApp(02AB3EE0).DBExecute
20180320 18275961  1  +    				ubApp.TubApp(02AB3EE0).TubApp.InternalDBExecute
20180320 18275961  1 debug 					P1: String(10)	req_depart
20180320 18275961  1 debug 					P2: Int64		10
20180320 18275961  1 debug 					P3: Int64		10
20180320 18275961  1 debug 					P4: DateTime	9999-12-31T00:00:00
20180320 18275961  1 SQL   					ubDBSQLite3ThreadSafe.TubSQLite3Statement(172845F0) SELECT A01.ID  FROM ubm_navshortcut A01  WHERE code=? AND (( A01.mi_owner = ? ) OR               (1=1) OR                             exists (select 1 from ubm_navshortcut_adm admsubtable where admsubtable.instanceID = A01.ID and admsubtable.admSubjID in (select ur.RoleID from uba_userrole ur where ur.UserID = ? union select 10))) AND A01.mi_deleteDate=? LIMIT 1 OFFSET 0 
20180320 18275961  1  -    				00.000.025
20180320 18275961  1  -    			00.000.106
20180320 18275961  1 debug 			Query result for entity "ubm_navshortcut" into data name "": row count=1
20180320 18275961  1  -    		00.000.120
20180320 18275961  1  -    	00.000.235
20180320 18275961  1 http  	127.0.0.1 <- 200
20180320 18275961  1  -    00.000.791
20180320 18275961  '  +    ubql
20180320 18275961  ' http  	127.0.0.1 -> POST ubql
20180320 18275961  ' http  	[{"entity":"ubm_navshortcut","method":"select","fieldList":["ID"],"options":{"limit":1},"whereList":{"lookup":{"expression":"code","condition":"equal","values":{"code":"req_Subdepart"}}}}]
20180320 18275961  ' auth  	admin/4605691
20180320 18275961  ' call  	endpoint ubql
20180320 18275961  '  +    	ubMixinClasses.TubRLSMixin(02B04E20).MixinMethod
20180320 18275961  ' debug 		ubm_navshortcut.select(TubRLSMixin)
20180320 18275961  ' debug 		Prepare RLS expression for ubm_navshortcut
20180320 18275961  '  -    	00.000.258
20180320 18275961  '  +    	ubMixinClasses.TubStorageMixin(02B042C0).MixinMethod
20180320 18275961  ' debug 		ubm_navshortcut.select(TubStorageMixin)
20180320 18275961  '  +    		ubApp.TubDataStore(20DEF688).Init
20180320 18275961  '  +    			ubApp.TubApp(02AB3EE0).DBExecute
20180320 18275961  '  +    				ubApp.TubApp(02AB3EE0).TubApp.InternalDBExecute
20180320 18275961  ' debug 					P1: String(13)	req_Subdepart
20180320 18275961  ' debug 					P2: Int64		10
20180320 18275961  ' debug 					P3: Int64		10
20180320 18275961  ' debug 					P4: DateTime	9999-12-31T00:00:00
20180320 18275961  ' SQL   					ubDBSQLite3ThreadSafe.TubSQLite3Statement(172842F0) SELECT A01.ID  FROM ubm_navshortcut A01  WHERE code=? AND (( A01.mi_owner = ? ) OR               (1=1) OR                             exists (select 1 from ubm_navshortcut_adm admsubtable where admsubtable.instanceID = A01.ID and admsubtable.admSubjID in (select ur.RoleID from uba_userrole ur where ur.UserID = ? union select 10))) AND A01.mi_deleteDate=? LIMIT 1 OFFSET 0 
20180320 18275961  '  -    				00.000.038
20180320 18275961  '  -    			00.000.166
20180320 18275961  ' debug 			Query result for entity "ubm_navshortcut" into data name "": row count=1
20180320 18275961  '  -    		00.000.188
20180320 18275961  '  -    	00.000.337
20180320 18275961  ' http  	127.0.0.1 <- 200
20180320 18275961  '  -    00.000.930
20180320 18275961  +  +    ubql
20180320 18275961  + http  	127.0.0.1 -> POST ubql
20180320 18275961  + http  	[{"entity":"ubm_navshortcut","method":"select","fieldList":["ID"],"options":{"limit":1},"whereList":{"lookup":{"expression":"code","condition":"equal","values":{"code":"req_reqList"}}}}]
20180320 18275961  + auth  	admin/4605691
20180320 18275961  + call  	endpoint ubql
20180320 18275961  +  +    	ubMixinClasses.TubRLSMixin(02B04E20).MixinMethod
20180320 18275961  + debug 		ubm_navshortcut.select(TubRLSMixin)
20180320 18275961  + debug 		Prepare RLS expression for ubm_navshortcut
20180320 18275961  +  -    	00.000.233
20180320 18275961  +  +    	ubMixinClasses.TubStorageMixin(02B042C0).MixinMethod
20180320 18275961  + debug 		ubm_navshortcut.select(TubStorageMixin)
20180320 18275961  +  +    		ubApp.TubDataStore(20DEC960).Init
20180320 18275961  +  +    			ubApp.TubApp(02AB3EE0).DBExecute
20180320 18275961  +  +    				ubApp.TubApp(02AB3EE0).TubApp.InternalDBExecute
20180320 18275961  + debug 					P1: String(11)	req_reqList
20180320 18275961  + debug 					P2: Int64		10
20180320 18275961  + debug 					P3: Int64		10
20180320 18275961  + debug 					P4: DateTime	9999-12-31T00:00:00
20180320 18275961  + SQL   					ubDBSQLite3ThreadSafe.TubSQLite3Statement(172847D0) SELECT A01.ID  FROM ubm_navshortcut A01  WHERE code=? AND (( A01.mi_owner = ? ) OR               (1=1) OR                             exists (select 1 from ubm_navshortcut_adm admsubtable where admsubtable.instanceID = A01.ID and admsubtable.admSubjID in (select ur.RoleID from uba_userrole ur where ur.UserID = ? union select 10))) AND A01.mi_deleteDate=? LIMIT 1 OFFSET 0 
20180320 18275961  +  -    				00.000.028
20180320 18275961  +  -    			00.000.128
20180320 18275961  + debug 			Query result for entity "ubm_navshortcut" into data name "": row count=1
20180320 18275961  +  -    		00.000.142
20180320 18275961  +  -    	00.000.259
20180320 18275961  + http  	127.0.0.1 <- 200
20180320 18275961  +  -    00.000.816
20180320 18275961  #  +    ubql
20180320 18275961  # http  	127.0.0.1 -> POST ubql
20180320 18275961  # http  	[{"entity":"ubm_navshortcut","method":"select","fieldList":["ID"],"options":{"limit":1},"whereList":{"lookup":{"expression":"code","condition":"equal","values":{"code":"req_cityRegion"}}}}]
20180320 18275961  # auth  	admin/4605691
20180320 18275961  # call  	endpoint ubql
20180320 18275961  #  +    	ubMixinClasses.TubRLSMixin(02B04E20).MixinMethod
20180320 18275961  # debug 		ubm_navshortcut.select(TubRLSMixin)
20180320 18275961  # debug 		Prepare RLS expression for ubm_navshortcut
20180320 18275961  #  -    	00.000.421
20180320 18275961  #  +    	ubMixinClasses.TubStorageMixin(02B042C0).MixinMethod
20180320 18275961  # debug 		ubm_navshortcut.select(TubStorageMixin)
20180320 18275961  #  +    		ubApp.TubDataStore(20DEF700).Init
20180320 18275961  #  +    			ubApp.TubApp(02AB3EE0).DBExecute
20180320 18275961  #  +    				ubApp.TubApp(02AB3EE0).TubApp.InternalDBExecute
20180320 18275961  # debug 					P1: String(14)	req_cityRegion
20180320 18275961  # debug 					P2: Int64		10
20180320 18275961  # debug 					P3: Int64		10
20180320 18275961  # debug 					P4: DateTime	9999-12-31T00:00:00
20180320 18275961  # SQL   					ubDBSQLite3ThreadSafe.TubSQLite3Statement(17284890) SELECT A01.ID  FROM ubm_navshortcut A01  WHERE code=? AND (( A01.mi_owner = ? ) OR               (1=1) OR                             exists (select 1 from ubm_navshortcut_adm admsubtable where admsubtable.instanceID = A01.ID and admsubtable.admSubjID in (select ur.RoleID from uba_userrole ur where ur.UserID = ? union select 10))) AND A01.mi_deleteDate=? LIMIT 1 OFFSET 0 
20180320 18275961  #  -    				00.000.075
20180320 18275961  #  -    			00.000.183
20180320 18275961  # debug 			Query result for entity "ubm_navshortcut" into data name "": row count=1
20180320 18275961  #  -    		00.000.206
20180320 18275961  #  -    	00.000.447
20180320 18275961  # http  	127.0.0.1 <- 200
20180320 18275961  #  -    00.001.237
20180320 18280003  $  +    ubql
20180320 18280003  $ http  	127.0.0.1 -> POST ubql
20180320 18280003  $ http  	[{"entity":"ubm_enum","method":"select","fieldList":["code"],"options":{"limit":1},"whereList":{"c1":{"expression":"[code]","condition":"equal","values":{"c1":"NEW"}}}}]
20180320 18280003  $ auth  	admin/4605691
20180320 18280003  $ call  	endpoint ubql
20180320 18280003  $  +    	ubMixinClasses.TubStorageMixin(02B042C0).MixinMethod
20180320 18280003  $ debug 		ubm_enum.select(TubStorageMixin)
20180320 18280003  $  +    		ubApp.TubDataStore(20DEF958).Init
20180320 18280003  $  +    			ubApp.TubApp(02AB3EE0).DBExecute
20180320 18280003  $  +    				ubApp.TubApp(02AB3EE0).TubApp.InternalDBExecute
20180320 18280003  $ debug 					P1: String(3)	NEW
20180320 18280003  $ debug 					P2: DateTime	9999-12-31T00:00:00
20180320 18280003  $ SQL   					ubDBSQLite3ThreadSafe.TubSQLite3Statement(17285130) SELECT A01.code  FROM ubm_enum A01  WHERE A01.code=? AND A01.mi_deleteDate=? LIMIT 1 OFFSET 0 
20180320 18280003  $  -    				00.000.081
20180320 18280003  $  -    			00.000.157
20180320 18280003  $ debug 			Query result for entity "ubm_enum" into data name "": row count=0
20180320 18280003  $  -    		00.000.168
20180320 18280003  $  -    	00.000.261
20180320 18280003  $ http  	127.0.0.1 <- 200
20180320 18280003  $  -    00.000.569
20180320 18280003  "  +    ubql
20180320 18280003  " http  	127.0.0.1 -> POST ubql
20180320 18280003  " http  	[{"entity":"ubm_enum","method":"select","fieldList":["code"],"options":{"limit":1},"whereList":{"c1":{"expression":"[code]","condition":"equal","values":{"c1":"PROCESSED"}}}}]
20180320 18280003  " auth  	admin/4605691
20180320 18280003  " call  	endpoint ubql
20180320 18280003  "  +    	ubMixinClasses.TubStorageMixin(02B042C0).MixinMethod
20180320 18280003  " debug 		ubm_enum.select(TubStorageMixin)
20180320 18280003  "  +    		ubApp.TubDataStore(20DEFB88).Init
20180320 18280003  "  +    			ubApp.TubApp(02AB3EE0).DBExecute
20180320 18280003  "  +    				ubApp.TubApp(02AB3EE0).TubApp.InternalDBExecute
20180320 18280003  " debug 					P1: String(9)	PROCESSED
20180320 18280003  " debug 					P2: DateTime	9999-12-31T00:00:00
20180320 18280003  " SQL   					ubDBSQLite3ThreadSafe.TubSQLite3Statement(17285070) SELECT A01.code  FROM ubm_enum A01  WHERE A01.code=? AND A01.mi_deleteDate=? LIMIT 1 OFFSET 0 
20180320 18280003  "  -    				00.000.052
20180320 18280003  "  -    			00.000.106
20180320 18280003  " debug 			Query result for entity "ubm_enum" into data name "": row count=0
20180320 18280003  "  -    		00.000.115
20180320 18280003  "  -    	00.000.187
20180320 18280003  " http  	127.0.0.1 <- 200
20180320 18280003  "  -    00.000.471
20180320 18280003  0  +    ubql
20180320 18280003  0 http  	127.0.0.1 -> POST ubql
20180320 18280003  0 http  	[{"entity":"ubm_enum","method":"select","fieldList":["code"],"options":{"limit":1},"whereList":{"c1":{"expression":"[code]","condition":"equal","values":{"c1":"REJECTED"}}}}]
20180320 18280003  0 auth  	admin/4605691
20180320 18280003  0 call  	endpoint ubql
20180320 18280003  0  +    	ubMixinClasses.TubStorageMixin(02B042C0).MixinMethod
20180320 18280003  0 debug 		ubm_enum.select(TubStorageMixin)
20180320 18280003  0  +    		ubApp.TubDataStore(20DEF6D8).Init
20180320 18280003  0  +    			ubApp.TubApp(02AB3EE0).DBExecute
20180320 18280003  0  +    				ubApp.TubApp(02AB3EE0).TubApp.InternalDBExecute
20180320 18280003  0 debug 					P1: String(8)	REJECTED
20180320 18280003  0 debug 					P2: DateTime	9999-12-31T00:00:00
20180320 18280003  0 SQL   					ubDBSQLite3ThreadSafe.TubSQLite3Statement(17285190) SELECT A01.code  FROM ubm_enum A01  WHERE A01.code=? AND A01.mi_deleteDate=? LIMIT 1 OFFSET 0 
20180320 18280003  0  -    				00.000.048
20180320 18280003  0  -    			00.000.098
20180320 18280003  0 debug 			Query result for entity "ubm_enum" into data name "": row count=0
20180320 18280003  0  -    		00.000.107
20180320 18280003  0  -    	00.000.173
20180320 18280003  0 http  	127.0.0.1 <- 200
20180320 18280003  0  -    00.000.490
20180320 18280003  ,  +    ubql
20180320 18280003  , http  	127.0.0.1 -> POST ubql
20180320 18280003  , http  	[{"entity":"ubm_enum","method":"select","fieldList":["code"],"options":{"limit":1},"whereList":{"c1":{"expression":"[code]","condition":"equal","values":{"c1":"CLOSED"}}}}]
20180320 18280003  , auth  	admin/4605691
20180320 18280003  , call  	endpoint ubql
20180320 18280003  ,  +    	ubMixinClasses.TubStorageMixin(02B042C0).MixinMethod
20180320 18280003  , debug 		ubm_enum.select(TubStorageMixin)
20180320 18280003  ,  +    		ubApp.TubDataStore(20DEF930).Init
20180320 18280003  ,  +    			ubApp.TubApp(02AB3EE0).DBExecute
20180320 18280003  ,  +    				ubApp.TubApp(02AB3EE0).TubApp.InternalDBExecute
20180320 18280003  , debug 					P1: String(6)	CLOSED
20180320 18280003  , debug 					P2: DateTime	9999-12-31T00:00:00
20180320 18280003  , SQL   					ubDBSQLite3ThreadSafe.TubSQLite3Statement(17285250) SELECT A01.code  FROM ubm_enum A01  WHERE A01.code=? AND A01.mi_deleteDate=? LIMIT 1 OFFSET 0 
20180320 18280003  ,  -    				00.000.048
20180320 18280003  ,  -    			00.000.097
20180320 18280003  , debug 			Query result for entity "ubm_enum" into data name "": row count=0
20180320 18280003  ,  -    		00.000.106
20180320 18280003  ,  -    	00.000.171
20180320 18280003  , http  	127.0.0.1 <- 200
20180320 18280003  ,  -    00.000.449
20180320 18280003  .  +    ubql
20180320 18280003  . http  	127.0.0.1 -> POST ubql
20180320 18280003  . http  	[{"entity":"ubm_enum","method":"addnew","fieldList":["ID"],"__nativeDatasetFormat":true},{"entity":"ubm_enum","method":"addnew","fieldList":["ID"],"__nativeDatasetFormat":true},{"entity":"ubm_enum","method":"addnew","fieldList":["ID"],"__nativeDatasetFormat":true},{"entity":"ubm_enum","method":"addnew","fieldList":["ID"],"__nativeDatasetFormat":true}]
20180320 18280003  . auth  	admin/4605691
20180320 18280003  . call  	endpoint ubql
20180320 18280003  .  +    	ubMixinClasses.TubStorageMixin(02B042C0).MixinMethod
20180320 18280003  . debug 		ubm_enum.addnew(TubStorageMixin)
20180320 18280003  .  -    	00.000.015
20180320 18280003  .  +    	ubMixinClasses.TubStorageMixin(02B042C0).MixinMethod
20180320 18280003  . debug 		ubm_enum.addnew(TubStorageMixin)
20180320 18280003  .  -    	00.000.009
20180320 18280003  .  +    	ubMixinClasses.TubStorageMixin(02B042C0).MixinMethod
20180320 18280003  . debug 		ubm_enum.addnew(TubStorageMixin)
20180320 18280003  .  -    	00.000.008
20180320 18280003  .  +    	ubMixinClasses.TubStorageMixin(02B042C0).MixinMethod
20180320 18280003  . debug 		ubm_enum.addnew(TubStorageMixin)
20180320 18280003  .  -    	00.000.008
20180320 18280003  . http  	127.0.0.1 <- 200
20180320 18280003  .  -    00.000.541
20180320 18280003  %  +    ubql
20180320 18280003  % http  	127.0.0.1 -> POST ubql
20180320 18280003  % http  	[{"entity":"ubm_enum","method":"insert","execParams":{"ID":335498509778946,"eGroup":"REQUEST_STATUS","code":"NEW","name":"New","sortOrder":10}},{"entity":"ubm_enum","method":"insert","execParams":{"ID":335498509778947,"eGroup":"REQUEST_STATUS","code":"PROCESSED","name":"Processed","sortOrder":20}},{"entity":"ubm_enum","method":"insert","execParams":{"ID":335498509778948,"eGroup":"REQUEST_STATUS","code":"REJECTED","name":"Rejected","sortOrder":30}},{"entity":"ubm_enum","method":"insert","execParams":{"ID":335498509778949,"eGroup":"REQUEST_STATUS","code":"CLOSED","name":"Closed","sortOrder":40}}]
20180320 18280003  % auth  	admin/4605691
20180320 18280003  % call  	endpoint ubql
20180320 18280003  %  +    	ubMixinClasses.TubStorageMixin(02B042C0).MixinMethod
20180320 18280003  % debug 		ubm_enum.beforeinsert(TubStorageMixin)
20180320 18280003  %  -    	00.000.003
20180320 18280003  %  +    	ubMixinClasses.TubStorageMixin(02B042C0).MixinMethod
20180320 18280003  % debug 		ubm_enum.insert(TubStorageMixin)
20180320 18280003  %  +    		ubApp.TubDataStore(20DEF700).TubDataStore.ExecuteInsertFromList
20180320 18280003  %  +    			ubApp.TubDataStore(20DEF700).TubDataStore.ExecuteInsertFromSQL
20180320 18280003  %  +    				ubApp.TubApp(02AB3EE0).DBExecute
20180320 18280003  %  +    					ubApp.TubApp(02AB3EE0).TubApp.InternalDBExecute
20180320 18280003  % debug 						P1: Int64		335498509778946
20180320 18280003  % debug 						P2: String(14)	REQUEST_STATUS
20180320 18280003  % debug 						P3: String(3)	NEW
20180320 18280003  % debug 						P4: String(3)	New
20180320 18280003  % debug 						P5: Int64		10
20180320 18280003  % debug 						P6: Int64		10
20180320 18280003  % debug 						P7: DateTime	2018-03-20T18:28:00
20180320 18280003  % debug 						P8: Int64		10
20180320 18280003  % debug 						P9: DateTime	2018-03-20T18:28:00
20180320 18280003  % debug 						P10: Int64		10
20180320 18280003  % DB    						StartTransaction for connection "main"
20180320 18280003  % SQL   						ubDBSQLite3ThreadSafe.TubSQLite3Statement(172850D0) INSERT INTO ubm_enum (ID,eGroup,code,name,sortOrder,mi_owner,mi_createDate,mi_createUser,mi_modifyDate,mi_modifyUser) VALUES (?,?,?,?,?,?,?,?,?,?)
20180320 18280003  %  -    					00.000.168
20180320 18280003  %  -    				00.000.170
20180320 18280003  %  -    			00.000.281
20180320 18280003  %  -    		00.000.297
20180320 18280003  %  -    	00.000.303
20180320 18280003  %  +    	ubMixinClasses.TubStorageMixin(02B042C0).MixinMethod
20180320 18280003  % debug 		ubm_enum.afterinsert(TubStorageMixin)
20180320 18280003  %  -    	00.000.004
20180320 18280003  %  +    	ubMixinClasses.TubAuditMixin(02B04F70).MixinMethod
20180320 18280003  % debug 		ubm_enum.afterinsert(TubAuditMixin)
20180320 18280003  %  +    		ubApp.TubDataStore(20DEC898).TubDataStore.ExecuteInsertFromSQL
20180320 18280003  %  +    			ubApp.TubApp(02AB3EE0).DBExecute
20180320 18280003  %  +    				ubApp.TubApp(02AB3EE0).TubApp.InternalDBExecute
20180320 18280003  % debug 					P1: Int64		335498509778950
20180320 18280003  % debug 					P2: String(8)	ubm_enum
20180320 18280003  % debug 					P3: Int64		335498509778946
20180320 18280003  % debug 					P4: String(6)	INSERT
20180320 18280003  % debug 					P5: Int64		10
20180320 18280003  % debug 					P6: DateTime	2018-03-20T18:28:00
20180320 18280003  % debug 					P7: String(9)	127.0.0.1
20180320 18280003  % debug 					P8: Int64		335498509778946
20180320 18280003  % debug 					P9: String(219..)	{"ID":335498509778946,"eGroup":"REQUEST_STATUS","code":"NEW","name":"New","sortOrder":10,"mi_owner":...
20180320 18280003  % SQL   					ubDBSQLite3ThreadSafe.TubSQLite3Statement(17284B30) INSERT INTO uba_auditTrail (ID,entity,entityinfo_id,actionType,actionUser,actionTime,remoteIP,parentEntityInfo_id,toValue) VALUES (?,?,?,?,?,?,?,?,?)
20180320 18280003  %  -    				00.000.075
20180320 18280003  %  -    			00.000.077
20180320 18280003  %  -    		00.000.162
20180320 18280003  %  -    	00.000.189
20180320 18280003  %  +    	ubMixinClasses.TubStorageMixin(02B042C0).MixinMethod
20180320 18280003  % debug 		ubm_enum.beforeinsert(TubStorageMixin)
20180320 18280003  %  -    	00.000.002
20180320 18280003  %  +    	ubMixinClasses.TubStorageMixin(02B042C0).MixinMethod
20180320 18280003  % debug 		ubm_enum.insert(TubStorageMixin)
20180320 18280003  %  +    		ubApp.TubDataStore(20DEEF30).TubDataStore.ExecuteInsertFromList
20180320 18280003  %  +    			ubApp.TubDataStore(20DEEF30).TubDataStore.ExecuteInsertFromSQL
20180320 18280003  %  +    				ubApp.TubApp(02AB3EE0).DBExecute
20180320 18280003  %  +    					ubApp.TubApp(02AB3EE0).TubApp.InternalDBExecute
20180320 18280003  % debug 						P1: Int64		335498509778947
20180320 18280003  % debug 						P2: String(14)	REQUEST_STATUS
20180320 18280003  % debug 						P3: String(9)	PROCESSED
20180320 18280003  % debug 						P4: String(9)	Processed
20180320 18280003  % debug 						P5: Int64		20
20180320 18280003  % debug 						P6: Int64		10
20180320 18280003  % debug 						P7: DateTime	2018-03-20T18:28:00
20180320 18280003  % debug 						P8: Int64		10
20180320 18280003  % debug 						P9: DateTime	2018-03-20T18:28:00
20180320 18280003  % debug 						P10: Int64		10
20180320 18280003  % SQL   						ubDBSQLite3ThreadSafe.TubSQLite3Statement(172850D0) INSERT INTO ubm_enum (ID,eGroup,code,name,sortOrder,mi_owner,mi_createDate,mi_createUser,mi_modifyDate,mi_modifyUser) VALUES (?,?,?,?,?,?,?,?,?,?)
20180320 18280003  %  -    					00.000.028
20180320 18280003  %  -    				00.000.030
20180320 18280003  %  -    			00.000.118
20180320 18280003  %  -    		00.000.131
20180320 18280003  %  -    	00.000.136
20180320 18280003  %  +    	ubMixinClasses.TubStorageMixin(02B042C0).MixinMethod
20180320 18280003  % debug 		ubm_enum.afterinsert(TubStorageMixin)
20180320 18280003  %  -    	00.000.003
20180320 18280003  %  +    	ubMixinClasses.TubAuditMixin(02B04F70).MixinMethod
20180320 18280003  % debug 		ubm_enum.afterinsert(TubAuditMixin)
20180320 18280003  %  +    		ubApp.TubDataStore(20DEEE90).TubDataStore.ExecuteInsertFromSQL
20180320 18280003  %  +    			ubApp.TubApp(02AB3EE0).DBExecute
20180320 18280003  %  +    				ubApp.TubApp(02AB3EE0).TubApp.InternalDBExecute
20180320 18280003  % debug 					P1: Int64		335498509778951
20180320 18280003  % debug 					P2: String(8)	ubm_enum
20180320 18280003  % debug 					P3: Int64		335498509778947
20180320 18280003  % debug 					P4: String(6)	INSERT
20180320 18280003  % debug 					P5: Int64		10
20180320 18280003  % debug 					P6: DateTime	2018-03-20T18:28:00
20180320 18280003  % debug 					P7: String(9)	127.0.0.1
20180320 18280003  % debug 					P8: Int64		335498509778947
20180320 18280003  % debug 					P9: String(231..)	{"ID":335498509778947,"eGroup":"REQUEST_STATUS","code":"PROCESSED","name":"Processed","sortOrder":20...
20180320 18280003  % SQL   					ubDBSQLite3ThreadSafe.TubSQLite3Statement(17284B30) INSERT INTO uba_auditTrail (ID,entity,entityinfo_id,actionType,actionUser,actionTime,remoteIP,parentEntityInfo_id,toValue) VALUES (?,?,?,?,?,?,?,?,?)
20180320 18280003  %  -    				00.000.023
20180320 18280003  %  -    			00.000.026
20180320 18280003  %  -    		00.000.104
20180320 18280003  %  -    	00.000.128
20180320 18280003  %  +    	ubMixinClasses.TubStorageMixin(02B042C0).MixinMethod
20180320 18280003  % debug 		ubm_enum.beforeinsert(TubStorageMixin)
20180320 18280003  %  -    	00.000.002
20180320 18280003  %  +    	ubMixinClasses.TubStorageMixin(02B042C0).MixinMethod
20180320 18280003  % debug 		ubm_enum.insert(TubStorageMixin)
20180320 18280003  %  +    		ubApp.TubDataStore(20DEEEB8).TubDataStore.ExecuteInsertFromList
20180320 18280003  %  +    			ubApp.TubDataStore(20DEEEB8).TubDataStore.ExecuteInsertFromSQL
20180320 18280003  %  +    				ubApp.TubApp(02AB3EE0).DBExecute
20180320 18280003  %  +    					ubApp.TubApp(02AB3EE0).TubApp.InternalDBExecute
20180320 18280003  % debug 						P1: Int64		335498509778948
20180320 18280003  % debug 						P2: String(14)	REQUEST_STATUS
20180320 18280003  % debug 						P3: String(8)	REJECTED
20180320 18280003  % debug 						P4: String(8)	Rejected
20180320 18280003  % debug 						P5: Int64		30
20180320 18280003  % debug 						P6: Int64		10
20180320 18280003  % debug 						P7: DateTime	2018-03-20T18:28:00
20180320 18280003  % debug 						P8: Int64		10
20180320 18280003  % debug 						P9: DateTime	2018-03-20T18:28:00
20180320 18280003  % debug 						P10: Int64		10
20180320 18280003  % SQL   						ubDBSQLite3ThreadSafe.TubSQLite3Statement(172850D0) INSERT INTO ubm_enum (ID,eGroup,code,name,sortOrder,mi_owner,mi_createDate,mi_createUser,mi_modifyDate,mi_modifyUser) VALUES (?,?,?,?,?,?,?,?,?,?)
20180320 18280003  %  -    					00.000.026
20180320 18280003  %  -    				00.000.028
20180320 18280003  %  -    			00.000.113
20180320 18280003  %  -    		00.000.125
20180320 18280003  %  -    	00.000.130
20180320 18280003  %  +    	ubMixinClasses.TubStorageMixin(02B042C0).MixinMethod
20180320 18280003  % debug 		ubm_enum.afterinsert(TubStorageMixin)
20180320 18280003  %  -    	00.000.003
20180320 18280003  %  +    	ubMixinClasses.TubAuditMixin(02B04F70).MixinMethod
20180320 18280003  % debug 		ubm_enum.afterinsert(TubAuditMixin)
20180320 18280003  %  +    		ubApp.TubDataStore(20E99EE8).TubDataStore.ExecuteInsertFromSQL
20180320 18280003  %  +    			ubApp.TubApp(02AB3EE0).DBExecute
20180320 18280003  %  +    				ubApp.TubApp(02AB3EE0).TubApp.InternalDBExecute
20180320 18280003  % debug 					P1: Int64		335498509778952
20180320 18280003  % debug 					P2: String(8)	ubm_enum
20180320 18280003  % debug 					P3: Int64		335498509778948
20180320 18280003  % debug 					P4: String(6)	INSERT
20180320 18280003  % debug 					P5: Int64		10
20180320 18280003  % debug 					P6: DateTime	2018-03-20T18:28:00
20180320 18280003  % debug 					P7: String(9)	127.0.0.1
20180320 18280003  % debug 					P8: Int64		335498509778948
20180320 18280003  % debug 					P9: String(229..)	{"ID":335498509778948,"eGroup":"REQUEST_STATUS","code":"REJECTED","name":"Rejected","sortOrder":30,"...
20180320 18280003  % SQL   					ubDBSQLite3ThreadSafe.TubSQLite3Statement(17284B30) INSERT INTO uba_auditTrail (ID,entity,entityinfo_id,actionType,actionUser,actionTime,remoteIP,parentEntityInfo_id,toValue) VALUES (?,?,?,?,?,?,?,?,?)
20180320 18280003  %  -    				00.000.022
20180320 18280003  %  -    			00.000.024
20180320 18280003  %  -    		00.000.100
20180320 18280003  %  -    	00.000.123
20180320 18280003  %  +    	ubMixinClasses.TubStorageMixin(02B042C0).MixinMethod
20180320 18280003  % debug 		ubm_enum.beforeinsert(TubStorageMixin)
20180320 18280003  %  -    	00.000.002
20180320 18280003  %  +    	ubMixinClasses.TubStorageMixin(02B042C0).MixinMethod
20180320 18280003  % debug 		ubm_enum.insert(TubStorageMixin)
20180320 18280003  %  +    		ubApp.TubDataStore(20DEF188).TubDataStore.ExecuteInsertFromList
20180320 18280003  %  +    			ubApp.TubDataStore(20DEF188).TubDataStore.ExecuteInsertFromSQL
20180320 18280003  %  +    				ubApp.TubApp(02AB3EE0).DBExecute
20180320 18280003  %  +    					ubApp.TubApp(02AB3EE0).TubApp.InternalDBExecute
20180320 18280003  % debug 						P1: Int64		335498509778949
20180320 18280003  % debug 						P2: String(14)	REQUEST_STATUS
20180320 18280003  % debug 						P3: String(6)	CLOSED
20180320 18280003  % debug 						P4: String(6)	Closed
20180320 18280003  % debug 						P5: Int64		40
20180320 18280003  % debug 						P6: Int64		10
20180320 18280003  % debug 						P7: DateTime	2018-03-20T18:28:00
20180320 18280003  % debug 						P8: Int64		10
20180320 18280003  % debug 						P9: DateTime	2018-03-20T18:28:00
20180320 18280003  % debug 						P10: Int64		10
20180320 18280003  % SQL   						ubDBSQLite3ThreadSafe.TubSQLite3Statement(172850D0) INSERT INTO ubm_enum (ID,eGroup,code,name,sortOrder,mi_owner,mi_createDate,mi_createUser,mi_modifyDate,mi_modifyUser) VALUES (?,?,?,?,?,?,?,?,?,?)
20180320 18280003  %  -    					00.000.026
20180320 18280003  %  -    				00.000.027
20180320 18280003  %  -    			00.000.111
20180320 18280003  %  -    		00.000.123
20180320 18280003  %  -    	00.000.128
20180320 18280003  %  +    	ubMixinClasses.TubStorageMixin(02B042C0).MixinMethod
20180320 18280003  % debug 		ubm_enum.afterinsert(TubStorageMixin)
20180320 18280003  %  -    	00.000.003
20180320 18280003  %  +    	ubMixinClasses.TubAuditMixin(02B04F70).MixinMethod
20180320 18280003  % debug 		ubm_enum.afterinsert(TubAuditMixin)
20180320 18280003  %  +    		ubApp.TubDataStore(20E99C68).TubDataStore.ExecuteInsertFromSQL
20180320 18280003  %  +    			ubApp.TubApp(02AB3EE0).DBExecute
20180320 18280003  %  +    				ubApp.TubApp(02AB3EE0).TubApp.InternalDBExecute
20180320 18280003  % debug 					P1: Int64		335498509778953
20180320 18280003  % debug 					P2: String(8)	ubm_enum
20180320 18280003  % debug 					P3: Int64		335498509778949
20180320 18280003  % debug 					P4: String(6)	INSERT
20180320 18280003  % debug 					P5: Int64		10
20180320 18280003  % debug 					P6: DateTime	2018-03-20T18:28:00
20180320 18280003  % debug 					P7: String(9)	127.0.0.1
20180320 18280003  % debug 					P8: Int64		335498509778949
20180320 18280003  % debug 					P9: String(225..)	{"ID":335498509778949,"eGroup":"REQUEST_STATUS","code":"CLOSED","name":"Closed","sortOrder":40,"mi_o...
20180320 18280003  % SQL   					ubDBSQLite3ThreadSafe.TubSQLite3Statement(17284B30) INSERT INTO uba_auditTrail (ID,entity,entityinfo_id,actionType,actionUser,actionTime,remoteIP,parentEntityInfo_id,toValue) VALUES (?,?,?,?,?,?,?,?,?)
20180320 18280003  %  -    				00.000.022
20180320 18280003  %  -    			00.000.024
20180320 18280003  %  -    		00.000.099
20180320 18280003  %  -    	00.000.122
20180320 18280003  % DB    	Commit connection "main" in 265us
20180320 18280003  % http  	127.0.0.1 <- 200
20180320 18280003  %  -    00.002.500
20180320 18280003  )  +    ubql
20180320 18280003  ) http  	127.0.0.1 -> POST ubql
20180320 18280003  ) http  	[{"entity":"req_depart","method":"select","fieldList":["ID"],"options":{"limit":1},"whereList":{"c1":{"expression":"[name]","condition":"equal","values":{"c1":"Departments of health"}}}}]
20180320 18280003  ) auth  	admin/4605691
20180320 18280003  ) call  	endpoint ubql
20180320 18280003  )  +    	ubMixinClasses.TubStorageMixin(02B042C0).MixinMethod
20180320 18280003  ) debug 		req_depart.select(TubStorageMixin)
20180320 18280003  )  +    		ubApp.TubDataStore(20DEEEB8).Init
20180320 18280003  )  +    			ubApp.TubApp(02AB3EE0).DBExecute
20180320 18280003  )  +    				ubApp.TubApp(02AB3EE0).TubApp.InternalDBExecute
20180320 18280003  ) debug 					P1: String(21)	Departments of health
20180320 18280003  ) SQL   					ubDBSQLite3ThreadSafe.TubSQLite3Statement(17285310) SELECT A01.ID  FROM req_depart A01  WHERE A01.name=? LIMIT 1 OFFSET 0 
20180320 18280003  )  -    				00.000.050
20180320 18280003  )  -    			00.000.119
20180320 18280003  ) debug 			Query result for entity "req_depart" into data name "": row count=1
20180320 18280003  )  -    		00.000.129
20180320 18280003  )  -    	00.000.200
20180320 18280003  ) http  	127.0.0.1 <- 200
20180320 18280003  )  -    00.000.484
20180320 18280003  /  +    ubql
20180320 18280003  / http  	127.0.0.1 -> POST ubql
20180320 18280003  / http  	[{"entity":"req_depart","method":"select","fieldList":["ID"],"options":{"limit":1},"whereList":{"c1":{"expression":"[name]","condition":"equal","values":{"c1":"Departments of education"}}}}]
20180320 18280003  / auth  	admin/4605691
20180320 18280003  / call  	endpoint ubql
20180320 18280003  /  +    	ubMixinClasses.TubStorageMixin(02B042C0).MixinMethod
20180320 18280003  / debug 		req_depart.select(TubStorageMixin)
20180320 18280003  /  +    		ubApp.TubDataStore(20DEC898).Init
20180320 18280003  /  +    			ubApp.TubApp(02AB3EE0).DBExecute
20180320 18280003  /  +    				ubApp.TubApp(02AB3EE0).TubApp.InternalDBExecute
20180320 18280003  / debug 					P1: String(24)	Departments of education
20180320 18280003  / SQL   					ubDBSQLite3ThreadSafe.TubSQLite3Statement(172853D0) SELECT A01.ID  FROM req_depart A01  WHERE A01.name=? LIMIT 1 OFFSET 0 
20180320 18280003  /  -    				00.000.038
20180320 18280003  /  -    			00.000.088
20180320 18280003  / debug 			Query result for entity "req_depart" into data name "": row count=1
20180320 18280003  /  -    		00.000.097
20180320 18280003  /  -    	00.000.154
20180320 18280003  / http  	127.0.0.1 <- 200
20180320 18280003  /  -    00.000.383
20180320 18280003  &  +    logout
20180320 18280003  & http  	127.0.0.1 -> POST logout
20180320 18280003  & auth  	admin/4605691
20180320 18280003  & call  	endpoint logout
20180320 18280003  & auth  	Session closed admin/4605691/127.0.0.1
20180320 18280003  & http  	127.0.0.1 <- 200
20180320 18280003  &  -    00.000.135
20180320 18383333  -  +    logout
20180320 18383333  - http  	127.0.0.1 -> POST logout
20180320 18383333  - http  	{}
20180320 18383333  - auth  	Session expire (timeout) admin/4605694/127.0.0.1
20180320 18383333  - http  	<- 401
20180320 18383333  -  -    00.000.048
20180320 18383333  (  +    adm
20180320 18383333  ( http  	127.0.0.1 -> GET adm
20180320 18383333  ( call  	endpoint adm
20180320 18383333  ( http  	127.0.0.1 <- 200
20180320 18383333  (  -    00.001.045
20180320 18383334  '  +    clientRequire/font-awesome/css/font-awesome.min.css
20180320 18383334  *  +    models/adminui-pub/themes/UBGrayTheme/UBGrayTheme-all.css?ver=d41d8cd98f00b204e9800998ecf8427e
20180320 18383334  1  +    models/adminui-pub/ub-css-all.css?ver=d41d8cd98f00b204e9800998ecf8427e
20180320 18383334  +  +    models/adminui-pub/themes/UBGrayTheme/ub.css?ver=d41d8cd98f00b204e9800998ecf8427e
20180320 18383334  * http  	127.0.0.1 -> GET models/adminui-pub/themes/UBGrayTheme/UBGrayTheme-all.css?ver=d41d8cd98f00b204e9800998ecf8427e
20180320 18383334  + http  	127.0.0.1 -> GET models/adminui-pub/themes/UBGrayTheme/ub.css?ver=d41d8cd98f00b204e9800998ecf8427e
20180320 18383334  ' http  	127.0.0.1 -> GET clientRequire/font-awesome/css/font-awesome.min.css
20180320 18383334  1 http  	127.0.0.1 -> GET models/adminui-pub/ub-css-all.css?ver=d41d8cd98f00b204e9800998ecf8427e
20180320 18383334  + call  	endpoint models
20180320 18383334  * call  	endpoint models
20180320 18383334  ' call  	endpoint clientRequire
20180320 18383334  1 call  	endpoint models
20180320 18383334  #  +    clientRequire/es6-promise/dist/es6-promise.auto.min.js
20180320 18383334  # http  	127.0.0.1 -> GET clientRequire/es6-promise/dist/es6-promise.auto.min.js
20180320 18383334  $  +    clientRequire/systemjs/dist/system.js?ver=d41d8cd98f00b204e9800998ecf8427e
20180320 18383334  $ http  	127.0.0.1 -> GET clientRequire/systemjs/dist/system.js?ver=d41d8cd98f00b204e9800998ecf8427e
20180320 18383334  # call  	endpoint clientRequire
20180320 18383334  $ call  	endpoint clientRequire
20180320 18383334  ' info  	Call clientRequire 
20180320 18383334  # info  	Call clientRequire 
20180320 18383334  ' http  	127.0.0.1 <- 200
20180320 18383334  1 http  	127.0.0.1 <- 200
20180320 18383334  '  -    00.000.510
20180320 18383334  1  -    00.000.506
20180320 18383334  # http  	127.0.0.1 <- 200
20180320 18383334  #  -    00.000.513
20180320 18383334  $ info  	Call clientRequire 
20180320 18383334  $ http  	127.0.0.1 <- 200
20180320 18383334  $  -    00.000.749
20180320 18383334  + http  	127.0.0.1 <- 200
20180320 18383334  +  -    00.001.950
20180320 18383334  * http  	127.0.0.1 <- 200
20180320 18383334  *  -    00.002.512
20180320 18383334  "  +    models/adminui-pub/dist/ext-all.min.js?ver=d41d8cd98f00b204e9800998ecf8427e
20180320 18383334  " http  	127.0.0.1 -> GET models/adminui-pub/dist/ext-all.min.js?ver=d41d8cd98f00b204e9800998ecf8427e
20180320 18383334  " call  	endpoint models
20180320 18383334  " http  	127.0.0.1 <- 200
20180320 18383334  "  -    00.000.942
20180320 18383338  0  +    clientRequire/font-awesome/fonts/fontawesome-webfont.woff2?v=4.7.0
20180320 18383338  0 http  	127.0.0.1 -> GET clientRequire/font-awesome/fonts/fontawesome-webfont.woff2?v=4.7.0
20180320 18383338  0 call  	endpoint clientRequire
20180320 18383338  0 info  	Call clientRequire 
20180320 18383338  0 http  	127.0.0.1 <- 200
20180320 18383338  0  -    00.000.432
20180320 18383400  ,  +    clientRequire/@unitybase/adminui-pub/package.json
20180320 18383400  , http  	127.0.0.1 -> GET clientRequire/@unitybase/adminui-pub/package.json
20180320 18383400  , call  	endpoint clientRequire
20180320 18383400  , info  	Call clientRequire 
20180320 18383400  , http  	127.0.0.1 <- 200
20180320 18383400  ,  -    00.000.382
20180320 18383401  .  +    clientRequire/@unitybase/adminui-pub/dist/adminui.app.min.js
20180320 18383401  %  +    models/UB/img/UBLogo32.png
20180320 18383401  . http  	127.0.0.1 -> GET clientRequire/@unitybase/adminui-pub/dist/adminui.app.min.js
20180320 18383401  % http  	127.0.0.1 -> GET models/UB/img/UBLogo32.png
20180320 18383401  . call  	endpoint clientRequire
20180320 18383401  % call  	endpoint models
20180320 18383401  . info  	Call clientRequire 
20180320 18383401  % http  	127.0.0.1 <- 200
20180320 18383401  %  -    00.000.667
20180320 18383401  . http  	127.0.0.1 <- 200
20180320 18383401  .  -    00.000.788
20180320 18383401  )  +    models/UB/img/UBLogo48.png
20180320 18383401  ) http  	127.0.0.1 -> GET models/UB/img/UBLogo48.png
20180320 18383401  ) call  	endpoint models
20180320 18383401  ) http  	127.0.0.1 <- 200
20180320 18383401  )  -    00.000.492
20180320 18383415  &  +    clientRequire/@unitybase/adminui-pub/themes/UBGrayTheme/UBGrayTheme.js
20180320 18383415  /  +    getAppInfo
20180320 18383415  & http  	127.0.0.1 -> GET clientRequire/@unitybase/adminui-pub/themes/UBGrayTheme/UBGrayTheme.js
20180320 18383415  / http  	127.0.0.1 -> GET getAppInfo
20180320 18383415  / call  	endpoint getAppInfo
20180320 18383415  & call  	endpoint clientRequire
20180320 18383415  -  +    models/UB/img/UBLogo128.png
20180320 18383415  - http  	127.0.0.1 -> GET models/UB/img/UBLogo128.png
20180320 18383415  & info  	Call clientRequire 
20180320 18383415  - call  	endpoint models
20180320 18383415  / http  	127.0.0.1 <- 304
20180320 18383415  /  -    00.000.314
20180320 18383415  & http  	127.0.0.1 <- 200
20180320 18383415  &  -    00.000.407
20180320 18383415  - http  	127.0.0.1 <- 200
20180320 18383415  -  -    00.000.288
20180320 18383415  (  +    models/adminui-pub/locale/lang-en.js?ubver=3865914637ef7cd48187d30356b8b4b0
20180320 18383415  ( http  	127.0.0.1 -> GET models/adminui-pub/locale/lang-en.js?ubver=3865914637ef7cd48187d30356b8b4b0
20180320 18383415  ( call  	endpoint models
20180320 18383415  ( http  	127.0.0.1 <- 200
20180320 18383415  (  -    00.000.278
20180320 18383415  1  +    models/UB/img/UBLogo16.ico
20180320 18383415  1 http  	127.0.0.1 -> GET models/UB/img/UBLogo16.ico
20180320 18383415  1 call  	endpoint models
20180320 18383415  1 http  	127.0.0.1 <- 200
20180320 18383415  1  -    00.000.302
20180320 18383418  #  +    models/adminui-pub/themes/UBGrayTheme/images/form/exclamation.png
20180320 18383418  # http  	127.0.0.1 -> GET models/adminui-pub/themes/UBGrayTheme/images/form/exclamation.png
20180320 18383418  # call  	endpoint models
20180320 18383418  # http  	127.0.0.1 <- 200
20180320 18383418  #  -    00.000.278
20180320 18383506  '  +    auth?AUTHTYPE=UB&userName=admin
20180320 18383506  ' http  	127.0.0.1 -> POST auth?AUTHTYPE=UB&userName=admin
20180320 18383506  ' call  	endpoint auth
20180320 18383506  ' http  	127.0.0.1 <- 200
20180320 18383506  '  -    00.000.166
20180320 18383506  $  +    auth?AUTHTYPE=UB&clientNonce=3ee60dcc61f83f938d47e725b160baf80c51b374bbcf6ecbe16f9f2efee4b9d3&password=6735ae0f2adae75ab790340f2eaf5be0e021e016576ec1d08b6354fecd75eac5&userName=admin
20180320 18383506  $ http  	127.0.0.1 -> POST auth?AUTHTYPE=UB&clientNonce=3ee60dcc61f83f938d47e725b160baf80c51b374bbcf6ecbe16f9f2efee4b9d3&password=6735ae0f2adae75ab790340f2eaf5be0e021e016576ec1d08b6354fecd75eac5&userName=admin
20180320 18383506  $ call  	endpoint auth
20180320 18383506  $  +    	ubApp.TubDataStore(20DEE6C0).Init
20180320 18383506  $  +    		ubApp.TubApp(02AB3EE0).DBExecute
20180320 18383506  $  +    			ubApp.TubApp(02AB3EE0).TubApp.InternalDBExecute
20180320 18383506  $ debug 				P1: String(5)	admin
20180320 18383506  $ SQL   				ubDBSQLite3ThreadSafe.TubSQLite3Statement(172854F0) select id, name, uPasswordHashHexa, uData, isPending, trustedIP from UBA_USER where name=? and disabled=0
20180320 18383506  $  -    			00.000.097
20180320 18383506  $  -    		00.000.206
20180320 18383506  $ debug 		Query result for entity "uba_user" into data name "": row count=1
20180320 18383506  $  -    	00.000.227
20180320 18383506  $  +    	ubApp.TubDataStore(20DEE6C0).Init
20180320 18383506  $  +    		ubApp.TubApp(02AB3EE0).DBExecute
20180320 18383506  $  +    			ubApp.TubApp(02AB3EE0).TubApp.InternalDBExecute
20180320 18383506  $ debug 				P1: Int64		10
20180320 18383506  $ SQL   				ubDBSQLite3ThreadSafe.TubSQLite3Statement(17284CB0) SELECT lastPasswordChangeDate FROM uba_user WHERE id=?
20180320 18383506  $  -    			00.000.026
20180320 18383506  $  -    		00.000.053
20180320 18383506  $ debug 		Query result for entity "uba_user" into data name "__expireDate": row count=1
20180320 18383506  $  -    	00.000.061
20180320 18383506  $  +    	ubApp.TubDataStore(20DEF700).Init
20180320 18383506  $  +    		ubApp.TubApp(02AB3EE0).DBExecute
20180320 18383506  $  +    			ubApp.TubApp(02AB3EE0).TubApp.InternalDBExecute
20180320 18383506  $ debug 				P1: Int64		10
20180320 18383506  $ SQL   				ubDBSQLite3ThreadSafe.TubSQLite3Statement(17285610) SELECT A01.roleID,A02.name,A02.description  FROM uba_userrole A01  INNER JOIN uba_role A02 ON A02.ID=A01.roleID  WHERE A01.userID=?
20180320 18383506  $  -    			00.000.054
20180320 18383506  $  -    		00.000.094
20180320 18383506  $ debug 		Query result for entity "uba_userrole" into data name "": row count=1
20180320 18383506  $  -    	00.000.103
20180320 18383506  $ auth  	New session admin/4605690 created at 127.0.0.1/-288230357361229533 using Mozilla/5.0 (Windows NT 6.3; Win64; x64) AppleWebKit/537.36 (KHTML, like Gecko) Chrome/64.0.3282.186 Safari/537.36 OPR/51.0.2830.55
20180320 18383506  $  +    	ubMixinClasses.TubStorageMixin(02B042C0).MixinMethod
20180320 18383506  $ debug 		uba_user.select(TubStorageMixin)
20180320 18383506  $  +    		ubApp.TubDataStore(20DEF700).Init
20180320 18383506  $  +    			ubApp.TubApp(02AB3EE0).DBExecute
20180320 18383506  $  +    				ubApp.TubApp(02AB3EE0).TubApp.InternalDBExecute
20180320 18383506  $ debug 					P1: Int64		10
20180320 18383506  $ SQL   					ubDBSQLite3ThreadSafe.TubSQLite3Statement(17285790) SELECT A01.name  FROM uba_user A01  WHERE A01.ID=?
20180320 18383506  $  -    				00.000.032
20180320 18383506  $  -    			00.000.057
20180320 18383506  $ debug 			Query result for entity "uba_user" into data name "": row count=1
20180320 18383506  $  -    		00.000.065
20180320 18383506  $  -    	00.000.130
20180320 18383506  $  +    	ubMixinClasses.TubStorageMixin(02B042C0).MixinMethod
20180320 18383506  $ debug 		uba_advSecurity.select(TubStorageMixin)
20180320 18383506  $  +    		ubApp.TubDataStore(20DEF700).Init
20180320 18383506  $  +    			ubApp.TubApp(02AB3EE0).DBExecute
20180320 18383506  $  +    				ubApp.TubApp(02AB3EE0).TubApp.InternalDBExecute
20180320 18383506  $ debug 					P1: Int64		10
20180320 18383506  $ SQL   					ubDBSQLite3ThreadSafe.TubSQLite3Statement(172857F0) SELECT A01.ID,A01.allowedIP,A01.refreshIP,A01.fp,A01.refreshFp,A01.keyMediaName,A01.refreshKeyMedia,A01.mi_modifyDate  FROM uba_advSecurity A01  WHERE A01.userID=?
20180320 18383506  $  -    				00.000.047
20180320 18383506  $  -    			00.000.080
20180320 18383506  $ debug 			Query result for entity "uba_advSecurity" into data name "": row count=0
20180320 18383506  $  -    		00.000.089
20180320 18383506  $  -    	00.000.189
20180320 18383506  $  +    	ubMixinClasses.TubStorageMixin(02B042C0).MixinMethod
20180320 18383506  $ debug 		uba_userrole.select(TubStorageMixin)
20180320 18383506  $  +    		ubApp.TubDataStore(20DEF700).Init
20180320 18383506  $  +    			ubApp.TubApp(02AB3EE0).DBExecute
20180320 18383506  $  +    				ubApp.TubApp(02AB3EE0).TubApp.InternalDBExecute
20180320 18383506  $ debug 					P1: Int64		10
20180320 18383506  $ SQL   					ubDBSQLite3ThreadSafe.TubSQLite3Statement(172858B0) SELECT A01.ID,A02.name,A01.roleID  FROM uba_userrole A01  INNER JOIN uba_role A02 ON A02.ID=A01.roleID  WHERE A01.userID=?
20180320 18383506  $  -    				00.000.064
20180320 18383506  $  -    			00.000.139
20180320 18383506  $ debug 			Query result for entity "uba_userrole" into data name "": row count=1
20180320 18383506  $  -    		00.000.149
20180320 18383506  $  -    	00.000.229
20180320 18383506  $  +    	ubMixinClasses.TubStorageMixin(02B042C0).MixinMethod
20180320 18383506  $ debug 		uba_audit.beforeinsert(TubStorageMixin)
20180320 18383506  $  -    	00.000.013
20180320 18383506  $  +    	ubMixinClasses.TubStorageMixin(02B042C0).MixinMethod
20180320 18383506  $ debug 		uba_audit.insert(TubStorageMixin)
20180320 18383506  $  +    		ubApp.TubDataStore(07265520).TubDataStore.ExecuteInsertFromList
20180320 18383506  $  +    			ubApp.TubDataStore(07265520).TubDataStore.ExecuteInsertFromSQL
20180320 18383506  $  +    				ubApp.TubApp(02AB3EE0).DBExecute
20180320 18383506  $  +    					ubApp.TubApp(02AB3EE0).TubApp.InternalDBExecute
20180320 18383506  $ debug 						P1: String(8)	uba_user
20180320 18383506  $ debug 						P2: Int64		10
20180320 18383506  $ debug 						P3: String(5)	LOGIN
20180320 18383506  $ debug 						P4: Int64		10
20180320 18383506  $ debug 						P5: DateTime	2018-03-20T18:38:35
20180320 18383506  $ debug 						P6: String(9)	127.0.0.1
20180320 18383506  $ debug 						P7: String(5)	admin
20180320 18383506  $ debug 						P8: Int64		335498591076353
20180320 18383506  $ debug 						P9: String(407..)	Connection: keep-alive  Content-Length: 0  Accept: application/json, text/plain, */*  Accept-Encodin...
20180320 18383506  $ DB    						StartTransaction for connection "main"
20180320 18383506  $ SQL   						ubDBSQLite3ThreadSafe.TubSQLite3Statement(17285970) INSERT INTO uba_audit (entity,entityinfo_id,actionType,actionUser,actionTime,remoteIP,targetUser,ID,fromValue) VALUES (?,?,?,?,?,?,?,?,?)
20180320 18383506  $  -    					00.000.206
20180320 18383506  $  -    				00.000.210
20180320 18383506  $  -    			00.000.331
20180320 18383506  $  -    		00.000.348
20180320 18383506  $  -    	00.000.354
20180320 18383506  $  +    	ubMixinClasses.TubStorageMixin(02B042C0).MixinMethod
20180320 18383506  $ debug 		uba_audit.afterinsert(TubStorageMixin)
20180320 18383506  $  -    	00.000.004
20180320 18383506  $ DB    	Commit connection "main"
20180320 18383506  $ http  	127.0.0.1 <- 200
20180320 18383506  $  -    00.005.809
20180320 18383507  +  +    getDomainInfo?userName=admin&v=4
20180320 18383507  + http  	127.0.0.1 -> GET getDomainInfo?userName=admin&v=4
20180320 18383507  + auth  	admin/4605690
20180320 18383507  + call  	endpoint getDomainInfo
20180320 18383507  + http  	127.0.0.1 <- 304
20180320 18383507  +  -    00.003.087
20180320 18383508  0  +    models/UBA/locale/lang-en.js?ubver=77650b6a42c37186bfb44af18a505e71
20180320 18383508  *  +    models/UB/locale/lang-en.js?ubver=16b0a19c938f48c16b56a05da80f0dc2
20180320 18383508  0 http  	127.0.0.1 -> GET models/UBA/locale/lang-en.js?ubver=77650b6a42c37186bfb44af18a505e71
20180320 18383508  * http  	127.0.0.1 -> GET models/UB/locale/lang-en.js?ubver=16b0a19c938f48c16b56a05da80f0dc2
20180320 18383508  ,  +    models/UBM/locale/lang-en.js?ubver=5d30adb331eaa71d9412558d2ace2271
20180320 18383508  "  +    models/UBS/locale/lang-en.js?ubver=16f6cb04f3b2b6a19844744bc20cc653
20180320 18383508  , http  	127.0.0.1 -> GET models/UBM/locale/lang-en.js?ubver=5d30adb331eaa71d9412558d2ace2271
20180320 18383508  " http  	127.0.0.1 -> GET models/UBS/locale/lang-en.js?ubver=16f6cb04f3b2b6a19844744bc20cc653
20180320 18383508  * call  	endpoint models
20180320 18383508  0 call  	endpoint models
20180320 18383508  " call  	endpoint models
20180320 18383508  , call  	endpoint models
20180320 18383508  " http  	127.0.0.1 <- 200
20180320 18383508  0 http  	127.0.0.1 <- 200
20180320 18383508  "  -    00.000.272
20180320 18383508  0  -    00.000.285
20180320 18383508  , http  	127.0.0.1 <- 200
20180320 18383508  ,  -    00.000.285
20180320 18383508  * http  	127.0.0.1 <- 200
20180320 18383508  *  -    00.001.481
20180320 18383508  %  +    clientRequire/@unitybase/ubs/package.json
20180320 18383508  % http  	127.0.0.1 -> GET clientRequire/@unitybase/ubs/package.json
20180320 18383508  % call  	endpoint clientRequire
20180320 18383508  % info  	Call clientRequire 
20180320 18383508  % http  	127.0.0.1 <- 200
20180320 18383508  %  -    00.000.297
20180320 18383508  .  +    clientRequire/@unitybase/ubs/public/initModel.js
20180320 18383508  . http  	127.0.0.1 -> GET clientRequire/@unitybase/ubs/public/initModel.js
20180320 18383508  . call  	endpoint clientRequire
20180320 18383508  . info  	Call clientRequire 
20180320 18383508  . http  	127.0.0.1 <- 200
20180320 18383508  .  -    00.000.237
20180320 18383508  )  +    clientRequire/@unitybase/ubs/public/dist/ubs.main.min.js?ubver=2018-03-20T20:03:34
20180320 18383508  ) http  	127.0.0.1 -> GET clientRequire/@unitybase/ubs/public/dist/ubs.main.min.js?ubver=2018-03-20T20:03:34
20180320 18383508  ) call  	endpoint clientRequire
20180320 18383508  ) info  	Call clientRequire 
20180320 18383508  ) http  	127.0.0.1 <- 200
20180320 18383508  )  -    00.000.273
20180320 18383508  /  +    clientRequire/@unitybase/ubm/package.json
20180320 18383508  / http  	127.0.0.1 -> GET clientRequire/@unitybase/ubm/package.json
20180320 18383508  / call  	endpoint clientRequire
20180320 18383508  / info  	Call clientRequire 
20180320 18383508  / http  	127.0.0.1 <- 200
20180320 18383508  /  -    00.000.248
20180320 18383509  &  +    clientRequire/@unitybase/ubm/public/initModel.js
20180320 18383509  & http  	127.0.0.1 -> GET clientRequire/@unitybase/ubm/public/initModel.js
20180320 18383509  & call  	endpoint clientRequire
20180320 18383509  & info  	Call clientRequire 
20180320 18383509  & http  	127.0.0.1 <- 200
20180320 18383509  &  -    00.000.301
20180320 18383511  -  +    ubql
20180320 18383511  - http  	127.0.0.1 -> POST ubql
20180320 18383511  - http  	[{"entity":"ubs_settings","method":"select","fieldList":["ID","settingKey","name","description","type","settingValue","defaultValue"],"version":"1519981756"},{"entity":"ubm_desktop","method":"select","fieldList":["ID","caption","code","url","isDefault","mi_owner","mi_createDate","mi_createUser","mi_modifyDate","mi_modifyUser","mi_deleteDate","mi_deleteUser"],"version":"-1"},{"entity":"ubm_form","method":"select","fieldList":["ID","code","description","caption","formType","formDef","formCode","model","entity","isDefault","mi_owner","mi_createDate","mi_createUser","mi_modifyDate","mi_modifyUser"],"version":2613330792},{"entity":"ubm_enum","method":"select","fieldList":["ID","eGroup","code","shortName","name","sortOrder","mi_owner","mi_createDate","mi_createUser","mi_modifyDate","mi_modifyUser","mi_deleteDate","mi_deleteUser"],"version":"1519981756"}]
20180320 18383511  - auth  	admin/4605690
20180320 18383511  - call  	endpoint ubql
20180320 18383511  -  +    	ubMixinClasses.TubStorageMixin(02B042C0).MixinMethod
20180320 18383511  - debug 		ubs_settings.select(TubStorageMixin)
20180320 18383511  -  +    		ubApp.TubDataStore(20DEF688).Init
20180320 18383511  -  +    			ubApp.TubApp(02AB3EE0).DBExecute
20180320 18383511  -  +    				ubApp.TubApp(02AB3EE0).TubApp.InternalDBExecute
20180320 18383511  - SQL   					ubDBSQLite3ThreadSafe.TubSQLite3Statement(17285A90) SELECT ( (SELECT COALESCE(strftime('%s',  MAX(mi_modifyDate)),1) FROM ubs_settings) ) AS dataVersion
20180320 18383511  -  -    				00.000.076
20180320 18383511  -  -    			00.000.168
20180320 18383511  - debug 			Query result for entity "ubs_settings" into data name "": row count=1
20180320 18383511  -  -    		00.000.177
20180320 18383511  -  -    	00.000.281
20180320 18383511  -  +    	ubMixinClasses.TubRLSMixin(02B04E20).MixinMethod
20180320 18383511  - debug 		ubm_desktop.select(TubRLSMixin)
20180320 18383511  - debug 		Prepare RLS expression for ubm_desktop
20180320 18383511  -  -    	00.000.235
20180320 18383511  -  +    	ubMixinClasses.TubStorageMixin(02B042C0).MixinMethod
20180320 18383511  - debug 		ubm_desktop.select(TubStorageMixin)
20180320 18383511  -  +    		ubApp.TubDataStore(20E99FB0).Init
20180320 18383511  -  +    			ubApp.TubApp(02AB3EE0).DBExecute
20180320 18383511  -  +    				ubApp.TubApp(02AB3EE0).TubApp.InternalDBExecute
20180320 18383511  - debug 					P1: Int64		10
20180320 18383511  - debug 					P2: Int64		10
20180320 18383511  - debug 					P3: DateTime	9999-12-31T00:00:00
20180320 18383511  - SQL   					ubDBSQLite3ThreadSafe.TubSQLite3Statement(172856D0) SELECT A01.ID,A01.caption,A01.code,A01.url,A01.isDefault,A01.mi_owner,A01.mi_createDate,A01.mi_createUser,A01.mi_modifyDate,A01.mi_modifyUser,A01.mi_deleteDate,A01.mi_deleteUser  FROM ubm_desktop A01  WHERE (( A01.mi_owner = ? ) OR (1=1) OR exists (select 1 from ubm_desktop_adm admsubtable where admsubtable.instanceID = A01.ID and admsubtable.admSubjID in (select ur.RoleID from uba_userrole ur where ur.UserID = ? union select 10))) AND A01.mi_deleteDate=?
20180320 18383511  -  -    				00.000.122
20180320 18383511  -  -    			00.000.166
20180320 18383511  - debug 			Query result for entity "ubm_desktop" into data name "": row count=2
20180320 18383511  -  -    		00.000.180
20180320 18383511  -  -    	00.000.333
20180320 18383512  -  +    	ubMixinClasses.TubStorageMixin(02B042C0).MixinMethod
20180320 18383512  - debug 		ubm_enum.select(TubStorageMixin)
20180320 18383512  -  +    		ubApp.TubDataStore(20E9A2A8).Init
20180320 18383512  -  +    			ubApp.TubApp(02AB3EE0).DBExecute
20180320 18383512  -  +    				ubApp.TubApp(02AB3EE0).TubApp.InternalDBExecute
20180320 18383512  - SQL   					ubDBSQLite3ThreadSafe.TubSQLite3Statement(17285AF0) SELECT ( (SELECT COALESCE(strftime('%s',  MAX(mi_modifyDate)),1) FROM ubm_enum) ) AS dataVersion
20180320 18383512  -  -    				00.000.075
20180320 18383512  -  -    			00.000.146
20180320 18383512  - debug 			Query result for entity "ubm_enum" into data name "": row count=1
20180320 18383512  -  -    		00.000.156
20180320 18383512  -  +    		ubApp.TubDataStore(20E9A2A8).Init
20180320 18383512  -  +    			ubApp.TubApp(02AB3EE0).DBExecute
20180320 18383512  -  +    				ubApp.TubApp(02AB3EE0).TubApp.InternalDBExecute
20180320 18383512  - debug 					P1: DateTime	9999-12-31T00:00:00
20180320 18383512  - SQL   					ubDBSQLite3ThreadSafe.TubSQLite3Statement(17285B50) SELECT A01.ID,A01.eGroup,A01.code,A01.shortName,A01.name,A01.sortOrder,A01.mi_owner,A01.mi_createDate,A01.mi_createUser,A01.mi_modifyDate,A01.mi_modifyUser,A01.mi_deleteDate,A01.mi_deleteUser  FROM ubm_enum A01  WHERE A01.mi_deleteDate=?
20180320 18383512  -  -    				00.000.062
20180320 18383512  -  -    			00.000.146
20180320 18383512  - debug 			Query result for entity "ubm_enum" into data name "": row count=30
20180320 18383512  -  -    		00.000.171
20180320 18383512  -  -    	00.000.581
20180320 18383512  - http  	127.0.0.1 <- 200
20180320 18383512  -  -    00.026.033
20180320 18383517  (  +    ubql
20180320 18383517  ( http  	127.0.0.1 -> POST ubql
20180320 18383517  ( http  	[{"entity":"ubm_navshortcut","method":"select","fieldList":["ID","desktopID","parentID","code","isFolder","caption","inWindow","isCollapsed","displayOrder","iconCls","mi_modifyDate"],"orderList":{"0":{"expression":"desktopID","order":"asc"},"1":{"expression":"parentID","order":"asc"},"2":{"expression":"displayOrder","order":"asc"},"3":{"expression":"caption","order":"asc"}}}]
20180320 18383517  ( auth  	admin/4605690
20180320 18383517  ( call  	endpoint ubql
20180320 18383517  (  +    	ubMixinClasses.TubRLSMixin(02B04E20).MixinMethod
20180320 18383517  ( debug 		ubm_navshortcut.select(TubRLSMixin)
20180320 18383517  ( debug 		Prepare RLS expression for ubm_navshortcut
20180320 18383517  (  -    	00.000.225
20180320 18383517  (  +    	ubMixinClasses.TubStorageMixin(02B042C0).MixinMethod
20180320 18383517  ( debug 		ubm_navshortcut.select(TubStorageMixin)
20180320 18383517  (  +    		ubApp.TubDataStore(20E99D08).Init
20180320 18383517  (  +    			ubApp.TubApp(02AB3EE0).DBExecute
20180320 18383517  (  +    				ubApp.TubApp(02AB3EE0).TubApp.InternalDBExecute
20180320 18383517  ( debug 					P1: Int64		10
20180320 18383517  ( debug 					P2: Int64		10
20180320 18383517  ( debug 					P3: DateTime	9999-12-31T00:00:00
20180320 18383517  ( SQL   					ubDBSQLite3ThreadSafe.TubSQLite3Statement(17284AD0) SELECT A01.ID,A01.desktopID,A01.parentID,A01.code,A01.isFolder,A01.caption,A01.inWindow,A01.isCollapsed,A01.displayOrder,A01.iconCls,A01.mi_modifyDate  FROM ubm_navshortcut A01  WHERE (( A01.mi_owner = ? ) OR               (1=1) OR                             exists (select 1 from ubm_navshortcut_adm admsubtable where admsubtable.instanceID = A01.ID and admsubtable.admSubjID in (select ur.RoleID from uba_userrole ur where ur.UserID = ? union select 10))) AND A01.mi_deleteDate=? ORDER BY 2 ASC,3 ASC,9 ASC,6 ... (truncated) length=515
20180320 18383517  (  -    				00.000.165
20180320 18383517  (  -    			00.000.430
20180320 18383517  ( debug 			Query result for entity "ubm_navshortcut" into data name "": row count=34
20180320 18383517  (  -    		00.000.463
20180320 18383517  (  -    	00.000.637
20180320 18383517  ( http  	127.0.0.1 <- 200
20180320 18383517  (  -    00.001.201
20180320 18383522  1  +    models/adminui-pub/themes/UBGrayTheme/images/toolbar/more.png
20180320 18383522  1 http  	127.0.0.1 -> GET models/adminui-pub/themes/UBGrayTheme/images/toolbar/more.png
20180320 18383522  1 call  	endpoint models
20180320 18383522  1 http  	127.0.0.1 <- 200
20180320 18383522  1  -    00.000.265
20180320 18383522  '  +    models/adminui-pub/themes/UBGrayTheme/images/button/default-toolbar-small-arrow.png
20180320 18383522  ' http  	127.0.0.1 -> GET models/adminui-pub/themes/UBGrayTheme/images/button/default-toolbar-small-arrow.png
20180320 18383522  #  +    models/adminui-pub/themes/UBGrayTheme/images/grid/hd-pop.png
20180320 18383522  # http  	127.0.0.1 -> GET models/adminui-pub/themes/UBGrayTheme/images/grid/hd-pop.png
20180320 18383522  ' call  	endpoint models
20180320 18383522  # call  	endpoint models
20180320 18383522  # http  	127.0.0.1 <- 200
20180320 18383522  #  -    00.000.198
20180320 18383522  ' http  	127.0.0.1 <- 200
20180320 18383522  '  -    00.000.224
20180320 18383627  "  +    models/adminui-pub/themes/UBGrayTheme/images/menu/scroll-bottom.png
20180320 18383627  +  +    models/adminui-pub/themes/UBGrayTheme/images/menu/menu-parent.png
20180320 18383627  $  +    models/adminui-pub/themes/UBGrayTheme/images/menu/scroll-top.png
20180320 18383627  " http  	127.0.0.1 -> GET models/adminui-pub/themes/UBGrayTheme/images/menu/scroll-bottom.png
20180320 18383627  $ http  	127.0.0.1 -> GET models/adminui-pub/themes/UBGrayTheme/images/menu/scroll-top.png
20180320 18383627  + http  	127.0.0.1 -> GET models/adminui-pub/themes/UBGrayTheme/images/menu/menu-parent.png
20180320 18383627  + call  	endpoint models
20180320 18383627  " call  	endpoint models
20180320 18383627  $ call  	endpoint models
20180320 18383627  $ http  	127.0.0.1 <- 200
20180320 18383627  $  -    00.000.271
20180320 18383627  + http  	127.0.0.1 <- 200
20180320 18383627  +  -    00.000.291
20180320 18383627  " http  	127.0.0.1 <- 200
20180320 18383627  "  -    00.001.692
20180320 18383661  *  +    models/adminui-pub/themes/UBGrayTheme/ubimages/form.ico
20180320 18383661  ,  +    models/adminui-pub/themes/UBGrayTheme/ubimages/ui.ico
20180320 18383661  0  +    models/adminui-pub/themes/UBGrayTheme/ubimages/data.ico
20180320 18383661  , http  	127.0.0.1 -> GET models/adminui-pub/themes/UBGrayTheme/ubimages/ui.ico
20180320 18383661  * http  	127.0.0.1 -> GET models/adminui-pub/themes/UBGrayTheme/ubimages/form.ico
20180320 18383661  0 http  	127.0.0.1 -> GET models/adminui-pub/themes/UBGrayTheme/ubimages/data.ico
20180320 18383661  0 call  	endpoint models
20180320 18383661  , call  	endpoint models
20180320 18383661  * call  	endpoint models
20180320 18383661  , http  	127.0.0.1 <- 200
20180320 18383661  0 http  	127.0.0.1 <- 200
20180320 18383661  * http  	127.0.0.1 <- 200
20180320 18383661  ,  -    00.000.732
20180320 18383661  0  -    00.000.731
20180320 18383661  *  -    00.000.736
20180320 18394837  %  +    getAppInfo
20180320 18394837  % http  	127.0.0.1 -> GET getAppInfo
20180320 18394837  % call  	endpoint getAppInfo
20180320 18394837  % http  	127.0.0.1 <- 200
20180320 18394837  %  -    00.000.563
20180320 18394837  .  +    getAppInfo
20180320 18394837  . http  	127.0.0.1 -> GET getAppInfo
20180320 18394837  . call  	endpoint getAppInfo
20180320 18394837  . http  	127.0.0.1 <- 200
20180320 18394837  .  -    00.000.237
20180320 18394838  )  +    auth?AUTHTYPE=UB&userName=admin
20180320 18394838  ) http  	127.0.0.1 -> GET auth?AUTHTYPE=UB&userName=admin
20180320 18394838  ) call  	endpoint auth
20180320 18394838  ) http  	127.0.0.1 <- 200
20180320 18394838  )  -    00.000.175
20180320 18394838  /  +    auth?AUTHTYPE=UB&clientNonce=ab8c818eeb487a8a04c1951b942b2bb66d77d993faa754435ecb3f01f1d92e71&password=2029fcd2da5b38246560e3f3934f1923aca30401634238bc8457817bc2417c5f&userName=admin
20180320 18394838  / http  	127.0.0.1 -> GET auth?AUTHTYPE=UB&clientNonce=ab8c818eeb487a8a04c1951b942b2bb66d77d993faa754435ecb3f01f1d92e71&password=2029fcd2da5b38246560e3f3934f1923aca30401634238bc8457817bc2417c5f&userName=admin
20180320 18394838  / call  	endpoint auth
20180320 18394838  /  +    	ubApp.TubDataStore(20DEF6D8).Init
20180320 18394838  /  +    		ubApp.TubApp(02AB3EE0).DBExecute
20180320 18394838  /  +    			ubApp.TubApp(02AB3EE0).TubApp.InternalDBExecute
20180320 18394838  / debug 				P1: String(5)	admin
20180320 18394838  / SQL   				ubDBSQLite3ThreadSafe.TubSQLite3Statement(17285DF0) select id, name, uPasswordHashHexa, uData, isPending, trustedIP from UBA_USER where name=? and disabled=0
20180320 18394838  /  -    			00.000.102
20180320 18394838  /  -    		00.000.207
20180320 18394838  / debug 		Query result for entity "uba_user" into data name "": row count=1
20180320 18394838  /  -    	00.000.231
20180320 18394838  /  +    	ubApp.TubDataStore(20DEF6D8).Init
20180320 18394838  /  +    		ubApp.TubApp(02AB3EE0).DBExecute
20180320 18394838  /  +    			ubApp.TubApp(02AB3EE0).TubApp.InternalDBExecute
20180320 18394838  / debug 				P1: Int64		10
20180320 18394838  / SQL   				ubDBSQLite3ThreadSafe.TubSQLite3Statement(17285730) SELECT lastPasswordChangeDate FROM uba_user WHERE id=?
20180320 18394838  /  -    			00.000.027
20180320 18394838  /  -    		00.000.054
20180320 18394838  / debug 		Query result for entity "uba_user" into data name "__expireDate": row count=1
20180320 18394838  /  -    	00.000.063
20180320 18394838  /  +    	ubApp.TubDataStore(20DEC6E0).Init
20180320 18394838  /  +    		ubApp.TubApp(02AB3EE0).DBExecute
20180320 18394838  /  +    			ubApp.TubApp(02AB3EE0).TubApp.InternalDBExecute
20180320 18394838  / debug 				P1: Int64		10
20180320 18394838  / SQL   				ubDBSQLite3ThreadSafe.TubSQLite3Statement(17285C10) SELECT A01.roleID,A02.name,A02.description  FROM uba_userrole A01  INNER JOIN uba_role A02 ON A02.ID=A01.roleID  WHERE A01.userID=?
20180320 18394838  /  -    			00.000.053
20180320 18394838  /  -    		00.000.094
20180320 18394838  / debug 		Query result for entity "uba_userrole" into data name "": row count=1
20180320 18394838  /  -    	00.000.103
20180320 18394838  / auth  	New session admin/4605685 created at 127.0.0.1/-144115186465243050 using Mozilla/5.0 (Windows; mORMot 1.18 TWinHTTP)
20180320 18394838  /  +    	ubMixinClasses.TubStorageMixin(02B042C0).MixinMethod
20180320 18394838  / debug 		uba_user.select(TubStorageMixin)
20180320 18394838  /  +    		ubApp.TubDataStore(20DEC6E0).Init
20180320 18394838  /  +    			ubApp.TubApp(02AB3EE0).DBExecute
20180320 18394838  /  +    				ubApp.TubApp(02AB3EE0).TubApp.InternalDBExecute
20180320 18394838  / debug 					P1: Int64		10
20180320 18394838  / SQL   					ubDBSQLite3ThreadSafe.TubSQLite3Statement(17285E50) SELECT A01.name  FROM uba_user A01  WHERE A01.ID=?
20180320 18394838  /  -    				00.000.032
20180320 18394838  /  -    			00.000.056
20180320 18394838  / debug 			Query result for entity "uba_user" into data name "": row count=1
20180320 18394838  /  -    		00.000.064
20180320 18394838  /  -    	00.000.128
20180320 18394838  /  +    	ubMixinClasses.TubStorageMixin(02B042C0).MixinMethod
20180320 18394838  / debug 		uba_advSecurity.select(TubStorageMixin)
20180320 18394838  /  +    		ubApp.TubDataStore(20DEC6E0).Init
20180320 18394838  /  +    			ubApp.TubApp(02AB3EE0).DBExecute
20180320 18394838  /  +    				ubApp.TubApp(02AB3EE0).TubApp.InternalDBExecute
20180320 18394838  / debug 					P1: Int64		10
20180320 18394838  / SQL   					ubDBSQLite3ThreadSafe.TubSQLite3Statement(17285EB0) SELECT A01.ID,A01.allowedIP,A01.refreshIP,A01.fp,A01.refreshFp,A01.keyMediaName,A01.refreshKeyMedia,A01.mi_modifyDate  FROM uba_advSecurity A01  WHERE A01.userID=?
20180320 18394838  /  -    				00.000.047
20180320 18394838  /  -    			00.000.078
20180320 18394838  / debug 			Query result for entity "uba_advSecurity" into data name "": row count=0
20180320 18394838  /  -    		00.000.087
20180320 18394838  /  -    	00.000.183
20180320 18394838  /  +    	ubMixinClasses.TubStorageMixin(02B042C0).MixinMethod
20180320 18394838  / debug 		uba_userrole.select(TubStorageMixin)
20180320 18394838  /  +    		ubApp.TubDataStore(20DEC6E0).Init
20180320 18394838  /  +    			ubApp.TubApp(02AB3EE0).DBExecute
20180320 18394838  /  +    				ubApp.TubApp(02AB3EE0).TubApp.InternalDBExecute
20180320 18394838  / debug 					P1: Int64		10
20180320 18394838  / SQL   					ubDBSQLite3ThreadSafe.TubSQLite3Statement(17285F70) SELECT A01.ID,A02.name,A01.roleID  FROM uba_userrole A01  INNER JOIN uba_role A02 ON A02.ID=A01.roleID  WHERE A01.userID=?
20180320 18394838  /  -    				00.000.052
20180320 18394838  /  -    			00.000.093
20180320 18394838  / debug 			Query result for entity "uba_userrole" into data name "": row count=1
20180320 18394838  /  -    		00.000.102
20180320 18394838  /  -    	00.000.172
20180320 18394838  /  +    	ubMixinClasses.TubStorageMixin(02B042C0).MixinMethod
20180320 18394838  / debug 		uba_audit.beforeinsert(TubStorageMixin)
20180320 18394838  /  -    	00.000.006
20180320 18394838  /  +    	ubMixinClasses.TubStorageMixin(02B042C0).MixinMethod
20180320 18394838  / debug 		uba_audit.insert(TubStorageMixin)
20180320 18394838  /  +    		ubApp.TubDataStore(17320DE8).TubDataStore.ExecuteInsertFromList
20180320 18394838  /  +    			ubApp.TubDataStore(17320DE8).TubDataStore.ExecuteInsertFromSQL
20180320 18394838  /  +    				ubApp.TubApp(02AB3EE0).DBExecute
20180320 18394838  /  +    					ubApp.TubApp(02AB3EE0).TubApp.InternalDBExecute
20180320 18394838  / debug 						P1: String(8)	uba_user
20180320 18394838  / debug 						P2: Int64		10
20180320 18394838  / debug 						P3: String(5)	LOGIN
20180320 18394838  / debug 						P4: Int64		10
20180320 18394838  / debug 						P5: DateTime	2018-03-20T18:39:48
20180320 18394838  / debug 						P6: String(9)	127.0.0.1
20180320 18394838  / debug 						P7: String(5)	admin
20180320 18394838  / debug 						P8: Int64		335498600480769
20180320 18394838  / debug 						P9: String(202..)	Cache-Control: no-cache  Connection: Keep-Alive  Pragma: no-cache  Accept: */*  Accept-Encoding: gzi...
20180320 18394838  / DB    						StartTransaction for connection "main"
20180320 18394838  / SQL   						ubDBSQLite3ThreadSafe.TubSQLite3Statement(17286030) INSERT INTO uba_audit (entity,entityinfo_id,actionType,actionUser,actionTime,remoteIP,targetUser,ID,fromValue) VALUES (?,?,?,?,?,?,?,?,?)
20180320 18394838  /  -    					00.000.102
20180320 18394838  /  -    				00.000.105
20180320 18394838  /  -    			00.000.193
20180320 18394838  /  -    		00.000.205
20180320 18394838  /  -    	00.000.210
20180320 18394838  /  +    	ubMixinClasses.TubStorageMixin(02B042C0).MixinMethod
20180320 18394838  / debug 		uba_audit.afterinsert(TubStorageMixin)
20180320 18394838  /  -    	00.000.004
20180320 18394838  / DB    	Commit connection "main"
20180320 18394838  / http  	127.0.0.1 <- 200
20180320 18394838  /  -    00.005.261
20180320 18394838  &  +    ubql
20180320 18394838  & http  	127.0.0.1 -> POST ubql
20180320 18394838  & http  	[{"entity":"ubm_desktop","method":"select","fieldList":["ID"],"options":{"limit":1},"whereList":{"lookup":{"expression":"code","condition":"equal","values":{"code":"CityReq_desktop"}}}}]
20180320 18394838  & auth  	admin/4605685
20180320 18394838  & call  	endpoint ubql
20180320 18394838  &  +    	ubMixinClasses.TubRLSMixin(02B04E20).MixinMethod
20180320 18394838  & debug 		ubm_desktop.select(TubRLSMixin)
20180320 18394838  & debug 		Prepare RLS expression for ubm_desktop
20180320 18394838  &  -    	00.000.210
20180320 18394838  &  +    	ubMixinClasses.TubStorageMixin(02B042C0).MixinMethod
20180320 18394838  & debug 		ubm_desktop.select(TubStorageMixin)
20180320 18394838  &  +    		ubApp.TubDataStore(20E9A2D0).Init
20180320 18394838  &  +    			ubApp.TubApp(02AB3EE0).DBExecute
20180320 18394838  &  +    				ubApp.TubApp(02AB3EE0).TubApp.InternalDBExecute
20180320 18394838  & debug 					P1: String(15)	CityReq_desktop
20180320 18394838  & debug 					P2: Int64		10
20180320 18394838  & debug 					P3: Int64		10
20180320 18394838  & debug 					P4: DateTime	9999-12-31T00:00:00
20180320 18394838  & SQL   					ubDBSQLite3ThreadSafe.TubSQLite3Statement(17286150) SELECT A01.ID  FROM ubm_desktop A01  WHERE code=? AND (( A01.mi_owner = ? ) OR (1=1) OR exists (select 1 from ubm_desktop_adm admsubtable where admsubtable.instanceID = A01.ID and admsubtable.admSubjID in (select ur.RoleID from uba_userrole ur where ur.UserID = ? union select 10))) AND A01.mi_deleteDate=? LIMIT 1 OFFSET 0 
20180320 18394838  &  -    				00.000.110
20180320 18394838  &  -    			00.000.176
20180320 18394838  & debug 			Query result for entity "ubm_desktop" into data name "": row count=1
20180320 18394838  &  -    		00.000.189
20180320 18394838  &  -    	00.000.292
20180320 18394838  & http  	127.0.0.1 <- 200
20180320 18394838  &  -    00.000.804
20180320 18394838  -  +    ubql
20180320 18394838  - http  	127.0.0.1 -> POST ubql
20180320 18394838  - http  	[{"entity":"ubm_navshortcut","method":"select","fieldList":["ID"],"options":{"limit":1},"whereList":{"lookup":{"expression":"code","condition":"equal","values":{"code":"req_departments_folder"}}}}]
20180320 18394838  - auth  	admin/4605685
20180320 18394838  - call  	endpoint ubql
20180320 18394838  -  +    	ubMixinClasses.TubRLSMixin(02B04E20).MixinMethod
20180320 18394838  - debug 		ubm_navshortcut.select(TubRLSMixin)
20180320 18394838  - debug 		Prepare RLS expression for ubm_navshortcut
20180320 18394838  -  -    	00.000.229
20180320 18394838  -  +    	ubMixinClasses.TubStorageMixin(02B042C0).MixinMethod
20180320 18394838  - debug 		ubm_navshortcut.select(TubStorageMixin)
20180320 18394838  -  +    		ubApp.TubDataStore(20E99BF0).Init
20180320 18394838  -  +    			ubApp.TubApp(02AB3EE0).DBExecute
20180320 18394838  -  +    				ubApp.TubApp(02AB3EE0).TubApp.InternalDBExecute
20180320 18394838  - debug 					P1: String(22)	req_departments_folder
20180320 18394838  - debug 					P2: Int64		10
20180320 18394838  - debug 					P3: Int64		10
20180320 18394838  - debug 					P4: DateTime	9999-12-31T00:00:00
20180320 18394838  - SQL   					ubDBSQLite3ThreadSafe.TubSQLite3Statement(172862D0) SELECT A01.ID  FROM ubm_navshortcut A01  WHERE code=? AND (( A01.mi_owner = ? ) OR               (1=1) OR                             exists (select 1 from ubm_navshortcut_adm admsubtable where admsubtable.instanceID = A01.ID and admsubtable.admSubjID in (select ur.RoleID from uba_userrole ur where ur.UserID = ? union select 10))) AND A01.mi_deleteDate=? LIMIT 1 OFFSET 0 
20180320 18394838  -  -    				00.000.101
20180320 18394838  -  -    			00.000.163
20180320 18394838  - debug 			Query result for entity "ubm_navshortcut" into data name "": row count=1
20180320 18394838  -  -    		00.000.175
20180320 18394838  -  -    	00.000.276
20180320 18394838  - http  	127.0.0.1 <- 200
20180320 18394838  -  -    00.000.769
20180320 18394838  (  +    ubql
20180320 18394838  ( http  	127.0.0.1 -> POST ubql
20180320 18394838  ( http  	[{"entity":"ubm_navshortcut","method":"select","fieldList":["ID"],"options":{"limit":1},"whereList":{"lookup":{"expression":"code","condition":"equal","values":{"code":"req_depart"}}}}]
20180320 18394838  ( auth  	admin/4605685
20180320 18394838  ( call  	endpoint ubql
20180320 18394838  (  +    	ubMixinClasses.TubRLSMixin(02B04E20).MixinMethod
20180320 18394838  ( debug 		ubm_navshortcut.select(TubRLSMixin)
20180320 18394838  ( debug 		Prepare RLS expression for ubm_navshortcut
20180320 18394838  (  -    	00.000.177
20180320 18394838  (  +    	ubMixinClasses.TubStorageMixin(02B042C0).MixinMethod
20180320 18394838  ( debug 		ubm_navshortcut.select(TubStorageMixin)
20180320 18394838  (  +    		ubApp.TubDataStore(20E9A028).Init
20180320 18394838  (  +    			ubApp.TubApp(02AB3EE0).DBExecute
20180320 18394838  (  +    				ubApp.TubApp(02AB3EE0).TubApp.InternalDBExecute
20180320 18394838  ( debug 					P1: String(10)	req_depart
20180320 18394838  ( debug 					P2: Int64		10
20180320 18394838  ( debug 					P3: Int64		10
20180320 18394838  ( debug 					P4: DateTime	9999-12-31T00:00:00
20180320 18394838  ( SQL   					ubDBSQLite3ThreadSafe.TubSQLite3Statement(17283A50) SELECT A01.ID  FROM ubm_navshortcut A01  WHERE code=? AND (( A01.mi_owner = ? ) OR               (1=1) OR                             exists (select 1 from ubm_navshortcut_adm admsubtable where admsubtable.instanceID = A01.ID and admsubtable.admSubjID in (select ur.RoleID from uba_userrole ur where ur.UserID = ? union select 10))) AND A01.mi_deleteDate=? LIMIT 1 OFFSET 0 
20180320 18394838  (  -    				00.000.019
20180320 18394838  (  -    			00.000.080
20180320 18394838  ( debug 			Query result for entity "ubm_navshortcut" into data name "": row count=1
20180320 18394838  (  -    		00.000.091
20180320 18394838  (  -    	00.000.188
20180320 18394838  ( http  	127.0.0.1 <- 200
20180320 18394838  (  -    00.000.657
20180320 18394839  1  +    ubql
20180320 18394839  1 http  	127.0.0.1 -> POST ubql
20180320 18394839  1 http  	[{"entity":"ubm_navshortcut","method":"select","fieldList":["ID"],"options":{"limit":1},"whereList":{"lookup":{"expression":"code","condition":"equal","values":{"code":"req_Subdepart"}}}}]
20180320 18394839  1 auth  	admin/4605685
20180320 18394839  1 call  	endpoint ubql
20180320 18394839  1  +    	ubMixinClasses.TubRLSMixin(02B04E20).MixinMethod
20180320 18394839  1 debug 		ubm_navshortcut.select(TubRLSMixin)
20180320 18394839  1 debug 		Prepare RLS expression for ubm_navshortcut
20180320 18394839  1  -    	00.000.199
20180320 18394839  1  +    	ubMixinClasses.TubStorageMixin(02B042C0).MixinMethod
20180320 18394839  1 debug 		ubm_navshortcut.select(TubStorageMixin)
20180320 18394839  1  +    		ubApp.TubDataStore(20E9A550).Init
20180320 18394839  1  +    			ubApp.TubApp(02AB3EE0).DBExecute
20180320 18394839  1  +    				ubApp.TubApp(02AB3EE0).TubApp.InternalDBExecute
20180320 18394839  1 debug 					P1: String(13)	req_Subdepart
20180320 18394839  1 debug 					P2: Int64		10
20180320 18394839  1 debug 					P3: Int64		10
20180320 18394839  1 debug 					P4: DateTime	9999-12-31T00:00:00
20180320 18394839  1 SQL   					ubDBSQLite3ThreadSafe.TubSQLite3Statement(172845F0) SELECT A01.ID  FROM ubm_navshortcut A01  WHERE code=? AND (( A01.mi_owner = ? ) OR               (1=1) OR                             exists (select 1 from ubm_navshortcut_adm admsubtable where admsubtable.instanceID = A01.ID and admsubtable.admSubjID in (select ur.RoleID from uba_userrole ur where ur.UserID = ? union select 10))) AND A01.mi_deleteDate=? LIMIT 1 OFFSET 0 
20180320 18394839  1  -    				00.000.021
20180320 18394839  1  -    			00.000.083
20180320 18394839  1 debug 			Query result for entity "ubm_navshortcut" into data name "": row count=1
20180320 18394839  1  -    		00.000.095
20180320 18394839  1  -    	00.000.194
20180320 18394839  1 http  	127.0.0.1 <- 200
20180320 18394839  1  -    00.000.732
20180320 18394839  #  +    ubql
20180320 18394839  # http  	127.0.0.1 -> POST ubql
20180320 18394839  # http  	[{"entity":"ubm_navshortcut","method":"select","fieldList":["ID"],"options":{"limit":1},"whereList":{"lookup":{"expression":"code","condition":"equal","values":{"code":"req_reqList"}}}}]
20180320 18394839  # auth  	admin/4605685
20180320 18394839  # call  	endpoint ubql
20180320 18394839  #  +    	ubMixinClasses.TubRLSMixin(02B04E20).MixinMethod
20180320 18394839  # debug 		ubm_navshortcut.select(TubRLSMixin)
20180320 18394839  # debug 		Prepare RLS expression for ubm_navshortcut
20180320 18394839  #  -    	00.000.207
20180320 18394839  #  +    	ubMixinClasses.TubStorageMixin(02B042C0).MixinMethod
20180320 18394839  # debug 		ubm_navshortcut.select(TubStorageMixin)
20180320 18394839  #  +    		ubApp.TubDataStore(20E99F10).Init
20180320 18394839  #  +    			ubApp.TubApp(02AB3EE0).DBExecute
20180320 18394839  #  +    				ubApp.TubApp(02AB3EE0).TubApp.InternalDBExecute
20180320 18394839  # debug 					P1: String(11)	req_reqList
20180320 18394839  # debug 					P2: Int64		10
20180320 18394839  # debug 					P3: Int64		10
20180320 18394839  # debug 					P4: DateTime	9999-12-31T00:00:00
20180320 18394839  # SQL   					ubDBSQLite3ThreadSafe.TubSQLite3Statement(17284890) SELECT A01.ID  FROM ubm_navshortcut A01  WHERE code=? AND (( A01.mi_owner = ? ) OR               (1=1) OR                             exists (select 1 from ubm_navshortcut_adm admsubtable where admsubtable.instanceID = A01.ID and admsubtable.admSubjID in (select ur.RoleID from uba_userrole ur where ur.UserID = ? union select 10))) AND A01.mi_deleteDate=? LIMIT 1 OFFSET 0 
20180320 18394839  #  -    				00.000.021
20180320 18394839  #  -    			00.000.094
20180320 18394839  # debug 			Query result for entity "ubm_navshortcut" into data name "": row count=1
20180320 18394839  #  -    		00.000.107
20180320 18394839  #  -    	00.000.208
20180320 18394839  # http  	127.0.0.1 <- 200
20180320 18394839  #  -    00.000.751
20180320 18394839  '  +    ubql
20180320 18394839  ' http  	127.0.0.1 -> POST ubql
20180320 18394839  ' http  	[{"entity":"ubm_navshortcut","method":"select","fieldList":["ID"],"options":{"limit":1},"whereList":{"lookup":{"expression":"code","condition":"equal","values":{"code":"req_cityRegion"}}}}]
20180320 18394839  ' auth  	admin/4605685
20180320 18394839  ' call  	endpoint ubql
20180320 18394839  '  +    	ubMixinClasses.TubRLSMixin(02B04E20).MixinMethod
20180320 18394839  ' debug 		ubm_navshortcut.select(TubRLSMixin)
20180320 18394839  ' debug 		Prepare RLS expression for ubm_navshortcut
20180320 18394839  '  -    	00.000.298
20180320 18394839  '  +    	ubMixinClasses.TubStorageMixin(02B042C0).MixinMethod
20180320 18394839  ' debug 		ubm_navshortcut.select(TubStorageMixin)
20180320 18394839  '  +    		ubApp.TubDataStore(20DEF6D8).Init
20180320 18394839  '  +    			ubApp.TubApp(02AB3EE0).DBExecute
20180320 18394839  '  +    				ubApp.TubApp(02AB3EE0).TubApp.InternalDBExecute
20180320 18394839  ' debug 					P1: String(14)	req_cityRegion
20180320 18394839  ' debug 					P2: Int64		10
20180320 18394839  ' debug 					P3: Int64		10
20180320 18394839  ' debug 					P4: DateTime	9999-12-31T00:00:00
20180320 18394839  ' SQL   					ubDBSQLite3ThreadSafe.TubSQLite3Statement(172842F0) SELECT A01.ID  FROM ubm_navshortcut A01  WHERE code=? AND (( A01.mi_owner = ? ) OR               (1=1) OR                             exists (select 1 from ubm_navshortcut_adm admsubtable where admsubtable.instanceID = A01.ID and admsubtable.admSubjID in (select ur.RoleID from uba_userrole ur where ur.UserID = ? union select 10))) AND A01.mi_deleteDate=? LIMIT 1 OFFSET 0 
20180320 18394839  '  -    				00.000.019
20180320 18394839  '  -    			00.000.077
20180320 18394839  ' debug 			Query result for entity "ubm_navshortcut" into data name "": row count=1
20180320 18394839  '  -    		00.000.089
20180320 18394839  '  -    	00.000.186
20180320 18394839  ' http  	127.0.0.1 <- 200
20180320 18394839  '  -    00.000.758
20180320 18394843  +  +    ubql
20180320 18394843  + http  	127.0.0.1 -> POST ubql
20180320 18394843  + http  	[{"entity":"ubm_enum","method":"select","fieldList":["code"],"options":{"limit":1},"whereList":{"c1":{"expression":"[code]","condition":"equal","values":{"c1":"NEW"}}}}]
20180320 18394843  + auth  	admin/4605685
20180320 18394843  + call  	endpoint ubql
20180320 18394843  +  +    	ubMixinClasses.TubStorageMixin(02B042C0).MixinMethod
20180320 18394843  + debug 		ubm_enum.select(TubStorageMixin)
20180320 18394843  +  +    		ubApp.TubDataStore(20DEFB88).Init
20180320 18394843  +  +    			ubApp.TubApp(02AB3EE0).DBExecute
20180320 18394843  +  +    				ubApp.TubApp(02AB3EE0).TubApp.InternalDBExecute
20180320 18394843  + debug 					P1: String(3)	NEW
20180320 18394843  + debug 					P2: DateTime	9999-12-31T00:00:00
20180320 18394843  + SQL   					ubDBSQLite3ThreadSafe.TubSQLite3Statement(172861B0) SELECT A01.code  FROM ubm_enum A01  WHERE A01.code=? AND A01.mi_deleteDate=? LIMIT 1 OFFSET 0 
20180320 18394843  +  -    				00.000.076
20180320 18394843  +  -    			00.000.153
20180320 18394843  + debug 			Query result for entity "ubm_enum" into data name "": row count=1
20180320 18394843  +  -    		00.000.165
20180320 18394843  +  -    	00.000.262
20180320 18394843  + http  	127.0.0.1 <- 200
20180320 18394843  +  -    00.000.579
20180320 18394843  $  +    ubql
20180320 18394843  $ http  	127.0.0.1 -> POST ubql
20180320 18394843  $ http  	[{"entity":"ubm_enum","method":"select","fieldList":["code"],"options":{"limit":1},"whereList":{"c1":{"expression":"[code]","condition":"equal","values":{"c1":"PROCESSED"}}}}]
20180320 18394843  $ auth  	admin/4605685
20180320 18394843  $ call  	endpoint ubql
20180320 18394843  $  +    	ubMixinClasses.TubStorageMixin(02B042C0).MixinMethod
20180320 18394843  $ debug 		ubm_enum.select(TubStorageMixin)
20180320 18394843  $  +    		ubApp.TubDataStore(20DEF188).Init
20180320 18394843  $  +    			ubApp.TubApp(02AB3EE0).DBExecute
20180320 18394843  $  +    				ubApp.TubApp(02AB3EE0).TubApp.InternalDBExecute
20180320 18394843  $ debug 					P1: String(9)	PROCESSED
20180320 18394843  $ debug 					P2: DateTime	9999-12-31T00:00:00
20180320 18394843  $ SQL   					ubDBSQLite3ThreadSafe.TubSQLite3Statement(17285130) SELECT A01.code  FROM ubm_enum A01  WHERE A01.code=? AND A01.mi_deleteDate=? LIMIT 1 OFFSET 0 
20180320 18394843  $  -    				00.000.015
20180320 18394843  $  -    			00.000.070
20180320 18394843  $ debug 			Query result for entity "ubm_enum" into data name "": row count=1
20180320 18394843  $  -    		00.000.079
20180320 18394843  $  -    	00.000.151
20180320 18394843  $ http  	127.0.0.1 <- 200
20180320 18394843  $  -    00.000.543
20180320 18394843  "  +    ubql
20180320 18394843  " http  	127.0.0.1 -> POST ubql
20180320 18394843  " http  	[{"entity":"ubm_enum","method":"select","fieldList":["code"],"options":{"limit":1},"whereList":{"c1":{"expression":"[code]","condition":"equal","values":{"c1":"REJECTED"}}}}]
20180320 18394843  " auth  	admin/4605685
20180320 18394843  " call  	endpoint ubql
20180320 18394843  "  +    	ubMixinClasses.TubStorageMixin(02B042C0).MixinMethod
20180320 18394843  " debug 		ubm_enum.select(TubStorageMixin)
20180320 18394843  "  +    		ubApp.TubDataStore(20DEEE90).Init
20180320 18394843  "  +    			ubApp.TubApp(02AB3EE0).DBExecute
20180320 18394843  "  +    				ubApp.TubApp(02AB3EE0).TubApp.InternalDBExecute
20180320 18394843  " debug 					P1: String(8)	REJECTED
20180320 18394843  " debug 					P2: DateTime	9999-12-31T00:00:00
20180320 18394843  " SQL   					ubDBSQLite3ThreadSafe.TubSQLite3Statement(17285070) SELECT A01.code  FROM ubm_enum A01  WHERE A01.code=? AND A01.mi_deleteDate=? LIMIT 1 OFFSET 0 
20180320 18394843  "  -    				00.000.014
20180320 18394843  "  -    			00.000.070
20180320 18394843  " debug 			Query result for entity "ubm_enum" into data name "": row count=1
20180320 18394843  "  -    		00.000.079
20180320 18394843  "  -    	00.000.152
20180320 18394843  " http  	127.0.0.1 <- 200
20180320 18394843  "  -    00.000.444
20180320 18394843  ,  +    ubql
20180320 18394843  , http  	127.0.0.1 -> POST ubql
20180320 18394843  , http  	[{"entity":"ubm_enum","method":"select","fieldList":["code"],"options":{"limit":1},"whereList":{"c1":{"expression":"[code]","condition":"equal","values":{"c1":"CLOSED"}}}}]
20180320 18394843  , auth  	admin/4605685
20180320 18394843  , call  	endpoint ubql
20180320 18394843  ,  +    	ubMixinClasses.TubStorageMixin(02B042C0).MixinMethod
20180320 18394843  , debug 		ubm_enum.select(TubStorageMixin)
20180320 18394843  ,  +    		ubApp.TubDataStore(20DEC960).Init
20180320 18394843  ,  +    			ubApp.TubApp(02AB3EE0).DBExecute
20180320 18394843  ,  +    				ubApp.TubApp(02AB3EE0).TubApp.InternalDBExecute
20180320 18394843  , debug 					P1: String(6)	CLOSED
20180320 18394843  , debug 					P2: DateTime	9999-12-31T00:00:00
20180320 18394843  , SQL   					ubDBSQLite3ThreadSafe.TubSQLite3Statement(17285250) SELECT A01.code  FROM ubm_enum A01  WHERE A01.code=? AND A01.mi_deleteDate=? LIMIT 1 OFFSET 0 
20180320 18394843  ,  -    				00.000.014
20180320 18394843  ,  -    			00.000.063
20180320 18394843  , debug 			Query result for entity "ubm_enum" into data name "": row count=1
20180320 18394843  ,  -    		00.000.071
20180320 18394843  ,  -    	00.000.141
20180320 18394843  , http  	127.0.0.1 <- 200
20180320 18394843  ,  -    00.000.411
20180320 18394843  0  +    ubql
20180320 18394843  0 http  	127.0.0.1 -> POST ubql
20180320 18394843  0 http  	[{"entity":"req_depart","method":"select","fieldList":["ID"],"options":{"limit":1},"whereList":{"c1":{"expression":"[name]","condition":"equal","values":{"c1":"Departments of health"}}}}]
20180320 18394843  0 auth  	admin/4605685
20180320 18394843  0 call  	endpoint ubql
20180320 18394843  0  +    	ubMixinClasses.TubStorageMixin(02B042C0).MixinMethod
20180320 18394843  0 debug 		req_depart.select(TubStorageMixin)
20180320 18394843  0  +    		ubApp.TubDataStore(20DEEE90).Init
20180320 18394843  0  +    			ubApp.TubApp(02AB3EE0).DBExecute
20180320 18394843  0  +    				ubApp.TubApp(02AB3EE0).TubApp.InternalDBExecute
20180320 18394843  0 debug 					P1: String(21)	Departments of health
20180320 18394843  0 SQL   					ubDBSQLite3ThreadSafe.TubSQLite3Statement(17285D30) SELECT A01.ID  FROM req_depart A01  WHERE A01.name=? LIMIT 1 OFFSET 0 
20180320 18394843  0  -    				00.000.051
20180320 18394843  0  -    			00.000.115
20180320 18394843  0 debug 			Query result for entity "req_depart" into data name "": row count=1
20180320 18394843  0  -    		00.000.126
20180320 18394843  0  -    	00.000.193
20180320 18394843  0 http  	127.0.0.1 <- 200
20180320 18394843  0  -    00.000.484
20180320 18394843  *  +    ubql
20180320 18394843  * http  	127.0.0.1 -> POST ubql
20180320 18394843  * http  	[{"entity":"req_depart","method":"select","fieldList":["ID"],"options":{"limit":1},"whereList":{"c1":{"expression":"[name]","condition":"equal","values":{"c1":"Departments of education"}}}}]
20180320 18394843  * auth  	admin/4605685
20180320 18394843  * call  	endpoint ubql
20180320 18394843  *  +    	ubMixinClasses.TubStorageMixin(02B042C0).MixinMethod
20180320 18394843  * debug 		req_depart.select(TubStorageMixin)
20180320 18394843  *  +    		ubApp.TubDataStore(20DEF188).Init
20180320 18394843  *  +    			ubApp.TubApp(02AB3EE0).DBExecute
20180320 18394843  *  +    				ubApp.TubApp(02AB3EE0).TubApp.InternalDBExecute
20180320 18394843  * debug 					P1: String(24)	Departments of education
20180320 18394843  * SQL   					ubDBSQLite3ThreadSafe.TubSQLite3Statement(17285A30) SELECT A01.ID  FROM req_depart A01  WHERE A01.name=? LIMIT 1 OFFSET 0 
20180320 18394843  *  -    				00.000.039
20180320 18394843  *  -    			00.000.091
20180320 18394843  * debug 			Query result for entity "req_depart" into data name "": row count=1
20180320 18394843  *  -    		00.000.100
20180320 18394843  *  -    	00.000.156
20180320 18394843  * http  	127.0.0.1 <- 200
20180320 18394843  *  -    00.000.383
20180320 18394843  %  +    logout
20180320 18394843  % http  	127.0.0.1 -> POST logout
20180320 18394843  % auth  	admin/4605685
20180320 18394843  % call  	endpoint logout
20180320 18394843  % auth  	Session closed admin/4605685/127.0.0.1
20180320 18394843  % http  	127.0.0.1 <- 200
20180320 18394843  %  -    00.000.114
20180320 18395142  .  +    logout
20180320 18395142  . http  	127.0.0.1 -> POST logout
20180320 18395142  . http  	{}
20180320 18395142  . auth  	admin/4605690
20180320 18395142  . call  	endpoint logout
20180320 18395142  . auth  	Session closed admin/4605690/127.0.0.1
20180320 18395142  . http  	127.0.0.1 <- 200
20180320 18395142  .  -    00.000.266
20180320 18395142  )  +    adm
20180320 18395142  ) http  	127.0.0.1 -> GET adm
20180320 18395142  ) call  	endpoint adm
20180320 18395142  ) http  	127.0.0.1 <- 200
20180320 18395142  )  -    00.001.470
20180320 18395143  /  +    models/adminui-pub/themes/UBGrayTheme/UBGrayTheme-all.css?ver=d41d8cd98f00b204e9800998ecf8427e
20180320 18395143  &  +    models/adminui-pub/ub-css-all.css?ver=d41d8cd98f00b204e9800998ecf8427e
20180320 18395143  / http  	127.0.0.1 -> GET models/adminui-pub/themes/UBGrayTheme/UBGrayTheme-all.css?ver=d41d8cd98f00b204e9800998ecf8427e
20180320 18395143  -  +    clientRequire/font-awesome/css/font-awesome.min.css
20180320 18395143  & http  	127.0.0.1 -> GET models/adminui-pub/ub-css-all.css?ver=d41d8cd98f00b204e9800998ecf8427e
20180320 18395143  (  +    models/adminui-pub/themes/UBGrayTheme/ub.css?ver=d41d8cd98f00b204e9800998ecf8427e
20180320 18395143  - http  	127.0.0.1 -> GET clientRequire/font-awesome/css/font-awesome.min.css
20180320 18395143  ( http  	127.0.0.1 -> GET models/adminui-pub/themes/UBGrayTheme/ub.css?ver=d41d8cd98f00b204e9800998ecf8427e
20180320 18395143  1  +    clientRequire/es6-promise/dist/es6-promise.auto.min.js
20180320 18395143  1 http  	127.0.0.1 -> GET clientRequire/es6-promise/dist/es6-promise.auto.min.js
20180320 18395143  1 call  	endpoint clientRequire
20180320 18395143  ( call  	endpoint models
20180320 18395143  / call  	endpoint models
20180320 18395143  & call  	endpoint models
20180320 18395143  - call  	endpoint clientRequire
20180320 18395143  #  +    clientRequire/systemjs/dist/system.js?ver=d41d8cd98f00b204e9800998ecf8427e
20180320 18395143  # http  	127.0.0.1 -> GET clientRequire/systemjs/dist/system.js?ver=d41d8cd98f00b204e9800998ecf8427e
20180320 18395143  1 info  	Call clientRequire 
20180320 18395143  # call  	endpoint clientRequire
20180320 18395143  - info  	Call clientRequire 
20180320 18395143  / http  	127.0.0.1 <- 200
20180320 18395143  ( http  	127.0.0.1 <- 200
20180320 18395143  & http  	127.0.0.1 <- 200
20180320 18395143  /  -    00.000.463
20180320 18395143  (  -    00.000.450
20180320 18395143  &  -    00.000.463
20180320 18395143  # info  	Call clientRequire 
20180320 18395143  - http  	127.0.0.1 <- 200
20180320 18395143  -  -    00.000.527
20180320 18395143  1 http  	127.0.0.1 <- 200
20180320 18395143  1  -    00.000.566
20180320 18395143  # http  	127.0.0.1 <- 200
20180320 18395143  #  -    00.000.618
20180320 18395143  '  +    models/adminui-pub/dist/ext-all.min.js?ver=d41d8cd98f00b204e9800998ecf8427e
20180320 18395143  ' http  	127.0.0.1 -> GET models/adminui-pub/dist/ext-all.min.js?ver=d41d8cd98f00b204e9800998ecf8427e
20180320 18395143  ' call  	endpoint models
20180320 18395143  ' http  	127.0.0.1 <- 200
20180320 18395143  '  -    00.000.289
20180320 18395147  +  +    clientRequire/font-awesome/fonts/fontawesome-webfont.woff2?v=4.7.0
20180320 18395147  + http  	127.0.0.1 -> GET clientRequire/font-awesome/fonts/fontawesome-webfont.woff2?v=4.7.0
20180320 18395147  + call  	endpoint clientRequire
20180320 18395147  + info  	Call clientRequire 
20180320 18395147  + http  	127.0.0.1 <- 200
20180320 18395147  +  -    00.000.335
20180320 18395210  $  +    clientRequire/@unitybase/adminui-pub/package.json
20180320 18395210  $ http  	127.0.0.1 -> GET clientRequire/@unitybase/adminui-pub/package.json
20180320 18395210  $ call  	endpoint clientRequire
20180320 18395210  $ info  	Call clientRequire 
20180320 18395210  $ http  	127.0.0.1 <- 200
20180320 18395210  $  -    00.000.324
20180320 18395210  "  +    clientRequire/@unitybase/adminui-pub/dist/adminui.app.min.js
20180320 18395210  ,  +    models/UB/img/UBLogo32.png
20180320 18395210  " http  	127.0.0.1 -> GET clientRequire/@unitybase/adminui-pub/dist/adminui.app.min.js
20180320 18395210  , http  	127.0.0.1 -> GET models/UB/img/UBLogo32.png
20180320 18395210  " call  	endpoint clientRequire
20180320 18395210  , call  	endpoint models
20180320 18395210  " info  	Call clientRequire 
20180320 18395210  " http  	127.0.0.1 <- 200
20180320 18395210  , http  	127.0.0.1 <- 200
20180320 18395210  "  -    00.000.321
20180320 18395210  ,  -    00.000.321
20180320 18395210  0  +    models/UB/img/UBLogo48.png
20180320 18395210  0 http  	127.0.0.1 -> GET models/UB/img/UBLogo48.png
20180320 18395210  0 call  	endpoint models
20180320 18395210  0 http  	127.0.0.1 <- 200
20180320 18395210  0  -    00.000.385
20180320 18395224  *  +    getAppInfo
20180320 18395224  %  +    clientRequire/@unitybase/adminui-pub/themes/UBGrayTheme/UBGrayTheme.js
20180320 18395224  * http  	127.0.0.1 -> GET getAppInfo
20180320 18395224  % http  	127.0.0.1 -> GET clientRequire/@unitybase/adminui-pub/themes/UBGrayTheme/UBGrayTheme.js
20180320 18395224  % call  	endpoint clientRequire
20180320 18395224  * call  	endpoint getAppInfo
20180320 18395224  .  +    models/UB/img/UBLogo128.png
20180320 18395224  . http  	127.0.0.1 -> GET models/UB/img/UBLogo128.png
20180320 18395224  % info  	Call clientRequire 
20180320 18395224  . call  	endpoint models
20180320 18395224  % http  	127.0.0.1 <- 200
20180320 18395224  %  -    00.000.347
20180320 18395224  . http  	127.0.0.1 <- 200
20180320 18395224  .  -    00.000.269
20180320 18395224  * http  	127.0.0.1 <- 304
20180320 18395224  *  -    00.000.511
20180320 18395224  )  +    models/adminui-pub/locale/lang-en.js?ubver=3865914637ef7cd48187d30356b8b4b0
20180320 18395224  ) http  	127.0.0.1 -> GET models/adminui-pub/locale/lang-en.js?ubver=3865914637ef7cd48187d30356b8b4b0
20180320 18395224  ) call  	endpoint models
20180320 18395224  ) http  	127.0.0.1 <- 200
20180320 18395224  )  -    00.000.265
20180320 18395224  &  +    models/UB/img/UBLogo16.ico
20180320 18395224  & http  	127.0.0.1 -> GET models/UB/img/UBLogo16.ico
20180320 18395224  & call  	endpoint models
20180320 18395224  & http  	127.0.0.1 <- 200
20180320 18395224  &  -    00.000.295
20180320 18395226  -  +    models/adminui-pub/themes/UBGrayTheme/images/form/exclamation.png
20180320 18395226  - http  	127.0.0.1 -> GET models/adminui-pub/themes/UBGrayTheme/images/form/exclamation.png
20180320 18395226  - call  	endpoint models
20180320 18395226  - http  	127.0.0.1 <- 200
20180320 18395226  -  -    00.000.310
20180320 18395323  1  +    auth?AUTHTYPE=UB&userName=admin
20180320 18395323  1 http  	127.0.0.1 -> POST auth?AUTHTYPE=UB&userName=admin
20180320 18395323  1 call  	endpoint auth
20180320 18395323  1 http  	127.0.0.1 <- 200
20180320 18395323  1  -    00.000.158
20180320 18395323  (  +    auth?AUTHTYPE=UB&clientNonce=ab8c818eeb487a8a04c1951b942b2bb66d77d993faa754435ecb3f01f1d92e71&password=2029fcd2da5b38246560e3f3934f1923aca30401634238bc8457817bc2417c5f&userName=admin
20180320 18395323  ( http  	127.0.0.1 -> POST auth?AUTHTYPE=UB&clientNonce=ab8c818eeb487a8a04c1951b942b2bb66d77d993faa754435ecb3f01f1d92e71&password=2029fcd2da5b38246560e3f3934f1923aca30401634238bc8457817bc2417c5f&userName=admin
20180320 18395323  ( call  	endpoint auth
20180320 18395323  (  +    	ubApp.TubDataStore(1731BD20).Init
20180320 18395323  (  +    		ubApp.TubApp(02AB3EE0).DBExecute
20180320 18395323  (  +    			ubApp.TubApp(02AB3EE0).TubApp.InternalDBExecute
20180320 18395323  ( debug 				P1: String(5)	admin
20180320 18395323  ( SQL   				ubDBSQLite3ThreadSafe.TubSQLite3Statement(17283D50) select id, name, uPasswordHashHexa, uData, isPending, trustedIP from UBA_USER where name=? and disabled=0
20180320 18395323  (  -    			00.000.023
20180320 18395323  (  -    		00.000.104
20180320 18395323  ( debug 		Query result for entity "uba_user" into data name "": row count=1
20180320 18395323  (  -    	00.000.120
20180320 18395323  (  +    	ubApp.TubDataStore(1731BD20).Init
20180320 18395323  (  +    		ubApp.TubApp(02AB3EE0).DBExecute
20180320 18395323  (  +    			ubApp.TubApp(02AB3EE0).TubApp.InternalDBExecute
20180320 18395323  ( debug 				P1: Int64		10
20180320 18395323  ( SQL   				ubDBSQLite3ThreadSafe.TubSQLite3Statement(172846B0) SELECT lastPasswordChangeDate FROM uba_user WHERE id=?
20180320 18395323  (  -    			00.000.008
20180320 18395323  (  -    		00.000.032
20180320 18395323  ( debug 		Query result for entity "uba_user" into data name "__expireDate": row count=1
20180320 18395323  (  -    	00.000.039
20180320 18395323  (  +    	ubApp.TubDataStore(20DEF228).Init
20180320 18395323  (  +    		ubApp.TubApp(02AB3EE0).DBExecute
20180320 18395323  (  +    			ubApp.TubApp(02AB3EE0).TubApp.InternalDBExecute
20180320 18395323  ( debug 				P1: Int64		10
20180320 18395323  ( SQL   				ubDBSQLite3ThreadSafe.TubSQLite3Statement(17284C50) SELECT A01.roleID,A02.name,A02.description  FROM uba_userrole A01  INNER JOIN uba_role A02 ON A02.ID=A01.roleID  WHERE A01.userID=?
20180320 18395323  (  -    			00.000.009
20180320 18395323  (  -    		00.000.044
20180320 18395323  ( debug 		Query result for entity "uba_userrole" into data name "": row count=1
20180320 18395323  (  -    	00.000.053
20180320 18395323  ( auth  	New session admin/4605684 created at 127.0.0.1/-504403148064948174 using Mozilla/5.0 (Windows NT 6.3; Win64; x64) AppleWebKit/537.36 (KHTML, like Gecko) Chrome/64.0.3282.186 Safari/537.36 OPR/51.0.2830.55
20180320 18395323  (  +    	ubMixinClasses.TubStorageMixin(02B042C0).MixinMethod
20180320 18395323  ( debug 		uba_user.select(TubStorageMixin)
20180320 18395323  (  +    		ubApp.TubDataStore(20DEF228).Init
20180320 18395323  (  +    			ubApp.TubApp(02AB3EE0).DBExecute
20180320 18395323  (  +    				ubApp.TubApp(02AB3EE0).TubApp.InternalDBExecute
20180320 18395323  ( debug 					P1: Int64		10
20180320 18395323  ( SQL   					ubDBSQLite3ThreadSafe.TubSQLite3Statement(17284D70) SELECT A01.name  FROM uba_user A01  WHERE A01.ID=?
20180320 18395323  (  -    				00.000.008
20180320 18395323  (  -    			00.000.031
20180320 18395323  ( debug 			Query result for entity "uba_user" into data name "": row count=1
20180320 18395323  (  -    		00.000.038
20180320 18395323  (  -    	00.000.093
20180320 18395323  (  +    	ubMixinClasses.TubStorageMixin(02B042C0).MixinMethod
20180320 18395323  ( debug 		uba_advSecurity.select(TubStorageMixin)
20180320 18395323  (  +    		ubApp.TubDataStore(20DEF228).Init
20180320 18395323  (  +    			ubApp.TubApp(02AB3EE0).DBExecute
20180320 18395323  (  +    				ubApp.TubApp(02AB3EE0).TubApp.InternalDBExecute
20180320 18395323  ( debug 					P1: Int64		10
20180320 18395323  ( SQL   					ubDBSQLite3ThreadSafe.TubSQLite3Statement(17284DD0) SELECT A01.ID,A01.allowedIP,A01.refreshIP,A01.fp,A01.refreshFp,A01.keyMediaName,A01.refreshKeyMedia,A01.mi_modifyDate  FROM uba_advSecurity A01  WHERE A01.userID=?
20180320 18395323  (  -    				00.000.014
20180320 18395323  (  -    			00.000.044
20180320 18395323  ( debug 			Query result for entity "uba_advSecurity" into data name "": row count=0
20180320 18395323  (  -    		00.000.052
20180320 18395323  (  -    	00.000.146
20180320 18395323  (  +    	ubMixinClasses.TubStorageMixin(02B042C0).MixinMethod
20180320 18395323  ( debug 		uba_userrole.select(TubStorageMixin)
20180320 18395323  (  +    		ubApp.TubDataStore(20DEF228).Init
20180320 18395323  (  +    			ubApp.TubApp(02AB3EE0).DBExecute
20180320 18395323  (  +    				ubApp.TubApp(02AB3EE0).TubApp.InternalDBExecute
20180320 18395323  ( debug 					P1: Int64		10
20180320 18395323  ( SQL   					ubDBSQLite3ThreadSafe.TubSQLite3Statement(17284E90) SELECT A01.ID,A02.name,A01.roleID  FROM uba_userrole A01  INNER JOIN uba_role A02 ON A02.ID=A01.roleID  WHERE A01.userID=?
20180320 18395323  (  -    				00.000.010
20180320 18395323  (  -    			00.000.049
20180320 18395323  ( debug 			Query result for entity "uba_userrole" into data name "": row count=1
20180320 18395323  (  -    		00.000.057
20180320 18395323  (  -    	00.000.127
20180320 18395323  (  +    	ubMixinClasses.TubStorageMixin(02B042C0).MixinMethod
20180320 18395323  ( debug 		uba_audit.beforeinsert(TubStorageMixin)
20180320 18395323  (  -    	00.000.005
20180320 18395323  (  +    	ubMixinClasses.TubStorageMixin(02B042C0).MixinMethod
20180320 18395323  ( debug 		uba_audit.insert(TubStorageMixin)
20180320 18395323  (  +    		ubApp.TubDataStore(07227120).TubDataStore.ExecuteInsertFromList
20180320 18395323  (  +    			ubApp.TubDataStore(07227120).TubDataStore.ExecuteInsertFromSQL
20180320 18395323  (  +    				ubApp.TubApp(02AB3EE0).DBExecute
20180320 18395323  (  +    					ubApp.TubApp(02AB3EE0).TubApp.InternalDBExecute
20180320 18395323  ( debug 						P1: String(8)	uba_user
20180320 18395323  ( debug 						P2: Int64		10
20180320 18395323  ( debug 						P3: String(5)	LOGIN
20180320 18395323  ( debug 						P4: Int64		10
20180320 18395323  ( debug 						P5: DateTime	2018-03-20T18:39:53
20180320 18395323  ( debug 						P6: String(9)	127.0.0.1
20180320 18395323  ( debug 						P7: String(5)	admin
20180320 18395323  ( debug 						P8: Int64		335498601103361
20180320 18395323  ( debug 						P9: String(407..)	Connection: keep-alive  Content-Length: 0  Accept: application/json, text/plain, */*  Accept-Encodin...
20180320 18395323  ( DB    						StartTransaction for connection "main"
20180320 18395323  ( SQL   						ubDBSQLite3ThreadSafe.TubSQLite3Statement(17284F50) INSERT INTO uba_audit (entity,entityinfo_id,actionType,actionUser,actionTime,remoteIP,targetUser,ID,fromValue) VALUES (?,?,?,?,?,?,?,?,?)
20180320 18395323  (  -    					00.000.083
20180320 18395323  (  -    				00.000.086
20180320 18395323  (  -    			00.000.176
20180320 18395323  (  -    		00.000.189
20180320 18395323  (  -    	00.000.193
20180320 18395323  (  +    	ubMixinClasses.TubStorageMixin(02B042C0).MixinMethod
20180320 18395323  ( debug 		uba_audit.afterinsert(TubStorageMixin)
20180320 18395323  (  -    	00.000.004
20180320 18395323  ( DB    	Commit connection "main"
20180320 18395323  ( http  	127.0.0.1 <- 200
20180320 18395323  (  -    00.003.180
20180320 18395324  #  +    getDomainInfo?userName=admin&v=4
20180320 18395324  # http  	127.0.0.1 -> GET getDomainInfo?userName=admin&v=4
20180320 18395324  # auth  	admin/4605684
20180320 18395324  # call  	endpoint getDomainInfo
20180320 18395324  # http  	127.0.0.1 <- 304
20180320 18395324  #  -    00.002.584
20180320 18395325  /  +    models/UB/locale/lang-en.js?ubver=16b0a19c938f48c16b56a05da80f0dc2
20180320 18395325  / http  	127.0.0.1 -> GET models/UB/locale/lang-en.js?ubver=16b0a19c938f48c16b56a05da80f0dc2
20180320 18395325  +  +    models/UBA/locale/lang-en.js?ubver=77650b6a42c37186bfb44af18a505e71
20180320 18395325  $  +    models/UBM/locale/lang-en.js?ubver=5d30adb331eaa71d9412558d2ace2271
20180320 18395325  + http  	127.0.0.1 -> GET models/UBA/locale/lang-en.js?ubver=77650b6a42c37186bfb44af18a505e71
20180320 18395325  $ http  	127.0.0.1 -> GET models/UBM/locale/lang-en.js?ubver=5d30adb331eaa71d9412558d2ace2271
20180320 18395325  '  +    models/UBS/locale/lang-en.js?ubver=16f6cb04f3b2b6a19844744bc20cc653
20180320 18395325  ' http  	127.0.0.1 -> GET models/UBS/locale/lang-en.js?ubver=16f6cb04f3b2b6a19844744bc20cc653
20180320 18395325  / call  	endpoint models
20180320 18395325  + call  	endpoint models
20180320 18395325  $ call  	endpoint models
20180320 18395325  ' call  	endpoint models
20180320 18395325  / http  	127.0.0.1 <- 200
20180320 18395325  /  -    00.000.272
20180320 18395325  $ http  	127.0.0.1 <- 200
20180320 18395325  $  -    00.000.285
20180320 18395325  ' http  	127.0.0.1 <- 200
20180320 18395325  '  -    00.000.320
20180320 18395325  + http  	127.0.0.1 <- 200
20180320 18395325  +  -    00.001.995
20180320 18395325  ,  +    clientRequire/@unitybase/ubs/package.json
20180320 18395325  , http  	127.0.0.1 -> GET clientRequire/@unitybase/ubs/package.json
20180320 18395325  , call  	endpoint clientRequire
20180320 18395325  , info  	Call clientRequire 
20180320 18395325  , http  	127.0.0.1 <- 200
20180320 18395325  ,  -    00.000.382
20180320 18395326  0  +    clientRequire/@unitybase/ubs/public/initModel.js
20180320 18395326  0 http  	127.0.0.1 -> GET clientRequire/@unitybase/ubs/public/initModel.js
20180320 18395326  0 call  	endpoint clientRequire
20180320 18395326  0 info  	Call clientRequire 
20180320 18395326  0 http  	127.0.0.1 <- 200
20180320 18395326  0  -    00.000.291
20180320 18395326  "  +    clientRequire/@unitybase/ubs/public/dist/ubs.main.min.js?ubver=2018-03-20T20:03:34
20180320 18395326  " http  	127.0.0.1 -> GET clientRequire/@unitybase/ubs/public/dist/ubs.main.min.js?ubver=2018-03-20T20:03:34
20180320 18395326  " call  	endpoint clientRequire
20180320 18395326  " info  	Call clientRequire 
20180320 18395326  " http  	127.0.0.1 <- 200
20180320 18395326  "  -    00.000.346
20180320 18395326  %  +    clientRequire/@unitybase/ubm/package.json
20180320 18395326  % http  	127.0.0.1 -> GET clientRequire/@unitybase/ubm/package.json
20180320 18395326  % call  	endpoint clientRequire
20180320 18395326  % info  	Call clientRequire 
20180320 18395326  % http  	127.0.0.1 <- 200
20180320 18395326  %  -    00.000.326
20180320 18395326  *  +    clientRequire/@unitybase/ubm/public/initModel.js
20180320 18395326  * http  	127.0.0.1 -> GET clientRequire/@unitybase/ubm/public/initModel.js
20180320 18395326  * call  	endpoint clientRequire
20180320 18395326  * info  	Call clientRequire 
20180320 18395326  * http  	127.0.0.1 <- 200
20180320 18395326  *  -    00.000.322
20180320 18395328  .  +    ubql
20180320 18395328  . http  	127.0.0.1 -> POST ubql
20180320 18395328  . http  	[{"entity":"ubs_settings","method":"select","fieldList":["ID","settingKey","name","description","type","settingValue","defaultValue"],"version":"1519981756"},{"entity":"ubm_desktop","method":"select","fieldList":["ID","caption","code","url","isDefault","mi_owner","mi_createDate","mi_createUser","mi_modifyDate","mi_modifyUser","mi_deleteDate","mi_deleteUser"],"version":"-1"},{"entity":"ubm_form","method":"select","fieldList":["ID","code","description","caption","formType","formDef","formCode","model","entity","isDefault","mi_owner","mi_createDate","mi_createUser","mi_modifyDate","mi_modifyUser"],"version":2613330792},{"entity":"ubm_enum","method":"select","fieldList":["ID","eGroup","code","shortName","name","sortOrder","mi_owner","mi_createDate","mi_createUser","mi_modifyDate","mi_modifyUser","mi_deleteDate","mi_deleteUser"],"version":"1521570480"}]
20180320 18395328  . auth  	admin/4605684
20180320 18395328  . call  	endpoint ubql
20180320 18395328  .  +    	ubMixinClasses.TubStorageMixin(02B042C0).MixinMethod
20180320 18395328  . debug 		ubs_settings.select(TubStorageMixin)
20180320 18395328  .  +    		ubApp.TubDataStore(20E9A550).Init
20180320 18395328  .  +    			ubApp.TubApp(02AB3EE0).DBExecute
20180320 18395328  .  +    				ubApp.TubApp(02AB3EE0).TubApp.InternalDBExecute
20180320 18395328  . SQL   					ubDBSQLite3ThreadSafe.TubSQLite3Statement(17285BB0) SELECT ( (SELECT COALESCE(strftime('%s',  MAX(mi_modifyDate)),1) FROM ubs_settings) ) AS dataVersion
20180320 18395328  .  -    				00.000.080
20180320 18395328  .  -    			00.000.167
20180320 18395328  . debug 			Query result for entity "ubs_settings" into data name "": row count=1
20180320 18395328  .  -    		00.000.176
20180320 18395328  .  -    	00.000.278
20180320 18395328  .  +    	ubMixinClasses.TubRLSMixin(02B04E20).MixinMethod
20180320 18395328  . debug 		ubm_desktop.select(TubRLSMixin)
20180320 18395328  . debug 		Prepare RLS expression for ubm_desktop
20180320 18395328  .  -    	00.000.217
20180320 18395328  .  +    	ubMixinClasses.TubStorageMixin(02B042C0).MixinMethod
20180320 18395328  . debug 		ubm_desktop.select(TubStorageMixin)
20180320 18395328  .  +    		ubApp.TubDataStore(20E9A578).Init
20180320 18395328  .  +    			ubApp.TubApp(02AB3EE0).DBExecute
20180320 18395328  .  +    				ubApp.TubApp(02AB3EE0).TubApp.InternalDBExecute
20180320 18395328  . debug 					P1: Int64		10
20180320 18395328  . debug 					P2: Int64		10
20180320 18395328  . debug 					P3: DateTime	9999-12-31T00:00:00
20180320 18395328  . SQL   					ubDBSQLite3ThreadSafe.TubSQLite3Statement(17283CF0) SELECT A01.ID,A01.caption,A01.code,A01.url,A01.isDefault,A01.mi_owner,A01.mi_createDate,A01.mi_createUser,A01.mi_modifyDate,A01.mi_modifyUser,A01.mi_deleteDate,A01.mi_deleteUser  FROM ubm_desktop A01  WHERE (( A01.mi_owner = ? ) OR (1=1) OR exists (select 1 from ubm_desktop_adm admsubtable where admsubtable.instanceID = A01.ID and admsubtable.admSubjID in (select ur.RoleID from uba_userrole ur where ur.UserID = ? union select 10))) AND A01.mi_deleteDate=?
20180320 18395328  .  -    				00.000.123
20180320 18395328  .  -    			00.000.167
20180320 18395328  . debug 			Query result for entity "ubm_desktop" into data name "": row count=2
20180320 18395328  .  -    		00.000.184
20180320 18395328  .  -    	00.000.335
20180320 18395329  .  +    	ubMixinClasses.TubStorageMixin(02B042C0).MixinMethod
20180320 18395329  . debug 		ubm_enum.select(TubStorageMixin)
20180320 18395329  .  +    		ubApp.TubDataStore(20E9A820).Init
20180320 18395329  .  +    			ubApp.TubApp(02AB3EE0).DBExecute
20180320 18395329  .  +    				ubApp.TubApp(02AB3EE0).TubApp.InternalDBExecute
20180320 18395329  . SQL   					ubDBSQLite3ThreadSafe.TubSQLite3Statement(17286630) SELECT ( (SELECT COALESCE(strftime('%s',  MAX(mi_modifyDate)),1) FROM ubm_enum) ) AS dataVersion
20180320 18395329  .  -    				00.000.077
20180320 18395329  .  -    			00.000.143
20180320 18395329  . debug 			Query result for entity "ubm_enum" into data name "": row count=1
20180320 18395329  .  -    		00.000.153
20180320 18395329  .  -    	00.000.292
20180320 18395329  . http  	127.0.0.1 <- 200
20180320 18395329  .  -    00.026.228
20180320 18395333  )  +    ubql
20180320 18395333  ) http  	127.0.0.1 -> POST ubql
20180320 18395333  ) http  	[{"entity":"ubm_navshortcut","method":"select","fieldList":["ID","desktopID","parentID","code","isFolder","caption","inWindow","isCollapsed","displayOrder","iconCls","mi_modifyDate"],"orderList":{"0":{"expression":"desktopID","order":"asc"},"1":{"expression":"parentID","order":"asc"},"2":{"expression":"displayOrder","order":"asc"},"3":{"expression":"caption","order":"asc"}}}]
20180320 18395333  ) auth  	admin/4605684
20180320 18395333  ) call  	endpoint ubql
20180320 18395333  )  +    	ubMixinClasses.TubRLSMixin(02B04E20).MixinMethod
20180320 18395333  ) debug 		ubm_navshortcut.select(TubRLSMixin)
20180320 18395333  ) debug 		Prepare RLS expression for ubm_navshortcut
20180320 18395333  )  -    	00.000.254
20180320 18395333  )  +    	ubMixinClasses.TubStorageMixin(02B042C0).MixinMethod
20180320 18395333  ) debug 		ubm_navshortcut.select(TubStorageMixin)
20180320 18395333  )  +    		ubApp.TubDataStore(20E9A668).Init
20180320 18395333  )  +    			ubApp.TubApp(02AB3EE0).DBExecute
20180320 18395333  )  +    				ubApp.TubApp(02AB3EE0).TubApp.InternalDBExecute
20180320 18395333  ) debug 					P1: Int64		10
20180320 18395333  ) debug 					P2: Int64		10
20180320 18395333  ) debug 					P3: DateTime	9999-12-31T00:00:00
20180320 18395333  ) SQL   					ubDBSQLite3ThreadSafe.TubSQLite3Statement(172855B0) SELECT A01.ID,A01.desktopID,A01.parentID,A01.code,A01.isFolder,A01.caption,A01.inWindow,A01.isCollapsed,A01.displayOrder,A01.iconCls,A01.mi_modifyDate  FROM ubm_navshortcut A01  WHERE (( A01.mi_owner = ? ) OR               (1=1) OR                             exists (select 1 from ubm_navshortcut_adm admsubtable where admsubtable.instanceID = A01.ID and admsubtable.admSubjID in (select ur.RoleID from uba_userrole ur where ur.UserID = ? union select 10))) AND A01.mi_deleteDate=? ORDER BY 2 ASC,3 ASC,9 ASC,6 ... (truncated) length=515
20180320 18395333  )  -    				00.000.158
20180320 18395333  )  -    			00.000.402
20180320 18395333  ) debug 			Query result for entity "ubm_navshortcut" into data name "": row count=34
20180320 18395333  )  -    		00.000.434
20180320 18395333  )  -    	00.000.631
20180320 18395333  ) http  	127.0.0.1 <- 200
20180320 18395333  )  -    00.001.281
20180320 18395339  &  +    models/adminui-pub/themes/UBGrayTheme/images/toolbar/more.png
20180320 18395339  & http  	127.0.0.1 -> GET models/adminui-pub/themes/UBGrayTheme/images/toolbar/more.png
20180320 18395339  & call  	endpoint models
20180320 18395339  & http  	127.0.0.1 <- 200
20180320 18395339  &  -    00.000.274
20180320 18395339  -  +    models/adminui-pub/themes/UBGrayTheme/images/grid/hd-pop.png
20180320 18395339  - http  	127.0.0.1 -> GET models/adminui-pub/themes/UBGrayTheme/images/grid/hd-pop.png
20180320 18395339  - call  	endpoint models
20180320 18395339  1  +    models/adminui-pub/themes/UBGrayTheme/images/button/default-toolbar-small-arrow.png
20180320 18395339  1 http  	127.0.0.1 -> GET models/adminui-pub/themes/UBGrayTheme/images/button/default-toolbar-small-arrow.png
20180320 18395339  1 call  	endpoint models
20180320 18395339  1 http  	127.0.0.1 <- 200
20180320 18395339  1  -    00.000.235
20180320 18395339  - http  	127.0.0.1 <- 200
20180320 18395339  -  -    00.000.573
20180320 18395422  (  +    models/adminui-pub/themes/UBGrayTheme/images/menu/scroll-top.png
20180320 18395422  /  +    models/adminui-pub/themes/UBGrayTheme/images/menu/scroll-bottom.png
20180320 18395422  #  +    models/adminui-pub/themes/UBGrayTheme/images/menu/menu-parent.png
20180320 18395422  ( http  	127.0.0.1 -> GET models/adminui-pub/themes/UBGrayTheme/images/menu/scroll-top.png
20180320 18395422  # http  	127.0.0.1 -> GET models/adminui-pub/themes/UBGrayTheme/images/menu/menu-parent.png
20180320 18395422  / http  	127.0.0.1 -> GET models/adminui-pub/themes/UBGrayTheme/images/menu/scroll-bottom.png
20180320 18395422  ( call  	endpoint models
20180320 18395422  # call  	endpoint models
20180320 18395422  / call  	endpoint models
20180320 18395422  # http  	127.0.0.1 <- 200
20180320 18395422  ( http  	127.0.0.1 <- 200
20180320 18395422  #  -    00.000.285
20180320 18395422  (  -    00.000.290
20180320 18395422  / http  	127.0.0.1 <- 200
20180320 18395422  /  -    00.000.608
20180320 18395553  $  +    models/adminui-pub/themes/UBGrayTheme/ubimages/data.ico
20180320 18395553  +  +    models/adminui-pub/themes/UBGrayTheme/ubimages/form.ico
20180320 18395553  + http  	127.0.0.1 -> GET models/adminui-pub/themes/UBGrayTheme/ubimages/form.ico
20180320 18395553  $ http  	127.0.0.1 -> GET models/adminui-pub/themes/UBGrayTheme/ubimages/data.ico
20180320 18395553  $ call  	endpoint models
20180320 18395553  + call  	endpoint models
20180320 18395553  + http  	127.0.0.1 <- 200
20180320 18395553  +  -    00.000.283
20180320 18395553  $ http  	127.0.0.1 <- 200
20180320 18395553  $  -    00.000.297
20180320 18395553  '  +    models/adminui-pub/themes/UBGrayTheme/ubimages/ui.ico
20180320 18395553  ' http  	127.0.0.1 -> GET models/adminui-pub/themes/UBGrayTheme/ubimages/ui.ico
20180320 18395553  ' call  	endpoint models
20180320 18395553  ' http  	127.0.0.1 <- 200
20180320 18395553  '  -    00.000.214
20180320 18395709  ,  +    getDocument
20180320 18395709  0  +    getDocument
20180320 18395709  , http  	127.0.0.1 -> POST getDocument
20180320 18395709  0 http  	127.0.0.1 -> POST getDocument
20180320 18395709  , http  	{"id":3693092933,"entity":"ubm_form","attribute":"formDef"}
20180320 18395709  0 http  	{"id":3693092933,"entity":"ubm_form","attribute":"formCode"}
20180320 18395709  0 auth  	admin/4605684
20180320 18395709  0 call  	endpoint getDocument
20180320 18395709  , auth  	admin/4605684
20180320 18395709  , call  	endpoint getDocument
20180320 18395709  0 http  	127.0.0.1 <- 200
20180320 18395709  0  -    00.003.652
20180320 18395711  , http  	127.0.0.1 <- 200
20180320 18395711  ,  -    00.027.135
20180320 18395712  "  +    models/adminui-pub/themes/UBGrayTheme/ubimages/scanner.ico
20180320 18395712  %  +    models/adminui-pub/themes/UBGrayTheme/images/tools/tool-sprites.png
20180320 18395712  " http  	127.0.0.1 -> GET models/adminui-pub/themes/UBGrayTheme/ubimages/scanner.ico
20180320 18395712  % http  	127.0.0.1 -> GET models/adminui-pub/themes/UBGrayTheme/images/tools/tool-sprites.png
20180320 18395712  % call  	endpoint models
20180320 18395712  " call  	endpoint models
20180320 18395712  % http  	127.0.0.1 <- 200
20180320 18395712  %  -    00.000.330
20180320 18395712  " http  	127.0.0.1 <- 200
20180320 18395712  "  -    00.000.722
20180320 18395838  )  +    models/adminui-pub/themes/UBGrayTheme/images/sizer/nw-handle.png
20180320 18395838  .  +    models/adminui-pub/themes/UBGrayTheme/images/sizer/se-handle.png
20180320 18395838  &  +    models/adminui-pub/themes/UBGrayTheme/images/sizer/ne-handle.png
20180320 18395838  *  +    models/adminui-pub/themes/UBGrayTheme/images/sizer/sw-handle.png
20180320 18395838  & http  	127.0.0.1 -> GET models/adminui-pub/themes/UBGrayTheme/images/sizer/ne-handle.png
20180320 18395838  * http  	127.0.0.1 -> GET models/adminui-pub/themes/UBGrayTheme/images/sizer/sw-handle.png
20180320 18395838  . http  	127.0.0.1 -> GET models/adminui-pub/themes/UBGrayTheme/images/sizer/se-handle.png
20180320 18395838  1  +    models/adminui-pub/themes/UBGrayTheme/images/sizer/e-handle.png
20180320 18395838  1 http  	127.0.0.1 -> GET models/adminui-pub/themes/UBGrayTheme/images/sizer/e-handle.png
20180320 18395838  -  +    models/adminui-pub/themes/UBGrayTheme/images/sizer/s-handle.png
20180320 18395838  ) http  	127.0.0.1 -> GET models/adminui-pub/themes/UBGrayTheme/images/sizer/nw-handle.png
20180320 18395838  - http  	127.0.0.1 -> GET models/adminui-pub/themes/UBGrayTheme/images/sizer/s-handle.png
20180320 18395838  1 call  	endpoint models
20180320 18395838  * call  	endpoint models
20180320 18395838  - call  	endpoint models
20180320 18395838  . call  	endpoint models
20180320 18395838  ) call  	endpoint models
20180320 18395838  & call  	endpoint models
20180320 18395838  * http  	127.0.0.1 <- 200
20180320 18395838  *  -    00.000.621
20180320 18395838  1 http  	127.0.0.1 <- 200
20180320 18395838  1  -    00.000.754
20180320 18395838  ) http  	127.0.0.1 <- 200
20180320 18395838  )  -    00.000.791
20180320 18395838  . http  	127.0.0.1 <- 200
20180320 18395838  & http  	127.0.0.1 <- 200
20180320 18395838  .  -    00.001.082
20180320 18395838  &  -    00.001.083
20180320 18395838  - http  	127.0.0.1 <- 200
20180320 18395838  -  -    00.002.347
20180320 18412047  ! info  ubApp.TubApp(02AB3EE0) {   "ClientsCurrent": 1,   "ClientsMax": 2,   "Invalid": 2,   "Responses": 742,   "Modified": 0,   "IncomingBytes": 348162,   "OutcomingBytes": 484926,   "OutcomingFiles": 355,   "ServiceCalls": 739,   "ProcessTime": "5.99s"  }
